
C:/Users/Joseph/Documents/2nd_Year/ECE243/243-project/monitor_program/main.axf:     file format elf32-littlearm


Disassembly of section .vectors:

00000000 <__cs3_interrupt_vector>:
   0:	18 f0 9f e5 18 f0 9f e5 18 f0 9f e5 18 f0 9f e5     ................
  10:	18 f0 9f e5 18 f0 9f e5 18 f0 9f e5 18 f0 9f e5     ................
  20:	40 00 00 00 1c 4f 00 00 20 4f 00 00 24 4f 00 00     @....O.. O..$O..
  30:	28 4f 00 00 18 4f 00 00 2c 4f 00 00 30 4f 00 00     (O...O..,O..0O..

Disassembly of section .text:

00000040 <__cs3_reset>:
      40:	ea000026 	b	e0 <__cs3_start_asm_sim>

00000044 <__cs3_start_c>:
      44:	e59f608c 	ldr	r6, [pc, #140]	; d8 <__cs3_start_c+0x94>
      48:	e3560000 	cmp	r6, #0
      4c:	e92d4080 	push	{r7, lr}
      50:	e2466001 	sub	r6, r6, #1
      54:	0a00001e 	beq	d4 <__cs3_start_c+0x90>
      58:	e59f507c 	ldr	r5, [pc, #124]	; dc <__cs3_start_c+0x98>
      5c:	e3a00000 	mov	r0, #0
      60:	e3a01000 	mov	r1, #0
      64:	e515200c 	ldr	r2, [r5, #-12]
      68:	e515e010 	ldr	lr, [r5, #-16]
      6c:	e5154008 	ldr	r4, [r5, #-8]
      70:	e15e0002 	cmp	lr, r2
      74:	00822004 	addeq	r2, r2, r4
      78:	0a000009 	beq	a4 <__cs3_start_c+0x60>
      7c:	e3540000 	cmp	r4, #0
      80:	0a000007 	beq	a4 <__cs3_start_c+0x60>
      84:	e1a07002 	mov	r7, r2
      88:	e1a0c002 	mov	r12, r2
      8c:	e8be000c 	ldm	lr!, {r2, r3}
      90:	e8ac000c 	stmia	r12!, {r2, r3}
      94:	e067300c 	rsb	r3, r7, r12
      98:	e1540003 	cmp	r4, r3
      9c:	e1a0200c 	mov	r2, r12
      a0:	1afffff9 	bne	8c <__cs3_start_c+0x48>
      a4:	e515e004 	ldr	lr, [r5, #-4]
      a8:	e35e0000 	cmp	lr, #0
      ac:	11a03002 	movne	r3, r2
      b0:	0a000003 	beq	c4 <__cs3_start_c+0x80>
      b4:	e8a30003 	stmia	r3!, {r0, r1}
      b8:	e062c003 	rsb	r12, r2, r3
      bc:	e15e000c 	cmp	lr, r12
      c0:	1afffffb 	bne	b4 <__cs3_start_c+0x70>
      c4:	e2466001 	sub	r6, r6, #1
      c8:	e3760001 	cmn	r6, #1
      cc:	e2855014 	add	r5, r5, #20
      d0:	1affffe3 	bne	64 <__cs3_start_c+0x20>
      d4:	eb001376 	bl	4eb4 <__cs3_premain>
      d8:	00000001 	.word	0x00000001
      dc:	00005228 	.word	0x00005228

000000e0 <__cs3_start_asm_sim>:
      e0:	e28f103c 	add	r1, pc, #60	; 0x3c
      e4:	e3a00016 	mov	r0, #22
      e8:	ef123456 	svc	0x00123456
      ec:	e3500000 	cmp	r0, #0
      f0:	ba000008 	blt	118 <__cs3_start_asm_sim+0x38>
      f4:	e59f2028 	ldr	r2, [pc, #40]	; 124 <__cs3_heap_start_ptr>
      f8:	e59fd01c 	ldr	sp, [pc, #28]	; 11c <__cs3_start_asm_sim+0x3c>
      fc:	e5920008 	ldr	r0, [r2, #8]
     100:	e3500000 	cmp	r0, #0
     104:	11a0d000 	movne	sp, r0
     108:	e59f1010 	ldr	r1, [pc, #16]	; 120 <__cs3_start_asm_sim+0x40>
     10c:	e5920004 	ldr	r0, [r2, #4]
     110:	e3500000 	cmp	r0, #0
     114:	15810000 	strne	r0, [r1]
     118:	eaffffc9 	b	44 <__cs3_start_c>
     11c:	3ffffff8 	.word	0x3ffffff8
     120:	00005668 	.word	0x00005668

00000124 <__cs3_heap_start_ptr>:
     124:	00005690 	.word	0x00005690

00000128 <_start>:
     128:	e51fd000 	ldr	sp, [pc, #-0]	; 130 <_start+0x8>
     12c:	eaffffc4 	b	44 <__cs3_start_c>
     130:	3ffffff8 	.word	0x3ffffff8

00000134 <deregister_tm_clones>:
     134:	e92d4008 	push	{r3, lr}
     138:	e59f002c 	ldr	r0, [pc, #44]	; 16c <deregister_tm_clones+0x38>
     13c:	e59f302c 	ldr	r3, [pc, #44]	; 170 <deregister_tm_clones+0x3c>
     140:	e0603003 	rsb	r3, r0, r3
     144:	e3530006 	cmp	r3, #6
     148:	8a000001 	bhi	154 <deregister_tm_clones+0x20>
     14c:	e8bd4008 	pop	{r3, lr}
     150:	e12fff1e 	bx	lr
     154:	e59f3018 	ldr	r3, [pc, #24]	; 174 <deregister_tm_clones+0x40>
     158:	e3530000 	cmp	r3, #0
     15c:	0afffffa 	beq	14c <deregister_tm_clones+0x18>
     160:	e1a0e00f 	mov	lr, pc
     164:	e12fff13 	bx	r3
     168:	eafffff7 	b	14c <deregister_tm_clones+0x18>
     16c:	00005670 	.word	0x00005670
     170:	00005673 	.word	0x00005673
     174:	00000000 	.word	0x00000000

00000178 <register_tm_clones>:
     178:	e92d4008 	push	{r3, lr}
     17c:	e59f0034 	ldr	r0, [pc, #52]	; 1b8 <register_tm_clones+0x40>
     180:	e59f3034 	ldr	r3, [pc, #52]	; 1bc <register_tm_clones+0x44>
     184:	e0603003 	rsb	r3, r0, r3
     188:	e1a03143 	asr	r3, r3, #2
     18c:	e0833fa3 	add	r3, r3, r3, lsr #31
     190:	e1b010c3 	asrs	r1, r3, #1
     194:	1a000001 	bne	1a0 <register_tm_clones+0x28>
     198:	e8bd4008 	pop	{r3, lr}
     19c:	e12fff1e 	bx	lr
     1a0:	e59f2018 	ldr	r2, [pc, #24]	; 1c0 <register_tm_clones+0x48>
     1a4:	e3520000 	cmp	r2, #0
     1a8:	0afffffa 	beq	198 <register_tm_clones+0x20>
     1ac:	e1a0e00f 	mov	lr, pc
     1b0:	e12fff12 	bx	r2
     1b4:	eafffff7 	b	198 <register_tm_clones+0x20>
     1b8:	00005670 	.word	0x00005670
     1bc:	00005670 	.word	0x00005670
     1c0:	00000000 	.word	0x00000000

000001c4 <__do_global_dtors_aux>:
     1c4:	e92d4010 	push	{r4, lr}
     1c8:	e59f402c 	ldr	r4, [pc, #44]	; 1fc <__do_global_dtors_aux+0x38>
     1cc:	e5d43000 	ldrb	r3, [r4]
     1d0:	e3530000 	cmp	r3, #0
     1d4:	1a000006 	bne	1f4 <__do_global_dtors_aux+0x30>
     1d8:	ebffffd5 	bl	134 <deregister_tm_clones>
     1dc:	e59f301c 	ldr	r3, [pc, #28]	; 200 <__do_global_dtors_aux+0x3c>
     1e0:	e3530000 	cmp	r3, #0
     1e4:	159f0018 	ldrne	r0, [pc, #24]	; 204 <__do_global_dtors_aux+0x40>
     1e8:	1320f000 	nopne	{0}
     1ec:	e3a03001 	mov	r3, #1
     1f0:	e5c43000 	strb	r3, [r4]
     1f4:	e8bd4010 	pop	{r4, lr}
     1f8:	e12fff1e 	bx	lr
     1fc:	00005670 	.word	0x00005670
     200:	00000000 	.word	0x00000000
     204:	00004fbc 	.word	0x00004fbc

00000208 <frame_dummy>:
     208:	e92d4008 	push	{r3, lr}
     20c:	e59f3034 	ldr	r3, [pc, #52]	; 248 <frame_dummy+0x40>
     210:	e3530000 	cmp	r3, #0
     214:	159f0030 	ldrne	r0, [pc, #48]	; 24c <frame_dummy+0x44>
     218:	159f1030 	ldrne	r1, [pc, #48]	; 250 <frame_dummy+0x48>
     21c:	1320f000 	nopne	{0}
     220:	e59f002c 	ldr	r0, [pc, #44]	; 254 <frame_dummy+0x4c>
     224:	e5903000 	ldr	r3, [r0]
     228:	e3530000 	cmp	r3, #0
     22c:	0a000003 	beq	240 <frame_dummy+0x38>
     230:	e59f3020 	ldr	r3, [pc, #32]	; 258 <frame_dummy+0x50>
     234:	e3530000 	cmp	r3, #0
     238:	11a0e00f 	movne	lr, pc
     23c:	112fff13 	bxne	r3
     240:	e8bd4008 	pop	{r3, lr}
     244:	eaffffcb 	b	178 <register_tm_clones>
     248:	00000000 	.word	0x00000000
     24c:	00004fbc 	.word	0x00004fbc
     250:	00005674 	.word	0x00005674
     254:	00005228 	.word	0x00005228
     258:	00000000 	.word	0x00000000

0000025c <write_char>:
    }
}

void write_char(int x, int y, char c) {
  // VGA character buffer
  volatile char * character_buffer = (char *) (0xC9000000 + (y<<7) + x);
     25c:	e28004c9 	add	r0, r0, #-922746880	; 0xc9000000
  *character_buffer = c;
     260:	e7c02381 	strb	r2, [r0, r1, lsl #7]
     264:	e12fff1e 	bx	lr

00000268 <write_string>:
}

void write_string(int x, int y, int size, char string[size]){
     268:	e92d40f8 	push	{r3, r4, r5, r6, r7, lr}
     26c:	e1a06001 	mov	r6, r1
    if(y<60){
     270:	e351003b 	cmp	r1, #59	; 0x3b
     274:	c8bd80f8 	popgt	{r3, r4, r5, r6, r7, pc}
        for (int i = 0; i < size; i++) {
     278:	e3520000 	cmp	r2, #0
     27c:	d8bd80f8 	pople	{r3, r4, r5, r6, r7, pc}
  // VGA character buffer
  volatile char * character_buffer = (char *) (0xC9000000 + (y<<7) + x);
  *character_buffer = c;
}

void write_string(int x, int y, int size, char string[size]){
     280:	e0825000 	add	r5, r2, r0
     284:	e1a04000 	mov	r4, r0
     288:	e0607003 	rsb	r7, r0, r3
    if(y<60){
        for (int i = 0; i < size; i++) {
            if((x+i)<79)
     28c:	e354004e 	cmp	r4, #78	; 0x4e
     290:	ca000003 	bgt	2a4 <write_string+0x3c>
                write_char(x + i, y, string[i]);
     294:	e1a00004 	mov	r0, r4
     298:	e1a01006 	mov	r1, r6
     29c:	e7d72004 	ldrb	r2, [r7, r4]
     2a0:	ebffffed 	bl	25c <write_char>
     2a4:	e2844001 	add	r4, r4, #1
  *character_buffer = c;
}

void write_string(int x, int y, int size, char string[size]){
    if(y<60){
        for (int i = 0; i < size; i++) {
     2a8:	e1540005 	cmp	r4, r5
     2ac:	1afffff6 	bne	28c <write_string+0x24>
     2b0:	e8bd80f8 	pop	{r3, r4, r5, r6, r7, pc}

000002b4 <clear_chars>:
                write_char(x + i, y, string[i]);
        }
    }
}

void clear_chars(){
     2b4:	e92d4070 	push	{r4, r5, r6, lr}
    for (int x = 0; x < 79; x++)
     2b8:	e3a05000 	mov	r5, #0
                write_char(x + i, y, string[i]);
        }
    }
}

void clear_chars(){
     2bc:	e1a06005 	mov	r6, r5
     2c0:	ea000009 	b	2ec <clear_chars+0x38>
    for (int x = 0; x < 79; x++)
        for(int y = 0; y < 59; y++)
            write_char(x, y, '\0');
     2c4:	e1a00005 	mov	r0, r5
     2c8:	e1a01004 	mov	r1, r4
     2cc:	e1a02006 	mov	r2, r6
     2d0:	ebffffe1 	bl	25c <write_char>
    }
}

void clear_chars(){
    for (int x = 0; x < 79; x++)
        for(int y = 0; y < 59; y++)
     2d4:	e2844001 	add	r4, r4, #1
     2d8:	e354003b 	cmp	r4, #59	; 0x3b
     2dc:	1afffff8 	bne	2c4 <clear_chars+0x10>
        }
    }
}

void clear_chars(){
    for (int x = 0; x < 79; x++)
     2e0:	e2855001 	add	r5, r5, #1
     2e4:	e355004f 	cmp	r5, #79	; 0x4f
     2e8:	08bd8070 	popeq	{r4, r5, r6, pc}
                write_char(x + i, y, string[i]);
        }
    }
}

void clear_chars(){
     2ec:	e1a04006 	mov	r4, r6
     2f0:	eafffff3 	b	2c4 <clear_chars+0x10>

000002f4 <plot_pixel>:
        }
    }
}

void plot_pixel(int x, int y, short int line_color){
    if(x<X_DIM && x>=0 && y<Y_DIM && y>=0)
     2f4:	e35100ef 	cmp	r1, #239	; 0xef
     2f8:	c3a03000 	movgt	r3, #0
     2fc:	d3a03001 	movle	r3, #1
     300:	e3500d05 	cmp	r0, #320	; 0x140
     304:	23a03000 	movcs	r3, #0
     308:	e3530000 	cmp	r3, #0
     30c:	012fff1e 	bxeq	lr
     310:	e3510000 	cmp	r1, #0
     314:	b12fff1e 	bxlt	lr
        *(short int *)(pixel_buffer_start + (y << 10) + (x << 1)) = line_color;
     318:	e305368c 	movw	r3, #22156	; 0x568c
     31c:	e3403000 	movt	r3, #0
     320:	e5933000 	ldr	r3, [r3]
     324:	e1a00080 	lsl	r0, r0, #1
     328:	e0831501 	add	r1, r3, r1, lsl #10
     32c:	e18120b0 	strh	r2, [r1, r0]
     330:	e12fff1e 	bx	lr

00000334 <draw_line>:
    for(int deg=0; deg<360; deg++){
        draw_line(x, y, x + r*cos(deg), y + r*sin(deg), colour);
    }
}

void draw_line(int x0, int y0, int x1, int y1, short int line_colour){
     334:	e92d4ff0 	push	{r4, r5, r6, r7, r8, r9, r10, r11, lr}
     338:	e24dd00c 	sub	sp, sp, #12
     33c:	e1a08002 	mov	r8, r2
     340:	e1dd93f0 	ldrsh	r9, [sp, #48]	; 0x30
    int is_steep = abs(y1 - y0) > abs(x1 - x0);
     344:	e061a003 	rsb	r10, r1, r3
     348:	e35a0000 	cmp	r10, #0
     34c:	b26aa000 	rsblt	r10, r10, #0
     350:	e0602002 	rsb	r2, r0, r2
     354:	e3520000 	cmp	r2, #0
     358:	b2622000 	rsblt	r2, r2, #0
     35c:	e15a0002 	cmp	r10, r2
     360:	d3a0a000 	movle	r10, #0
     364:	c3a0a001 	movgt	r10, #1
    int temp = 0;
    if (is_steep){
     368:	e35a0000 	cmp	r10, #0
     36c:	0a000005 	beq	388 <draw_line+0x54>
     370:	e1a02008 	mov	r2, r8
		temp = x0;
		x0 = y0;
		y0 = temp;
		temp = x1;
		x1 = y1;
     374:	e1a08003 	mov	r8, r3
		y1 = temp;
     378:	e1a03002 	mov	r3, r2
}

void draw_line(int x0, int y0, int x1, int y1, short int line_colour){
    int is_steep = abs(y1 - y0) > abs(x1 - x0);
    int temp = 0;
    if (is_steep){
     37c:	e1a02000 	mov	r2, r0
		temp = x0;
		x0 = y0;
     380:	e1a00001 	mov	r0, r1
		y0 = temp;
     384:	e1a01002 	mov	r1, r2
		temp = x1;
		x1 = y1;
		y1 = temp;
    }
    if (x0 > x1){
     388:	e1500008 	cmp	r0, r8
     38c:	da000005 	ble	3a8 <draw_line+0x74>
     390:	e1a02001 	mov	r2, r1
    	temp = x0;
		x0 = x1;
		x1 = temp;
		temp = y0;
		y0 = y1;
     394:	e1a01003 	mov	r1, r3
		y1 = temp;
     398:	e1a03002 	mov	r3, r2
		y0 = temp;
		temp = x1;
		x1 = y1;
		y1 = temp;
    }
    if (x0 > x1){
     39c:	e1a02000 	mov	r2, r0
    	temp = x0;
		x0 = x1;
     3a0:	e1a00008 	mov	r0, r8
		x1 = temp;
     3a4:	e1a08002 	mov	r8, r2
		temp = y0;
		y0 = y1;
		y1 = temp;
    }

    int deltax = x1 - x0;
     3a8:	e060b008 	rsb	r11, r0, r8
    int deltay = abs(y1 - y0);
     3ac:	e0617003 	rsb	r7, r1, r3
     3b0:	e3570000 	cmp	r7, #0
     3b4:	b2677000 	rsblt	r7, r7, #0
    int error = -(deltax / 2);
     3b8:	e08b4fab 	add	r4, r11, r11, lsr #31
     3bc:	e1a040c4 	asr	r4, r4, #1
     3c0:	e2644000 	rsb	r4, r4, #0
    int y = y0;
    int y_step = -1;
     3c4:	e1510003 	cmp	r1, r3
     3c8:	b3a03001 	movlt	r3, #1
     3cc:	a3e03000 	mvnge	r3, #0
     3d0:	e58d3004 	str	r3, [sp, #4]
    if (y0 < y1){
		y_step = 1;
    }
    int i;
    for (i = x0; i < x1; i++){
     3d4:	e1500008 	cmp	r0, r8
     3d8:	aa00000f 	bge	41c <draw_line+0xe8>
     3dc:	e1a05000 	mov	r5, r0
    }

    int deltax = x1 - x0;
    int deltay = abs(y1 - y0);
    int error = -(deltax / 2);
    int y = y0;
     3e0:	e1a06001 	mov	r6, r1
    if (y0 < y1){
		y_step = 1;
    }
    int i;
    for (i = x0; i < x1; i++){
        if (is_steep){
     3e4:	e35a0000 	cmp	r10, #0
            plot_pixel(y, i, line_colour);
     3e8:	11a00006 	movne	r0, r6
     3ec:	11a01005 	movne	r1, r5
        }
        else{
            plot_pixel(i, y, line_colour);
     3f0:	01a00005 	moveq	r0, r5
     3f4:	01a01006 	moveq	r1, r6
     3f8:	e1a02009 	mov	r2, r9
     3fc:	ebffffbc 	bl	2f4 <plot_pixel>
        }
        error = error + deltay;
        if (error >= 0){
     400:	e0944007 	adds	r4, r4, r7
            y = y + y_step;
     404:	559d3004 	ldrpl	r3, [sp, #4]
     408:	50866003 	addpl	r6, r6, r3
            error = error - deltax;
     40c:	506b4004 	rsbpl	r4, r11, r4
    int y_step = -1;
    if (y0 < y1){
		y_step = 1;
    }
    int i;
    for (i = x0; i < x1; i++){
     410:	e2855001 	add	r5, r5, #1
     414:	e1580005 	cmp	r8, r5
     418:	cafffff1 	bgt	3e4 <draw_line+0xb0>
        if (error >= 0){
            y = y + y_step;
            error = error - deltax;
        }
    }
}
     41c:	e28dd00c 	add	sp, sp, #12
     420:	e8bd8ff0 	pop	{r4, r5, r6, r7, r8, r9, r10, r11, pc}

00000424 <draw_circle>:
            plot_pixel(x, y, colour);
        }
    }
}

void draw_circle(int x, int y, int r, short int colour){
     424:	e92d4ff0 	push	{r4, r5, r6, r7, r8, r9, r10, r11, lr}
     428:	e24dd024 	sub	sp, sp, #36	; 0x24
     42c:	e1a09000 	mov	r9, r0
     430:	e1a0b001 	mov	r11, r1
     434:	e58d201c 	str	r2, [sp, #28]
     438:	e1a08003 	mov	r8, r3
    for(int deg=0; deg<360; deg++){
     43c:	e3a0a000 	mov	r10, #0
        draw_line(x, y, x + r*cos(deg), y + r*sin(deg), colour);
     440:	e59d001c 	ldr	r0, [sp, #28]
     444:	eb000e18 	bl	3cac <__aeabi_i2d>
     448:	e1cd00f8 	strd	r0, [sp, #8]
     44c:	e1a0000a 	mov	r0, r10
     450:	eb000e15 	bl	3cac <__aeabi_i2d>
     454:	e1a04000 	mov	r4, r0
     458:	e1a05001 	mov	r5, r1
     45c:	eb00044e 	bl	159c <cos>
     460:	e1a06000 	mov	r6, r0
     464:	e1a07001 	mov	r7, r1
     468:	e1a00004 	mov	r0, r4
     46c:	e1a01005 	mov	r1, r5
     470:	eb000486 	bl	1690 <sin>
     474:	e1cd01f0 	strd	r0, [sp, #16]
     478:	e1a00009 	mov	r0, r9
     47c:	eb000e0a 	bl	3cac <__aeabi_i2d>
     480:	e1a04000 	mov	r4, r0
     484:	e1a05001 	mov	r5, r1
     488:	e1cd00d8 	ldrd	r0, [sp, #8]
     48c:	e1a02006 	mov	r2, r6
     490:	e1a03007 	mov	r3, r7
     494:	eb000e3b 	bl	3d88 <__aeabi_dmul>
     498:	e1a02000 	mov	r2, r0
     49c:	e1a03001 	mov	r3, r1
     4a0:	e1a00004 	mov	r0, r4
     4a4:	e1a01005 	mov	r1, r5
     4a8:	eb000d32 	bl	3978 <__adddf3>
     4ac:	eb000fad 	bl	4368 <__aeabi_d2iz>
     4b0:	e1a06000 	mov	r6, r0
     4b4:	e1a0000b 	mov	r0, r11
     4b8:	eb000dfb 	bl	3cac <__aeabi_i2d>
     4bc:	e1a04000 	mov	r4, r0
     4c0:	e1a05001 	mov	r5, r1
     4c4:	e1cd00d8 	ldrd	r0, [sp, #8]
     4c8:	e1cd21d0 	ldrd	r2, [sp, #16]
     4cc:	eb000e2d 	bl	3d88 <__aeabi_dmul>
     4d0:	e1a02000 	mov	r2, r0
     4d4:	e1a03001 	mov	r3, r1
     4d8:	e1a00004 	mov	r0, r4
     4dc:	e1a01005 	mov	r1, r5
     4e0:	eb000d24 	bl	3978 <__adddf3>
     4e4:	eb000f9f 	bl	4368 <__aeabi_d2iz>
     4e8:	e1a03000 	mov	r3, r0
     4ec:	e58d8000 	str	r8, [sp]
     4f0:	e1a00009 	mov	r0, r9
     4f4:	e1a0100b 	mov	r1, r11
     4f8:	e1a02006 	mov	r2, r6
     4fc:	ebffff8c 	bl	334 <draw_line>
        }
    }
}

void draw_circle(int x, int y, int r, short int colour){
    for(int deg=0; deg<360; deg++){
     500:	e28aa001 	add	r10, r10, #1
     504:	e35a0f5a 	cmp	r10, #360	; 0x168
     508:	1affffcc 	bne	440 <draw_circle+0x1c>
        draw_line(x, y, x + r*cos(deg), y + r*sin(deg), colour);
    }
}
     50c:	e28dd024 	add	sp, sp, #36	; 0x24
     510:	e8bd8ff0 	pop	{r4, r5, r6, r7, r8, r9, r10, r11, pc}

00000514 <draw_frame>:
    draw_circle(x1, y1, radius-width, BLACK);
    draw_circle(x0+len, y0, radius, colour);//right
    draw_circle(x0+len, y0, radius-width, BLACK);
}

void draw_frame(int x0, int y0, int x1, int y1, short int colour){
     514:	e92d41f0 	push	{r4, r5, r6, r7, r8, lr}
     518:	e24dd008 	sub	sp, sp, #8
     51c:	e1a07000 	mov	r7, r0
     520:	e1a06001 	mov	r6, r1
     524:	e1a04002 	mov	r4, r2
     528:	e1a08003 	mov	r8, r3
     52c:	e1dd52f0 	ldrsh	r5, [sp, #32]
    draw_line(x0, y0, x0, y1, colour);//down
     530:	e58d5000 	str	r5, [sp]
     534:	e1a02000 	mov	r2, r0
     538:	ebffff7d 	bl	334 <draw_line>
    draw_line(x0, y1, x1, y1, colour);//right
     53c:	e58d5000 	str	r5, [sp]
     540:	e1a00007 	mov	r0, r7
     544:	e1a01008 	mov	r1, r8
     548:	e1a02004 	mov	r2, r4
     54c:	e1a03008 	mov	r3, r8
     550:	ebffff77 	bl	334 <draw_line>
    draw_line(x1, y1, x1, y0, colour);//up
     554:	e58d5000 	str	r5, [sp]
     558:	e1a00004 	mov	r0, r4
     55c:	e1a01008 	mov	r1, r8
     560:	e1a02004 	mov	r2, r4
     564:	e1a03006 	mov	r3, r6
     568:	ebffff71 	bl	334 <draw_line>
    draw_line(x1, y0, x0, y0, colour);//left
     56c:	e58d5000 	str	r5, [sp]
     570:	e1a00004 	mov	r0, r4
     574:	e1a01006 	mov	r1, r6
     578:	e1a02007 	mov	r2, r7
     57c:	e1a03006 	mov	r3, r6
     580:	ebffff6b 	bl	334 <draw_line>
}
     584:	e28dd008 	add	sp, sp, #8
     588:	e8bd81f0 	pop	{r4, r5, r6, r7, r8, pc}

0000058c <draw_switches>:
    for (int x = 0; x < 79; x++)
        for(int y = 0; y < 59; y++)
            write_char(x, y, '\0');
}

void draw_switches(int len, int x0, int y0, int x1, int y1, bool sw1, bool sw2, int colour){
     58c:	e92d45f0 	push	{r4, r5, r6, r7, r8, r10, lr}
     590:	e24dd00c 	sub	sp, sp, #12
     594:	e1a05000 	mov	r5, r0
     598:	e1a06001 	mov	r6, r1
     59c:	e1a04002 	mov	r4, r2
     5a0:	e1a0a003 	mov	r10, r3
     5a4:	e59d8028 	ldr	r8, [sp, #40]	; 0x28
     5a8:	e59d7034 	ldr	r7, [sp, #52]	; 0x34
    if(sw1){
     5ac:	e5dd302c 	ldrb	r3, [sp, #44]	; 0x2c
     5b0:	e3530000 	cmp	r3, #0
     5b4:	0a000007 	beq	5d8 <draw_switches+0x4c>
        draw_line(x0, y0, x0 + len, y0, colour);
     5b8:	e6bf3077 	sxth	r3, r7
     5bc:	e58d3000 	str	r3, [sp]
     5c0:	e1a00001 	mov	r0, r1
     5c4:	e1a01002 	mov	r1, r2
     5c8:	e0862005 	add	r2, r6, r5
     5cc:	e1a03004 	mov	r3, r4
     5d0:	ebffff57 	bl	334 <draw_line>
     5d4:	ea000010 	b	61c <draw_switches+0x90>
    }else{
        draw_line(x0, y0, (x0 + len)*4/5, y0 + len/3, colour);
     5d8:	e0813000 	add	r3, r1, r0
     5dc:	e1a03103 	lsl	r3, r3, #2
     5e0:	e3062667 	movw	r2, #26215	; 0x6667
     5e4:	e3462666 	movt	r2, #26214	; 0x6666
     5e8:	e0c21392 	smull	r1, r2, r2, r3
     5ec:	e1a0cfc3 	asr	r12, r3, #31
     5f0:	e3053556 	movw	r3, #21846	; 0x5556
     5f4:	e3453555 	movt	r3, #21845	; 0x5555
     5f8:	e0c31093 	smull	r1, r3, r3, r0
     5fc:	e0433fc0 	sub	r3, r3, r0, asr #31
     600:	e6bf1077 	sxth	r1, r7
     604:	e58d1000 	str	r1, [sp]
     608:	e1a00006 	mov	r0, r6
     60c:	e1a01004 	mov	r1, r4
     610:	e06c20c2 	rsb	r2, r12, r2, asr #1
     614:	e0833004 	add	r3, r3, r4
     618:	ebffff45 	bl	334 <draw_line>
    }

    if(sw2){
     61c:	e5dd3030 	ldrb	r3, [sp, #48]	; 0x30
     620:	e3530000 	cmp	r3, #0
     624:	0a000007 	beq	648 <draw_switches+0xbc>
        draw_line(x1, y1, x1 + len, y1, colour);
     628:	e6bf3077 	sxth	r3, r7
     62c:	e58d3000 	str	r3, [sp]
     630:	e1a0000a 	mov	r0, r10
     634:	e1a01008 	mov	r1, r8
     638:	e08a2005 	add	r2, r10, r5
     63c:	e1a03008 	mov	r3, r8
     640:	ebffff3b 	bl	334 <draw_line>
     644:	ea000010 	b	68c <draw_switches+0x100>
    }else{
        draw_line(x1, y1, (x1 + len)*4/5, y1 + len/3, colour);
     648:	e08a3005 	add	r3, r10, r5
     64c:	e1a03103 	lsl	r3, r3, #2
     650:	e3062667 	movw	r2, #26215	; 0x6667
     654:	e3462666 	movt	r2, #26214	; 0x6666
     658:	e0c21392 	smull	r1, r2, r2, r3
     65c:	e1a0cfc3 	asr	r12, r3, #31
     660:	e3053556 	movw	r3, #21846	; 0x5556
     664:	e3453555 	movt	r3, #21845	; 0x5555
     668:	e0c31593 	smull	r1, r3, r3, r5
     66c:	e0433fc5 	sub	r3, r3, r5, asr #31
     670:	e6bf1077 	sxth	r1, r7
     674:	e58d1000 	str	r1, [sp]
     678:	e1a0000a 	mov	r0, r10
     67c:	e1a01008 	mov	r1, r8
     680:	e06c20c2 	rsb	r2, r12, r2, asr #1
     684:	e0833008 	add	r3, r3, r8
     688:	ebffff29 	bl	334 <draw_line>
    }

    //circle bois 1
    int radius = 5;
    int width = 2;
    draw_circle(x0, y0, radius, colour);//left
     68c:	e6bf7077 	sxth	r7, r7
     690:	e1a00006 	mov	r0, r6
     694:	e1a01004 	mov	r1, r4
     698:	e3a02005 	mov	r2, #5
     69c:	e1a03007 	mov	r3, r7
     6a0:	ebffff5f 	bl	424 <draw_circle>
    draw_circle(x0, y0, radius-width, BLACK);
     6a4:	e1a00006 	mov	r0, r6
     6a8:	e1a01004 	mov	r1, r4
     6ac:	e3a02003 	mov	r2, #3
     6b0:	e3a03000 	mov	r3, #0
     6b4:	ebffff5a 	bl	424 <draw_circle>
    draw_circle(x0+len, y0, radius, colour);//right
     6b8:	e0865005 	add	r5, r6, r5
     6bc:	e1a00005 	mov	r0, r5
     6c0:	e1a01004 	mov	r1, r4
     6c4:	e3a02005 	mov	r2, #5
     6c8:	e1a03007 	mov	r3, r7
     6cc:	ebffff54 	bl	424 <draw_circle>
    draw_circle(x0+len, y0, radius-width, BLACK);
     6d0:	e1a00005 	mov	r0, r5
     6d4:	e1a01004 	mov	r1, r4
     6d8:	e3a02003 	mov	r2, #3
     6dc:	e3a03000 	mov	r3, #0
     6e0:	ebffff4f 	bl	424 <draw_circle>

    //circle bois 2
    draw_circle(x1, y1, radius, colour);//left
     6e4:	e1a0000a 	mov	r0, r10
     6e8:	e1a01008 	mov	r1, r8
     6ec:	e3a02005 	mov	r2, #5
     6f0:	e1a03007 	mov	r3, r7
     6f4:	ebffff4a 	bl	424 <draw_circle>
    draw_circle(x1, y1, radius-width, BLACK);
     6f8:	e1a0000a 	mov	r0, r10
     6fc:	e1a01008 	mov	r1, r8
     700:	e3a02003 	mov	r2, #3
     704:	e3a03000 	mov	r3, #0
     708:	ebffff45 	bl	424 <draw_circle>
    draw_circle(x0+len, y0, radius, colour);//right
     70c:	e1a00005 	mov	r0, r5
     710:	e1a01004 	mov	r1, r4
     714:	e3a02005 	mov	r2, #5
     718:	e1a03007 	mov	r3, r7
     71c:	ebffff40 	bl	424 <draw_circle>
    draw_circle(x0+len, y0, radius-width, BLACK);
     720:	e1a00005 	mov	r0, r5
     724:	e1a01004 	mov	r1, r4
     728:	e3a02003 	mov	r2, #3
     72c:	e3a03000 	mov	r3, #0
     730:	ebffff3b 	bl	424 <draw_circle>
}
     734:	e28dd00c 	add	sp, sp, #12
     738:	e8bd85f0 	pop	{r4, r5, r6, r7, r8, r10, pc}

0000073c <draw_graph>:
    }
    plot_pixel(5, 5, RED);
    return;
}

void draw_graph(int x, int y, int size, float values[size], short int colour){
     73c:	e92d4ff0 	push	{r4, r5, r6, r7, r8, r9, r10, r11, lr}
     740:	e24dd024 	sub	sp, sp, #36	; 0x24
     744:	e1a09000 	mov	r9, r0
     748:	e58d1010 	str	r1, [sp, #16]
     74c:	e1a0b002 	mov	r11, r2
     750:	e1a07003 	mov	r7, r3
     754:	e1dd44f8 	ldrsh	r4, [sp, #72]	; 0x48
    //bars of the graph
    draw_line(x, y + GRAPH_LEN, x, y - GRAPH_LEN, colour);//up-down
     758:	e2815032 	add	r5, r1, #50	; 0x32
     75c:	e2418032 	sub	r8, r1, #50	; 0x32
     760:	e58d4000 	str	r4, [sp]
     764:	e1a01005 	mov	r1, r5
     768:	e1a02000 	mov	r2, r0
     76c:	e1a03008 	mov	r3, r8
     770:	ebfffeef 	bl	334 <draw_line>
    draw_line(x, y, x + GRAPH_LEN, y, colour);//horizontal
     774:	e2896032 	add	r6, r9, #50	; 0x32
     778:	e58d4000 	str	r4, [sp]
     77c:	e1a00009 	mov	r0, r9
     780:	e59d1010 	ldr	r1, [sp, #16]
     784:	e1a02006 	mov	r2, r6
     788:	e1a03001 	mov	r3, r1
     78c:	ebfffee8 	bl	334 <draw_line>

    //arrows of the graph
    //top arrow
    draw_line(x, y - GRAPH_LEN, x-ARROW_LEN, y-GRAPH_LEN+ARROW_LEN, colour);
     790:	e2492002 	sub	r2, r9, #2
     794:	e58d2008 	str	r2, [sp, #8]
     798:	e59d3010 	ldr	r3, [sp, #16]
     79c:	e2433030 	sub	r3, r3, #48	; 0x30
     7a0:	e58d300c 	str	r3, [sp, #12]
     7a4:	e58d4000 	str	r4, [sp]
     7a8:	e1a00009 	mov	r0, r9
     7ac:	e1a01008 	mov	r1, r8
     7b0:	ebfffedf 	bl	334 <draw_line>
    draw_line(x, y - GRAPH_LEN, x+ARROW_LEN, y-GRAPH_LEN+ARROW_LEN, colour);
     7b4:	e289a002 	add	r10, r9, #2
     7b8:	e58d4000 	str	r4, [sp]
     7bc:	e1a00009 	mov	r0, r9
     7c0:	e1a01008 	mov	r1, r8
     7c4:	e1a0200a 	mov	r2, r10
     7c8:	e59d300c 	ldr	r3, [sp, #12]
     7cc:	ebfffed8 	bl	334 <draw_line>
    //right arrow
    draw_line(x + GRAPH_LEN, y, x+GRAPH_LEN-ARROW_LEN, y-ARROW_LEN, colour);
     7d0:	e2898030 	add	r8, r9, #48	; 0x30
     7d4:	e58d4000 	str	r4, [sp]
     7d8:	e1a00006 	mov	r0, r6
     7dc:	e59d1010 	ldr	r1, [sp, #16]
     7e0:	e1a02008 	mov	r2, r8
     7e4:	e2413002 	sub	r3, r1, #2
     7e8:	ebfffed1 	bl	334 <draw_line>
    draw_line(x + GRAPH_LEN, y, x+GRAPH_LEN-ARROW_LEN, y+ARROW_LEN, colour);
     7ec:	e58d4000 	str	r4, [sp]
     7f0:	e1a00006 	mov	r0, r6
     7f4:	e59d1010 	ldr	r1, [sp, #16]
     7f8:	e1a02008 	mov	r2, r8
     7fc:	e2813002 	add	r3, r1, #2
     800:	ebfffecb 	bl	334 <draw_line>
    //bottom arrow
    draw_line(x, y + GRAPH_LEN, x-ARROW_LEN, y+GRAPH_LEN-ARROW_LEN, colour);
     804:	e59dc010 	ldr	r12, [sp, #16]
     808:	e28c6030 	add	r6, r12, #48	; 0x30
     80c:	e58d4000 	str	r4, [sp]
     810:	e1a00009 	mov	r0, r9
     814:	e1a01005 	mov	r1, r5
     818:	e59d2008 	ldr	r2, [sp, #8]
     81c:	e1a03006 	mov	r3, r6
     820:	ebfffec3 	bl	334 <draw_line>
    draw_line(x, y + GRAPH_LEN, x+ARROW_LEN, y+GRAPH_LEN-ARROW_LEN, colour);
     824:	e58d4000 	str	r4, [sp]
     828:	e1a00009 	mov	r0, r9
     82c:	e1a01005 	mov	r1, r5
     830:	e1a0200a 	mov	r2, r10
     834:	e1a03006 	mov	r3, r6
     838:	ebfffebd 	bl	334 <draw_line>

    float max = 0.000001;
    //find the max in the array
    for(int i = 0; i < size-1; i++){
     83c:	e24b3001 	sub	r3, r11, #1
     840:	e3530000 	cmp	r3, #0
     844:	da000013 	ble	898 <draw_graph+0x15c>
    }
    plot_pixel(5, 5, RED);
    return;
}

void draw_graph(int x, int y, int size, float values[size], short int colour){
     848:	e1a0a103 	lsl	r10, r3, #2
     84c:	e3a04000 	mov	r4, #0
    draw_line(x + GRAPH_LEN, y, x+GRAPH_LEN-ARROW_LEN, y+ARROW_LEN, colour);
    //bottom arrow
    draw_line(x, y + GRAPH_LEN, x-ARROW_LEN, y+GRAPH_LEN-ARROW_LEN, colour);
    draw_line(x, y + GRAPH_LEN, x+ARROW_LEN, y+GRAPH_LEN-ARROW_LEN, colour);

    float max = 0.000001;
     850:	e30357bd 	movw	r5, #14269	; 0x37bd
     854:	e3435586 	movt	r5, #13702	; 0x3586
    //find the max in the array
    for(int i = 0; i < size-1; i++){
        float check = values[i];
        if(check < 0) check = -check;
     858:	e3a08000 	mov	r8, #0
    draw_line(x, y + GRAPH_LEN, x+ARROW_LEN, y+GRAPH_LEN-ARROW_LEN, colour);

    float max = 0.000001;
    //find the max in the array
    for(int i = 0; i < size-1; i++){
        float check = values[i];
     85c:	e7976004 	ldr	r6, [r7, r4]
        if(check < 0) check = -check;
     860:	e1a00006 	mov	r0, r6
     864:	e1a01008 	mov	r1, r8
     868:	eb001093 	bl	4abc <__aeabi_fcmplt>
     86c:	e3500000 	cmp	r0, #0
     870:	12866102 	addne	r6, r6, #-2147483648	; 0x80000000
        if(max < check) max = check;
     874:	e1a00006 	mov	r0, r6
     878:	e1a01005 	mov	r1, r5
     87c:	eb0010a0 	bl	4b04 <__aeabi_fcmpgt>
     880:	e3500000 	cmp	r0, #0
     884:	11a05006 	movne	r5, r6
     888:	e2844004 	add	r4, r4, #4
    draw_line(x, y + GRAPH_LEN, x-ARROW_LEN, y+GRAPH_LEN-ARROW_LEN, colour);
    draw_line(x, y + GRAPH_LEN, x+ARROW_LEN, y+GRAPH_LEN-ARROW_LEN, colour);

    float max = 0.000001;
    //find the max in the array
    for(int i = 0; i < size-1; i++){
     88c:	e154000a 	cmp	r4, r10
     890:	1afffff1 	bne	85c <draw_graph+0x120>
     894:	ea000001 	b	8a0 <draw_graph+0x164>
    draw_line(x + GRAPH_LEN, y, x+GRAPH_LEN-ARROW_LEN, y+ARROW_LEN, colour);
    //bottom arrow
    draw_line(x, y + GRAPH_LEN, x-ARROW_LEN, y+GRAPH_LEN-ARROW_LEN, colour);
    draw_line(x, y + GRAPH_LEN, x+ARROW_LEN, y+GRAPH_LEN-ARROW_LEN, colour);

    float max = 0.000001;
     898:	e30357bd 	movw	r5, #14269	; 0x37bd
     89c:	e3435586 	movt	r5, #13702	; 0x3586
        if(check < 0) check = -check;
        if(max < check) max = check;
    }

    //graph the values
    for(int i = 0; i < size-2; i++){
     8a0:	e24b2002 	sub	r2, r11, #2
     8a4:	e58d2018 	str	r2, [sp, #24]
     8a8:	e3520000 	cmp	r2, #0
     8ac:	da000034 	ble	984 <draw_graph+0x248>
    }
    plot_pixel(5, 5, RED);
    return;
}

void draw_graph(int x, int y, int size, float values[size], short int colour){
     8b0:	e2477004 	sub	r7, r7, #4
     8b4:	e3a04000 	mov	r4, #0
     8b8:	e1a06004 	mov	r6, r4
        if(max < check) max = check;
    }

    //graph the values
    for(int i = 0; i < size-2; i++){
        draw_line((int)(x+i*(GRAPH_LEN-ARROW_LEN)/size), (int)(y-(GRAPH_LEN-ARROW_LEN)*(values[i]/max)),
     8bc:	e3a0a000 	mov	r10, #0
     8c0:	e344a240 	movt	r10, #16960	; 0x4240
     8c4:	e3a03b3e 	mov	r3, #63488	; 0xf800
     8c8:	e34f3fff 	movt	r3, #65535	; 0xffff
     8cc:	e58d301c 	str	r3, [sp, #28]
     8d0:	e1a08005 	mov	r8, r5
     8d4:	e1a00004 	mov	r0, r4
     8d8:	e1a0100b 	mov	r1, r11
     8dc:	eb000bcf 	bl	3820 <__aeabi_idiv>
     8e0:	e0800009 	add	r0, r0, r9
     8e4:	e58d0008 	str	r0, [sp, #8]
     8e8:	e59d0010 	ldr	r0, [sp, #16]
     8ec:	eb000f50 	bl	4634 <__aeabi_i2f>
     8f0:	e1a05000 	mov	r5, r0
                (int)(x+(i+1)*(GRAPH_LEN-ARROW_LEN)/size), (int)(y-(GRAPH_LEN-ARROW_LEN)*(values[i+1]/max)), RED);
     8f4:	e2866001 	add	r6, r6, #1
    }
    plot_pixel(5, 5, RED);
    return;
}

void draw_graph(int x, int y, int size, float values[size], short int colour){
     8f8:	e2844030 	add	r4, r4, #48	; 0x30
        if(max < check) max = check;
    }

    //graph the values
    for(int i = 0; i < size-2; i++){
        draw_line((int)(x+i*(GRAPH_LEN-ARROW_LEN)/size), (int)(y-(GRAPH_LEN-ARROW_LEN)*(values[i]/max)),
     8fc:	e5b70004 	ldr	r0, [r7, #4]!
     900:	e1a01008 	mov	r1, r8
     904:	eb000fe7 	bl	48a8 <__aeabi_fdiv>
     908:	e1a0100a 	mov	r1, r10
     90c:	eb000f7f 	bl	4710 <__aeabi_fmul>
     910:	e1a01000 	mov	r1, r0
     914:	e1a00005 	mov	r0, r5
     918:	eb000ed3 	bl	446c <__aeabi_fsub>
     91c:	eb00107e 	bl	4b1c <__aeabi_f2iz>
     920:	e58d000c 	str	r0, [sp, #12]
                (int)(x+(i+1)*(GRAPH_LEN-ARROW_LEN)/size), (int)(y-(GRAPH_LEN-ARROW_LEN)*(values[i+1]/max)), RED);
     924:	e1a00004 	mov	r0, r4
     928:	e1a0100b 	mov	r1, r11
     92c:	eb000bbb 	bl	3820 <__aeabi_idiv>
        if(max < check) max = check;
    }

    //graph the values
    for(int i = 0; i < size-2; i++){
        draw_line((int)(x+i*(GRAPH_LEN-ARROW_LEN)/size), (int)(y-(GRAPH_LEN-ARROW_LEN)*(values[i]/max)),
     930:	e0800009 	add	r0, r0, r9
     934:	e58d0014 	str	r0, [sp, #20]
                (int)(x+(i+1)*(GRAPH_LEN-ARROW_LEN)/size), (int)(y-(GRAPH_LEN-ARROW_LEN)*(values[i+1]/max)), RED);
     938:	e5970004 	ldr	r0, [r7, #4]
     93c:	e1a01008 	mov	r1, r8
     940:	eb000fd8 	bl	48a8 <__aeabi_fdiv>
     944:	e1a0100a 	mov	r1, r10
     948:	eb000f70 	bl	4710 <__aeabi_fmul>
     94c:	e1a01000 	mov	r1, r0
     950:	e1a00005 	mov	r0, r5
     954:	eb000ec4 	bl	446c <__aeabi_fsub>
        if(max < check) max = check;
    }

    //graph the values
    for(int i = 0; i < size-2; i++){
        draw_line((int)(x+i*(GRAPH_LEN-ARROW_LEN)/size), (int)(y-(GRAPH_LEN-ARROW_LEN)*(values[i]/max)),
     958:	eb00106f 	bl	4b1c <__aeabi_f2iz>
     95c:	e1a03000 	mov	r3, r0
     960:	e59dc01c 	ldr	r12, [sp, #28]
     964:	e58dc000 	str	r12, [sp]
     968:	e59d0008 	ldr	r0, [sp, #8]
     96c:	e59d100c 	ldr	r1, [sp, #12]
     970:	e59d2014 	ldr	r2, [sp, #20]
     974:	ebfffe6e 	bl	334 <draw_line>
        if(check < 0) check = -check;
        if(max < check) max = check;
    }

    //graph the values
    for(int i = 0; i < size-2; i++){
     978:	e59d2018 	ldr	r2, [sp, #24]
     97c:	e1560002 	cmp	r6, r2
     980:	1affffd3 	bne	8d4 <draw_graph+0x198>
        draw_line((int)(x+i*(GRAPH_LEN-ARROW_LEN)/size), (int)(y-(GRAPH_LEN-ARROW_LEN)*(values[i]/max)),
                (int)(x+(i+1)*(GRAPH_LEN-ARROW_LEN)/size), (int)(y-(GRAPH_LEN-ARROW_LEN)*(values[i+1]/max)), RED);
    }
}
     984:	e28dd024 	add	sp, sp, #36	; 0x24
     988:	e8bd8ff0 	pop	{r4, r5, r6, r7, r8, r9, r10, r11, pc}

0000098c <draw_rect>:
    draw_line(x0, y1, x1, y1, colour);//right
    draw_line(x1, y1, x1, y0, colour);//up
    draw_line(x1, y0, x0, y0, colour);//left
}

void draw_rect(int x0, int y0, int x1, int y1, short int colour){
     98c:	e92d45f8 	push	{r3, r4, r5, r6, r7, r8, r10, lr}
     990:	e1a08001 	mov	r8, r1
     994:	e1a0a002 	mov	r10, r2
     998:	e1a06003 	mov	r6, r3
     99c:	e1dd72f0 	ldrsh	r7, [sp, #32]
    for(int x = x0; x<=x1; x++){
     9a0:	e1500002 	cmp	r0, r2
     9a4:	c8bd85f8 	popgt	{r3, r4, r5, r6, r7, r8, r10, pc}
     9a8:	ea00000a 	b	9d8 <draw_rect+0x4c>
        for (int y = y0; y<=y1; y++) {
            plot_pixel(x, y, colour);
     9ac:	e1a00005 	mov	r0, r5
     9b0:	e1a01004 	mov	r1, r4
     9b4:	e1a02007 	mov	r2, r7
     9b8:	ebfffe4d 	bl	2f4 <plot_pixel>
    draw_line(x1, y0, x0, y0, colour);//left
}

void draw_rect(int x0, int y0, int x1, int y1, short int colour){
    for(int x = x0; x<=x1; x++){
        for (int y = y0; y<=y1; y++) {
     9bc:	e2844001 	add	r4, r4, #1
     9c0:	e1560004 	cmp	r6, r4
     9c4:	aafffff8 	bge	9ac <draw_rect+0x20>
    draw_line(x1, y1, x1, y0, colour);//up
    draw_line(x1, y0, x0, y0, colour);//left
}

void draw_rect(int x0, int y0, int x1, int y1, short int colour){
    for(int x = x0; x<=x1; x++){
     9c8:	e2855001 	add	r5, r5, #1
     9cc:	e15a0005 	cmp	r10, r5
     9d0:	aa000001 	bge	9dc <draw_rect+0x50>
     9d4:	e8bd85f8 	pop	{r3, r4, r5, r6, r7, r8, r10, pc}
     9d8:	e1a05000 	mov	r5, r0
        for (int y = y0; y<=y1; y++) {
     9dc:	e1580006 	cmp	r8, r6
     9e0:	d1a04008 	movle	r4, r8
     9e4:	dafffff0 	ble	9ac <draw_rect+0x20>
     9e8:	eafffff6 	b	9c8 <draw_rect+0x3c>

000009ec <draw_circuit>:
        wait_for_vsync(); // swap front and back buffers on VGA vertical sync
        pixel_buffer_start = *(pixel_ctrl_ptr + 1); // new back buffer
    }
}

void draw_circuit(int x, int y, short int colour, bool sw1, bool sw2){
     9ec:	e92d4ff0 	push	{r4, r5, r6, r7, r8, r9, r10, r11, lr}
     9f0:	e24dd024 	sub	sp, sp, #36	; 0x24
     9f4:	e1a06000 	mov	r6, r0
     9f8:	e1a05001 	mov	r5, r1
     9fc:	e58d3018 	str	r3, [sp, #24]

    int width = 5;
    int ctr = 80;
    //source
    int radius = 30;
    draw_circle(x, y, radius, WHITE);
     a00:	e3a0201e 	mov	r2, #30
     a04:	e3e03000 	mvn	r3, #0
     a08:	ebfffe85 	bl	424 <draw_circle>
    draw_circle(x, y, radius-width, BLACK);
     a0c:	e1a00006 	mov	r0, r6
     a10:	e1a01005 	mov	r1, r5
     a14:	e3a02019 	mov	r2, #25
     a18:	e3a03000 	mov	r3, #0
     a1c:	ebfffe80 	bl	424 <draw_circle>
    //plus
    draw_rect(x-3, y-20, x+3, y, RED);
     a20:	e3a04b3e 	mov	r4, #63488	; 0xf800
     a24:	e34f4fff 	movt	r4, #65535	; 0xffff
     a28:	e58d4000 	str	r4, [sp]
     a2c:	e2460003 	sub	r0, r6, #3
     a30:	e2451014 	sub	r1, r5, #20
     a34:	e2862003 	add	r2, r6, #3
     a38:	e1a03005 	mov	r3, r5
     a3c:	ebffffd2 	bl	98c <draw_rect>
    draw_rect(x-14, y-13, x+14, y-7, RED);
     a40:	e246800e 	sub	r8, r6, #14
     a44:	e286700e 	add	r7, r6, #14
     a48:	e58d4000 	str	r4, [sp]
     a4c:	e1a00008 	mov	r0, r8
     a50:	e245100d 	sub	r1, r5, #13
     a54:	e1a02007 	mov	r2, r7
     a58:	e2453007 	sub	r3, r5, #7
     a5c:	ebffffca 	bl	98c <draw_rect>
    //minus
    draw_rect(x-14, y+10, x+14, y+16, BLUE);
     a60:	e285400a 	add	r4, r5, #10
     a64:	e3a0301f 	mov	r3, #31
     a68:	e58d3000 	str	r3, [sp]
     a6c:	e1a00008 	mov	r0, r8
     a70:	e1a01004 	mov	r1, r4
     a74:	e1a02007 	mov	r2, r7
     a78:	e2853010 	add	r3, r5, #16
     a7c:	ebffffc2 	bl	98c <draw_rect>

    //capacitor
    int cap_x = (x+ctr -5*width);
     a80:	e2868037 	add	r8, r6, #55	; 0x37
    draw_rect(cap_x, y-2*width, cap_x + 10*width, y-width, WHITE);
     a84:	e2867069 	add	r7, r6, #105	; 0x69
     a88:	e3e0a000 	mvn	r10, #0
     a8c:	e58da000 	str	r10, [sp]
     a90:	e1a00008 	mov	r0, r8
     a94:	e245100a 	sub	r1, r5, #10
     a98:	e1a02007 	mov	r2, r7
     a9c:	e2453005 	sub	r3, r5, #5
     aa0:	ebffffb9 	bl	98c <draw_rect>
    draw_rect(cap_x, y+width, cap_x + 10*width, y+2*width, WHITE);
     aa4:	e58da000 	str	r10, [sp]
     aa8:	e1a00008 	mov	r0, r8
     aac:	e2851005 	add	r1, r5, #5
     ab0:	e1a02007 	mov	r2, r7
     ab4:	e1a03004 	mov	r3, r4
     ab8:	ebffffb3 	bl	98c <draw_rect>

    //resistor
    int diag_x = 15;
    int diag_y = 10;
    int res_x = (x+2*ctr);
     abc:	e28630a0 	add	r3, r6, #160	; 0xa0
    int res_y = y-diag_x;//resistor goes down 40 pixels from here
     ac0:	e245400f 	sub	r4, r5, #15
        wait_for_vsync(); // swap front and back buffers on VGA vertical sync
        pixel_buffer_start = *(pixel_ctrl_ptr + 1); // new back buffer
    }
}

void draw_circuit(int x, int y, short int colour, bool sw1, bool sw2){
     ac4:	e245900c 	sub	r9, r5, #12
    int diag_y = 10;
    int res_x = (x+2*ctr);
    int res_y = y-diag_x;//resistor goes down 40 pixels from here

    for(int dec = 0; dec<5; dec++){//make the resistor lines thicker
        draw_line(res_x, res_y, res_x-diag_x, res_y+diag_y, WHITE);//from the line out: x- y+
     ac8:	e286a091 	add	r10, r6, #145	; 0x91
     acc:	e3e07000 	mvn	r7, #0
        draw_line(res_x-diag_x, res_y+diag_y, res_x+diag_x, res_y+2*diag_y, WHITE);//x+ y+
     ad0:	e28680af 	add	r8, r6, #175	; 0xaf
     ad4:	e1a0b003 	mov	r11, r3
     ad8:	e58d6014 	str	r6, [sp, #20]
     adc:	e58d501c 	str	r5, [sp, #28]
     ae0:	e1a05009 	mov	r5, r9
        wait_for_vsync(); // swap front and back buffers on VGA vertical sync
        pixel_buffer_start = *(pixel_ctrl_ptr + 1); // new back buffer
    }
}

void draw_circuit(int x, int y, short int colour, bool sw1, bool sw2){
     ae4:	e284900a 	add	r9, r4, #10
    int diag_y = 10;
    int res_x = (x+2*ctr);
    int res_y = y-diag_x;//resistor goes down 40 pixels from here

    for(int dec = 0; dec<5; dec++){//make the resistor lines thicker
        draw_line(res_x, res_y, res_x-diag_x, res_y+diag_y, WHITE);//from the line out: x- y+
     ae8:	e58d7000 	str	r7, [sp]
     aec:	e1a0000b 	mov	r0, r11
     af0:	e1a01004 	mov	r1, r4
     af4:	e1a0200a 	mov	r2, r10
     af8:	e1a03009 	mov	r3, r9
     afc:	ebfffe0c 	bl	334 <draw_line>
        wait_for_vsync(); // swap front and back buffers on VGA vertical sync
        pixel_buffer_start = *(pixel_ctrl_ptr + 1); // new back buffer
    }
}

void draw_circuit(int x, int y, short int colour, bool sw1, bool sw2){
     b00:	e2846014 	add	r6, r4, #20
    int res_x = (x+2*ctr);
    int res_y = y-diag_x;//resistor goes down 40 pixels from here

    for(int dec = 0; dec<5; dec++){//make the resistor lines thicker
        draw_line(res_x, res_y, res_x-diag_x, res_y+diag_y, WHITE);//from the line out: x- y+
        draw_line(res_x-diag_x, res_y+diag_y, res_x+diag_x, res_y+2*diag_y, WHITE);//x+ y+
     b04:	e58d7000 	str	r7, [sp]
     b08:	e1a0000a 	mov	r0, r10
     b0c:	e1a01009 	mov	r1, r9
     b10:	e1a02008 	mov	r2, r8
     b14:	e1a03006 	mov	r3, r6
     b18:	ebfffe05 	bl	334 <draw_line>
        wait_for_vsync(); // swap front and back buffers on VGA vertical sync
        pixel_buffer_start = *(pixel_ctrl_ptr + 1); // new back buffer
    }
}

void draw_circuit(int x, int y, short int colour, bool sw1, bool sw2){
     b1c:	e284901e 	add	r9, r4, #30
    int res_y = y-diag_x;//resistor goes down 40 pixels from here

    for(int dec = 0; dec<5; dec++){//make the resistor lines thicker
        draw_line(res_x, res_y, res_x-diag_x, res_y+diag_y, WHITE);//from the line out: x- y+
        draw_line(res_x-diag_x, res_y+diag_y, res_x+diag_x, res_y+2*diag_y, WHITE);//x+ y+
        draw_line(res_x+diag_x, res_y+2*diag_y, res_x-diag_x, res_y+3*diag_y, WHITE);//x- y+
     b20:	e58d7000 	str	r7, [sp]
     b24:	e1a00008 	mov	r0, r8
     b28:	e1a01006 	mov	r1, r6
     b2c:	e1a0200a 	mov	r2, r10
     b30:	e1a03009 	mov	r3, r9
     b34:	ebfffdfe 	bl	334 <draw_line>
        wait_for_vsync(); // swap front and back buffers on VGA vertical sync
        pixel_buffer_start = *(pixel_ctrl_ptr + 1); // new back buffer
    }
}

void draw_circuit(int x, int y, short int colour, bool sw1, bool sw2){
     b38:	e2846028 	add	r6, r4, #40	; 0x28

    for(int dec = 0; dec<5; dec++){//make the resistor lines thicker
        draw_line(res_x, res_y, res_x-diag_x, res_y+diag_y, WHITE);//from the line out: x- y+
        draw_line(res_x-diag_x, res_y+diag_y, res_x+diag_x, res_y+2*diag_y, WHITE);//x+ y+
        draw_line(res_x+diag_x, res_y+2*diag_y, res_x-diag_x, res_y+3*diag_y, WHITE);//x- y+
        draw_line(res_x-diag_x, res_y+3*diag_y, res_x+diag_x, res_y+4*diag_y, WHITE);//x+ y+
     b3c:	e58d7000 	str	r7, [sp]
     b40:	e1a0000a 	mov	r0, r10
     b44:	e1a01009 	mov	r1, r9
     b48:	e1a02008 	mov	r2, r8
     b4c:	e1a03006 	mov	r3, r6
     b50:	ebfffdf7 	bl	334 <draw_line>
        draw_line(res_x+diag_x, res_y+4*diag_y, res_x, res_y+5*diag_y, WHITE);//back into the line: x- y+
     b54:	e58d7000 	str	r7, [sp]
     b58:	e1a00008 	mov	r0, r8
     b5c:	e1a01006 	mov	r1, r6
     b60:	e1a0200b 	mov	r2, r11
     b64:	e2843032 	add	r3, r4, #50	; 0x32
     b68:	ebfffdf1 	bl	334 <draw_line>
        dec++;
        res_y++;
     b6c:	e2844001 	add	r4, r4, #1
    int diag_x = 15;
    int diag_y = 10;
    int res_x = (x+2*ctr);
    int res_y = y-diag_x;//resistor goes down 40 pixels from here

    for(int dec = 0; dec<5; dec++){//make the resistor lines thicker
     b70:	e1540005 	cmp	r4, r5
     b74:	1affffda 	bne	ae4 <draw_circuit+0xf8>
     b78:	e59d6014 	ldr	r6, [sp, #20]
     b7c:	e59d501c 	ldr	r5, [sp, #28]
        draw_line(res_x+diag_x, res_y+4*diag_y, res_x, res_y+5*diag_y, WHITE);//back into the line: x- y+
        dec++;
        res_y++;
    }
    //switches
    draw_switches(30, x + 10, y-ctr, x + 10 + ctr, y - ctr, sw1, sw2, WHITE);
     b80:	e286705a 	add	r7, r6, #90	; 0x5a
     b84:	e2452050 	sub	r2, r5, #80	; 0x50
     b88:	e58d2000 	str	r2, [sp]
     b8c:	e59d3018 	ldr	r3, [sp, #24]
     b90:	e58d3004 	str	r3, [sp, #4]
     b94:	e5dd3048 	ldrb	r3, [sp, #72]	; 0x48
     b98:	e58d3008 	str	r3, [sp, #8]
     b9c:	e30f3fff 	movw	r3, #65535	; 0xffff
     ba0:	e58d300c 	str	r3, [sp, #12]
     ba4:	e3a0001e 	mov	r0, #30
     ba8:	e286100a 	add	r1, r6, #10
     bac:	e1a03007 	mov	r3, r7
     bb0:	ebfffe75 	bl	58c <draw_switches>

    //ground
    int gnd_ctr = x + ctr;
    int gnd_y = y+ctr-20;
    draw_rect(gnd_ctr-width/2, gnd_y, gnd_ctr+width/2, gnd_y+2*width, WHITE);//stem
     bb4:	e2858046 	add	r8, r5, #70	; 0x46
     bb8:	e3e04000 	mvn	r4, #0
     bbc:	e58d4000 	str	r4, [sp]
     bc0:	e286004e 	add	r0, r6, #78	; 0x4e
     bc4:	e285103c 	add	r1, r5, #60	; 0x3c
     bc8:	e2862052 	add	r2, r6, #82	; 0x52
     bcc:	e1a03008 	mov	r3, r8
     bd0:	ebffff6d 	bl	98c <draw_rect>
    draw_rect(gnd_ctr-4*width, gnd_y+2*width, gnd_ctr+4*width, gnd_y+3*width, WHITE);//1st layer
     bd4:	e58d4000 	str	r4, [sp]
     bd8:	e286003c 	add	r0, r6, #60	; 0x3c
     bdc:	e1a01008 	mov	r1, r8
     be0:	e2862064 	add	r2, r6, #100	; 0x64
     be4:	e285304b 	add	r3, r5, #75	; 0x4b
     be8:	ebffff67 	bl	98c <draw_rect>
    draw_rect(gnd_ctr-2*width, gnd_y+4*width, gnd_ctr+2*width, gnd_y+5*width, WHITE);//2nd
     bec:	e58d4000 	str	r4, [sp]
     bf0:	e2860046 	add	r0, r6, #70	; 0x46
     bf4:	e2851050 	add	r1, r5, #80	; 0x50
     bf8:	e1a02007 	mov	r2, r7
     bfc:	e2853055 	add	r3, r5, #85	; 0x55
     c00:	ebffff61 	bl	98c <draw_rect>
    draw_rect(gnd_ctr-width, gnd_y+6*width, gnd_ctr+width, gnd_y+7*width, WHITE);//3rd
     c04:	e58d4000 	str	r4, [sp]
     c08:	e286004b 	add	r0, r6, #75	; 0x4b
     c0c:	e285105a 	add	r1, r5, #90	; 0x5a
     c10:	e2862055 	add	r2, r6, #85	; 0x55
     c14:	e285305f 	add	r3, r5, #95	; 0x5f
     c18:	ebffff5b 	bl	98c <draw_rect>

    //wires

    //text add-ons
}
     c1c:	e28dd024 	add	sp, sp, #36	; 0x24
     c20:	e8bd8ff0 	pop	{r4, r5, r6, r7, r8, r9, r10, r11, pc}

00000c24 <clear_screen>:

void clear_screen(){
     c24:	e92d4070 	push	{r4, r5, r6, lr}
    short int line_colour = BLACK;
    for (int x = 0; x < X_DIM; x++ ){
     c28:	e3a05000 	mov	r5, #0
    //wires

    //text add-ons
}

void clear_screen(){
     c2c:	e1a06005 	mov	r6, r5
     c30:	ea000009 	b	c5c <clear_screen+0x38>
    short int line_colour = BLACK;
    for (int x = 0; x < X_DIM; x++ ){
    	for (int y = 0; y < Y_DIM ; y++ ){
        	plot_pixel(x, y, line_colour);
     c34:	e1a00005 	mov	r0, r5
     c38:	e1a01004 	mov	r1, r4
     c3c:	e1a02006 	mov	r2, r6
     c40:	ebfffdab 	bl	2f4 <plot_pixel>
}

void clear_screen(){
    short int line_colour = BLACK;
    for (int x = 0; x < X_DIM; x++ ){
    	for (int y = 0; y < Y_DIM ; y++ ){
     c44:	e2844001 	add	r4, r4, #1
     c48:	e35400f0 	cmp	r4, #240	; 0xf0
     c4c:	1afffff8 	bne	c34 <clear_screen+0x10>
    //text add-ons
}

void clear_screen(){
    short int line_colour = BLACK;
    for (int x = 0; x < X_DIM; x++ ){
     c50:	e2855001 	add	r5, r5, #1
     c54:	e3550d05 	cmp	r5, #320	; 0x140
     c58:	0a000001 	beq	c64 <clear_screen+0x40>
    //wires

    //text add-ons
}

void clear_screen(){
     c5c:	e1a04006 	mov	r4, r6
     c60:	eafffff3 	b	c34 <clear_screen+0x10>
    for (int x = 0; x < X_DIM; x++ ){
    	for (int y = 0; y < Y_DIM ; y++ ){
        	plot_pixel(x, y, line_colour);
        }
    }
    plot_pixel(5, 5, RED);
     c64:	e3a00005 	mov	r0, #5
     c68:	e1a01000 	mov	r1, r0
     c6c:	e3a02b3e 	mov	r2, #63488	; 0xf800
     c70:	e34f2fff 	movt	r2, #65535	; 0xffff
     c74:	ebfffd9e 	bl	2f4 <plot_pixel>
     c78:	e8bd8070 	pop	{r4, r5, r6, pc}

00000c7c <swap>:
    if(x<X_DIM && x>=0 && y<Y_DIM && y>=0)
        *(short int *)(pixel_buffer_start + (y << 10) + (x << 1)) = line_color;
}

void swap (int* x, int* y){
    int temp = *x;
     c7c:	e5903000 	ldr	r3, [r0]
    *x = *y;
     c80:	e5912000 	ldr	r2, [r1]
     c84:	e5802000 	str	r2, [r0]
    *y = temp;
     c88:	e5813000 	str	r3, [r1]
     c8c:	e12fff1e 	bx	lr

00000c90 <wait_for_vsync>:
}

void wait_for_vsync(){
    volatile int * pixel_ctrl_ptr = (int *)PIXEL_BUFF_REG;
    register int status;
    *pixel_ctrl_ptr = 1;    //start synchronization
     c90:	e3033fff 	movw	r3, #16383	; 0x3fff
     c94:	e34f3f20 	movt	r3, #65312	; 0xff20
     c98:	e3a02001 	mov	r2, #1
     c9c:	e5032fdf 	str	r2, [r3, #-4063]	; 0xfffff021
    status = *(pixel_ctrl_ptr + 3); //read s vlaue
     ca0:	e5133fd3 	ldr	r3, [r3, #-4051]	; 0xfffff02d
    while ((status & 0x01) != 0){
     ca4:	e3130001 	tst	r3, #1
     ca8:	012fff1e 	bxeq	lr
       status = *(pixel_ctrl_ptr + 3); //read s vlaue
     cac:	e3032fff 	movw	r2, #16383	; 0x3fff
     cb0:	e34f2f20 	movt	r2, #65312	; 0xff20
     cb4:	e5123fd3 	ldr	r3, [r2, #-4051]	; 0xfffff02d
void wait_for_vsync(){
    volatile int * pixel_ctrl_ptr = (int *)PIXEL_BUFF_REG;
    register int status;
    *pixel_ctrl_ptr = 1;    //start synchronization
    status = *(pixel_ctrl_ptr + 3); //read s vlaue
    while ((status & 0x01) != 0){
     cb8:	e3130001 	tst	r3, #1
     cbc:	1afffffc 	bne	cb4 <wait_for_vsync+0x24>
     cc0:	e12fff1e 	bx	lr

00000cc4 <clear_line>:
       status = *(pixel_ctrl_ptr + 3); //read s vlaue
    }
}

void clear_line(int xi, int xf, int y){
     cc4:	e92d4070 	push	{r4, r5, r6, lr}
     cc8:	e24dd008 	sub	sp, sp, #8
     ccc:	e58d0004 	str	r0, [sp, #4]
     cd0:	e58d1000 	str	r1, [sp]
     cd4:	e1a05002 	mov	r5, r2
    //clears horizontal line
    if (xi > xf){
     cd8:	e1a04000 	mov	r4, r0
     cdc:	e1500001 	cmp	r0, r1
     ce0:	da000006 	ble	d00 <clear_line+0x3c>
        swap(&xi, &xf);
     ce4:	e28d0004 	add	r0, sp, #4
     ce8:	e1a0100d 	mov	r1, sp
     cec:	ebffffe2 	bl	c7c <swap>
    }
    for (int x = xi; x <= xf; x++){
     cf0:	e59d4004 	ldr	r4, [sp, #4]
     cf4:	e59d3000 	ldr	r3, [sp]
     cf8:	e1540003 	cmp	r4, r3
     cfc:	ca000008 	bgt	d24 <clear_line+0x60>
        plot_pixel(x, y, BLACK);
     d00:	e3a06000 	mov	r6, #0
     d04:	e1a00004 	mov	r0, r4
     d08:	e1a01005 	mov	r1, r5
     d0c:	e1a02006 	mov	r2, r6
     d10:	ebfffd77 	bl	2f4 <plot_pixel>
void clear_line(int xi, int xf, int y){
    //clears horizontal line
    if (xi > xf){
        swap(&xi, &xf);
    }
    for (int x = xi; x <= xf; x++){
     d14:	e2844001 	add	r4, r4, #1
     d18:	e59d3000 	ldr	r3, [sp]
     d1c:	e1530004 	cmp	r3, r4
     d20:	aafffff7 	bge	d04 <clear_line+0x40>
        plot_pixel(x, y, BLACK);
 	}
    return;
}
     d24:	e28dd008 	add	sp, sp, #8
     d28:	e8bd8070 	pop	{r4, r5, r6, pc}

00000d2c <draw_square>:

void draw_square(int x, int y, short int color){
     d2c:	e92d45f8 	push	{r3, r4, r5, r6, r7, r8, r10, lr}
     d30:	e1a08001 	mov	r8, r1
     d34:	e1a07002 	mov	r7, r2
    for (int i = x ; i < (x+5); i++){
     d38:	e280a005 	add	r10, r0, #5
     d3c:	e150000a 	cmp	r0, r10
     d40:	a8bd85f8 	popge	{r3, r4, r5, r6, r7, r8, r10, pc}
     d44:	ea00000a 	b	d74 <draw_square+0x48>
        for (int j = y; j < (y+5); j++){
            plot_pixel(i, j, color);
     d48:	e1a00005 	mov	r0, r5
     d4c:	e1a01004 	mov	r1, r4
     d50:	e1a02007 	mov	r2, r7
     d54:	ebfffd66 	bl	2f4 <plot_pixel>
    return;
}

void draw_square(int x, int y, short int color){
    for (int i = x ; i < (x+5); i++){
        for (int j = y; j < (y+5); j++){
     d58:	e2844001 	add	r4, r4, #1
     d5c:	e1540006 	cmp	r4, r6
     d60:	1afffff8 	bne	d48 <draw_square+0x1c>
 	}
    return;
}

void draw_square(int x, int y, short int color){
    for (int i = x ; i < (x+5); i++){
     d64:	e2855001 	add	r5, r5, #1
     d68:	e155000a 	cmp	r5, r10
     d6c:	1a000002 	bne	d7c <draw_square+0x50>
     d70:	e8bd85f8 	pop	{r3, r4, r5, r6, r7, r8, r10, pc}
     d74:	e1a05000 	mov	r5, r0
        for (int j = y; j < (y+5); j++){
     d78:	e2816005 	add	r6, r1, #5
     d7c:	e1580006 	cmp	r8, r6
     d80:	b1a04008 	movlt	r4, r8
     d84:	baffffef 	blt	d48 <draw_square+0x1c>
     d88:	eafffff5 	b	d64 <draw_square+0x38>

00000d8c <compute>:
            float Rload,
            float t,
            float t_not,
            bool sw1,
            bool sw2,
            bool ac){
     d8c:	e92d4ff0 	push	{r4, r5, r6, r7, r8, r9, r10, r11, lr}
     d90:	e24dd044 	sub	sp, sp, #68	; 0x44
     d94:	e1a05001 	mov	r5, r1
     d98:	e1a06002 	mov	r6, r2
     d9c:	e1a08003 	mov	r8, r3
     da0:	e59d7068 	ldr	r7, [sp, #104]	; 0x68
     da4:	e5dda090 	ldrb	r10, [sp, #144]	; 0x90
     da8:	e5dd9094 	ldrb	r9, [sp, #148]	; 0x94

    for (int i = 0; i<size; i++){
     dac:	e2504000 	subs	r4, r0, #0
     db0:	da00000d 	ble	dec <compute+0x60>
     db4:	e1a01003 	mov	r1, r3
            plot_pixel(i, j, color);
        }
    }
}

void compute(int size,
     db8:	e1a0c104 	lsl	r12, r4, #2
     dbc:	e3a02000 	mov	r2, #0
     dc0:	e1a03002 	mov	r3, r2
            bool sw1,
            bool sw2,
            bool ac){

    for (int i = 0; i<size; i++){
        Ic[i] = Ic[i+1];
     dc4:	e5b10004 	ldr	r0, [r1, #4]!
     dc8:	e2822004 	add	r2, r2, #4
     dcc:	e7880003 	str	r0, [r8, r3]
        Vs[i] = Vs[i+1];
     dd0:	e7960002 	ldr	r0, [r6, r2]
     dd4:	e7860003 	str	r0, [r6, r3]
        Vc[i] = Vc[i+1];
     dd8:	e7970002 	ldr	r0, [r7, r2]
     ddc:	e7870003 	str	r0, [r7, r3]
     de0:	e2833004 	add	r3, r3, #4
            float t_not,
            bool sw1,
            bool sw2,
            bool ac){

    for (int i = 0; i<size; i++){
     de4:	e153000c 	cmp	r3, r12
     de8:	1afffff5 	bne	dc4 <compute+0x38>
        Ic[i] = Ic[i+1];
        Vs[i] = Vs[i+1];
        Vc[i] = Vc[i+1];
    }

    float arg = (freq * (t - t_not)) - phase;
     dec:	e59d0088 	ldr	r0, [sp, #136]	; 0x88
     df0:	e59d108c 	ldr	r1, [sp, #140]	; 0x8c
     df4:	eb000d9c 	bl	446c <__aeabi_fsub>
     df8:	e1a0b000 	mov	r11, r0

    if (ac) Vs[size-1] = amp * sin(arg);
     dfc:	e5dd3098 	ldrb	r3, [sp, #152]	; 0x98
     e00:	e3530000 	cmp	r3, #0
     e04:	0a000014 	beq	e5c <compute+0xd0>
     e08:	e2445001 	sub	r5, r4, #1
        Ic[i] = Ic[i+1];
        Vs[i] = Vs[i+1];
        Vc[i] = Vc[i+1];
    }

    float arg = (freq * (t - t_not)) - phase;
     e0c:	e59d1074 	ldr	r1, [sp, #116]	; 0x74
     e10:	eb000e3e 	bl	4710 <__aeabi_fmul>
     e14:	e59d1078 	ldr	r1, [sp, #120]	; 0x78
     e18:	eb000d93 	bl	446c <__aeabi_fsub>

    if (ac) Vs[size-1] = amp * sin(arg);
     e1c:	eb000bac 	bl	3cd4 <__aeabi_f2d>
     e20:	e1cd03f0 	strd	r0, [sp, #48]	; 0x30
     e24:	eb000219 	bl	1690 <sin>
     e28:	e1cd02f8 	strd	r0, [sp, #40]	; 0x28
     e2c:	e59d0070 	ldr	r0, [sp, #112]	; 0x70
     e30:	eb000ba7 	bl	3cd4 <__aeabi_f2d>
     e34:	e1cd22d8 	ldrd	r2, [sp, #40]	; 0x28
     e38:	eb000bd2 	bl	3d88 <__aeabi_dmul>
     e3c:	e1cd02f8 	strd	r0, [sp, #40]	; 0x28
     e40:	eb000d5f 	bl	43c4 <__aeabi_d2f>
     e44:	e7860105 	str	r0, [r6, r5, lsl #2]
    else Vs[size-1] = dc_voltage;

    if (ac)
    {
        if (!sw1 && !sw2){
     e48:	e22a2001 	eor	r2, r10, #1
     e4c:	e2293001 	eor	r3, r9, #1
     e50:	e1130002 	tst	r3, r2
     e54:	0a00000d 	beq	e90 <compute+0x104>
     e58:	ea000006 	b	e78 <compute+0xec>
    }

    float arg = (freq * (t - t_not)) - phase;

    if (ac) Vs[size-1] = amp * sin(arg);
    else Vs[size-1] = dc_voltage;
     e5c:	e2444001 	sub	r4, r4, #1
     e60:	e7865104 	str	r5, [r6, r4, lsl #2]
            Ic[size-1] = - Vc[size-1] / Rload;
        }


    } else {
        if (!sw1 && !sw2){
     e64:	e22a2001 	eor	r2, r10, #1
     e68:	e2293001 	eor	r3, r9, #1
     e6c:	e1130002 	tst	r3, r2
     e70:	0a0000aa 	beq	1120 <compute+0x394>
     e74:	ea0000a3 	b	1108 <compute+0x37c>
    else Vs[size-1] = dc_voltage;

    if (ac)
    {
        if (!sw1 && !sw2){
            Ic[size-1] = 0;
     e78:	e3a03000 	mov	r3, #0
     e7c:	e7883105 	str	r3, [r8, r5, lsl #2]
            Vc[size-1] = *v_stored;
     e80:	e59d206c 	ldr	r2, [sp, #108]	; 0x6c
     e84:	e5923000 	ldr	r3, [r2]
     e88:	e7873105 	str	r3, [r7, r5, lsl #2]
     e8c:	ea000134 	b	1364 <compute+0x5d8>
        }

        else if (sw1 && !sw2){
     e90:	e113000a 	tst	r3, r10
     e94:	0a000029 	beq	f40 <compute+0x1b4>
            Ic[size-1] = cap * amp * freq * cos(arg);
     e98:	e1cd03d0 	ldrd	r0, [sp, #48]	; 0x30
     e9c:	eb0001be 	bl	159c <cos>
     ea0:	e1cd02f0 	strd	r0, [sp, #32]
     ea4:	e59d0080 	ldr	r0, [sp, #128]	; 0x80
     ea8:	e59d1070 	ldr	r1, [sp, #112]	; 0x70
     eac:	eb000e17 	bl	4710 <__aeabi_fmul>
     eb0:	e59d1074 	ldr	r1, [sp, #116]	; 0x74
     eb4:	eb000e15 	bl	4710 <__aeabi_fmul>
     eb8:	eb000b85 	bl	3cd4 <__aeabi_f2d>
     ebc:	e1cd22d0 	ldrd	r2, [sp, #32]
     ec0:	eb000bb0 	bl	3d88 <__aeabi_dmul>
     ec4:	eb000d3e 	bl	43c4 <__aeabi_d2f>
     ec8:	e7880105 	str	r0, [r8, r5, lsl #2]
            Vc[size-1] = Vs[size-1] * (1 - exp( -(t-t_not) / (Rload * cap) ) );
     ecc:	e7960105 	ldr	r0, [r6, r5, lsl #2]
     ed0:	eb000b7f 	bl	3cd4 <__aeabi_f2d>
     ed4:	e1a08000 	mov	r8, r0
     ed8:	e1a09001 	mov	r9, r1
     edc:	e28bb102 	add	r11, r11, #-2147483648	; 0x80000000
     ee0:	e59d0084 	ldr	r0, [sp, #132]	; 0x84
     ee4:	e59d1080 	ldr	r1, [sp, #128]	; 0x80
     ee8:	eb000e08 	bl	4710 <__aeabi_fmul>
     eec:	e1a01000 	mov	r1, r0
     ef0:	e1a0000b 	mov	r0, r11
     ef4:	eb000e6b 	bl	48a8 <__aeabi_fdiv>
     ef8:	eb000b75 	bl	3cd4 <__aeabi_f2d>
     efc:	eb000223 	bl	1790 <exp>
     f00:	e1a02000 	mov	r2, r0
     f04:	e1a03001 	mov	r3, r1
     f08:	e3a00000 	mov	r0, #0
     f0c:	e3a01000 	mov	r1, #0
     f10:	e3431ff0 	movt	r1, #16368	; 0x3ff0
     f14:	eb000a96 	bl	3974 <__aeabi_dsub>
     f18:	e1a02000 	mov	r2, r0
     f1c:	e1a03001 	mov	r3, r1
     f20:	e1a00008 	mov	r0, r8
     f24:	e1a01009 	mov	r1, r9
     f28:	eb000b96 	bl	3d88 <__aeabi_dmul>
     f2c:	eb000d24 	bl	43c4 <__aeabi_d2f>
     f30:	e7870105 	str	r0, [r7, r5, lsl #2]
            *v_stored = Vc[size-1];
     f34:	e59d306c 	ldr	r3, [sp, #108]	; 0x6c
     f38:	e5830000 	str	r0, [r3]
     f3c:	ea000108 	b	1364 <compute+0x5d8>
        }

        else if (sw1 && sw2){
     f40:	e119000a 	tst	r9, r10
     f44:	0a000055 	beq	10a0 <compute+0x314>
            float Rtot = (Rin * Rload) / (Rin + Rload);
     f48:	e59d007c 	ldr	r0, [sp, #124]	; 0x7c
     f4c:	e59d1084 	ldr	r1, [sp, #132]	; 0x84
     f50:	eb000dee 	bl	4710 <__aeabi_fmul>
     f54:	e1a04000 	mov	r4, r0
     f58:	e59d007c 	ldr	r0, [sp, #124]	; 0x7c
     f5c:	e59d1084 	ldr	r1, [sp, #132]	; 0x84
     f60:	eb000d42 	bl	4470 <__addsf3>
     f64:	e1a01000 	mov	r1, r0
     f68:	e1a00004 	mov	r0, r4
     f6c:	eb000e4d 	bl	48a8 <__aeabi_fdiv>
     f70:	e1a0a000 	mov	r10, r0
            Ic[size-1] = ((amp * sin(arg) * exp( -(t-t_not) / (Rtot * cap) ) ) / Rtot) + (amp * cap * freq * (1 - exp( -(t-t_not) / (Rtot * cap) ) ) * cos(arg));
     f74:	e28bb102 	add	r11, r11, #-2147483648	; 0x80000000
     f78:	e59d1080 	ldr	r1, [sp, #128]	; 0x80
     f7c:	eb000de3 	bl	4710 <__aeabi_fmul>
     f80:	e1a01000 	mov	r1, r0
     f84:	e1a0000b 	mov	r0, r11
     f88:	eb000e46 	bl	48a8 <__aeabi_fdiv>
     f8c:	eb000b50 	bl	3cd4 <__aeabi_f2d>
     f90:	e1cd01f8 	strd	r0, [sp, #24]
     f94:	eb0001fd 	bl	1790 <exp>
     f98:	e1cd02f0 	strd	r0, [sp, #32]
     f9c:	e1cd01d8 	ldrd	r0, [sp, #24]
     fa0:	eb0001fa 	bl	1790 <exp>
     fa4:	e1cd03f8 	strd	r0, [sp, #56]	; 0x38
     fa8:	e1cd03d0 	ldrd	r0, [sp, #48]	; 0x30
     fac:	eb00017a 	bl	159c <cos>
     fb0:	e1cd03f0 	strd	r0, [sp, #48]	; 0x30
     fb4:	e1cd02d8 	ldrd	r0, [sp, #40]	; 0x28
     fb8:	e1cd22d0 	ldrd	r2, [sp, #32]
     fbc:	eb000b71 	bl	3d88 <__aeabi_dmul>
     fc0:	e1cd02f0 	strd	r0, [sp, #32]
     fc4:	e1a0000a 	mov	r0, r10
     fc8:	eb000b41 	bl	3cd4 <__aeabi_f2d>
     fcc:	e1a02000 	mov	r2, r0
     fd0:	e1a03001 	mov	r3, r1
     fd4:	e1cd02d0 	ldrd	r0, [sp, #32]
     fd8:	eb000c0e 	bl	4018 <__aeabi_ddiv>
     fdc:	e1a0a000 	mov	r10, r0
     fe0:	e1a0b001 	mov	r11, r1
     fe4:	e59d0070 	ldr	r0, [sp, #112]	; 0x70
     fe8:	e59d1080 	ldr	r1, [sp, #128]	; 0x80
     fec:	eb000dc7 	bl	4710 <__aeabi_fmul>
     ff0:	e59d1074 	ldr	r1, [sp, #116]	; 0x74
     ff4:	eb000dc5 	bl	4710 <__aeabi_fmul>
     ff8:	eb000b35 	bl	3cd4 <__aeabi_f2d>
     ffc:	e1cd00f8 	strd	r0, [sp, #8]
    1000:	e3a00000 	mov	r0, #0
    1004:	e3a01000 	mov	r1, #0
    1008:	e3431ff0 	movt	r1, #16368	; 0x3ff0
    100c:	e1cd23d8 	ldrd	r2, [sp, #56]	; 0x38
    1010:	eb000a57 	bl	3974 <__aeabi_dsub>
    1014:	e1a02000 	mov	r2, r0
    1018:	e1a03001 	mov	r3, r1
    101c:	e1cd00d8 	ldrd	r0, [sp, #8]
    1020:	eb000b58 	bl	3d88 <__aeabi_dmul>
    1024:	e1cd23d0 	ldrd	r2, [sp, #48]	; 0x30
    1028:	eb000b56 	bl	3d88 <__aeabi_dmul>
    102c:	e1a02000 	mov	r2, r0
    1030:	e1a03001 	mov	r3, r1
    1034:	e1a0000a 	mov	r0, r10
    1038:	e1a0100b 	mov	r1, r11
    103c:	eb000a4d 	bl	3978 <__adddf3>
    1040:	eb000cdf 	bl	43c4 <__aeabi_d2f>
    1044:	e7880105 	str	r0, [r8, r5, lsl #2]
            Vc[size-1] = Vs[size-1] * (1 - exp( -(t-t_not) / (Rtot * cap) ) );
    1048:	e7960105 	ldr	r0, [r6, r5, lsl #2]
    104c:	eb000b20 	bl	3cd4 <__aeabi_f2d>
    1050:	e1a08000 	mov	r8, r0
    1054:	e1a09001 	mov	r9, r1
    1058:	e1cd01d8 	ldrd	r0, [sp, #24]
    105c:	eb0001cb 	bl	1790 <exp>
    1060:	e1a02000 	mov	r2, r0
    1064:	e1a03001 	mov	r3, r1
    1068:	e3a00000 	mov	r0, #0
    106c:	e3a01000 	mov	r1, #0
    1070:	e3431ff0 	movt	r1, #16368	; 0x3ff0
    1074:	eb000a3e 	bl	3974 <__aeabi_dsub>
    1078:	e1a02000 	mov	r2, r0
    107c:	e1a03001 	mov	r3, r1
    1080:	e1a00008 	mov	r0, r8
    1084:	e1a01009 	mov	r1, r9
    1088:	eb000b3e 	bl	3d88 <__aeabi_dmul>
    108c:	eb000ccc 	bl	43c4 <__aeabi_d2f>
    1090:	e7870105 	str	r0, [r7, r5, lsl #2]
            *v_stored = Vc[size-1];
    1094:	e59d206c 	ldr	r2, [sp, #108]	; 0x6c
    1098:	e5820000 	str	r0, [r2]
    109c:	ea0000b0 	b	1364 <compute+0x5d8>
        }

        else if (!sw1 && sw2){
    10a0:	e1190002 	tst	r9, r2
    10a4:	0a0000ae 	beq	1364 <compute+0x5d8>
            Vc[size-1] = *(v_stored) *  exp( -(t-t_not) / (Rload * cap) );
    10a8:	e59d306c 	ldr	r3, [sp, #108]	; 0x6c
    10ac:	e5930000 	ldr	r0, [r3]
    10b0:	eb000b07 	bl	3cd4 <__aeabi_f2d>
    10b4:	e1cd00f0 	strd	r0, [sp]
    10b8:	e28bb102 	add	r11, r11, #-2147483648	; 0x80000000
    10bc:	e59d0084 	ldr	r0, [sp, #132]	; 0x84
    10c0:	e59d1080 	ldr	r1, [sp, #128]	; 0x80
    10c4:	eb000d91 	bl	4710 <__aeabi_fmul>
    10c8:	e1a01000 	mov	r1, r0
    10cc:	e1a0000b 	mov	r0, r11
    10d0:	eb000df4 	bl	48a8 <__aeabi_fdiv>
    10d4:	eb000afe 	bl	3cd4 <__aeabi_f2d>
    10d8:	eb0001ac 	bl	1790 <exp>
    10dc:	e1a02000 	mov	r2, r0
    10e0:	e1a03001 	mov	r3, r1
    10e4:	e1cd00d0 	ldrd	r0, [sp]
    10e8:	eb000b26 	bl	3d88 <__aeabi_dmul>
    10ec:	eb000cb4 	bl	43c4 <__aeabi_d2f>
    10f0:	e7870105 	str	r0, [r7, r5, lsl #2]
            Ic[size-1] = - Vc[size-1] / Rload;
    10f4:	e2800102 	add	r0, r0, #-2147483648	; 0x80000000
    10f8:	e59d1084 	ldr	r1, [sp, #132]	; 0x84
    10fc:	eb000de9 	bl	48a8 <__aeabi_fdiv>
    1100:	e7880105 	str	r0, [r8, r5, lsl #2]
    1104:	ea000096 	b	1364 <compute+0x5d8>
        }


    } else {
        if (!sw1 && !sw2){
            Ic[size-1] = 0;
    1108:	e3a03000 	mov	r3, #0
    110c:	e7883104 	str	r3, [r8, r4, lsl #2]
            Vc[size-1] = *v_stored;
    1110:	e59d206c 	ldr	r2, [sp, #108]	; 0x6c
    1114:	e5923000 	ldr	r3, [r2]
    1118:	e7873104 	str	r3, [r7, r4, lsl #2]
    111c:	ea000090 	b	1364 <compute+0x5d8>
        }

        else if (sw1 && !sw2){
    1120:	e113000a 	tst	r3, r10
    1124:	0a000034 	beq	11fc <compute+0x470>
            Vc[size-1] = Vs[size-1] * (1 - exp( -(t-t_not) / (Rin * cap)));
    1128:	e280b102 	add	r11, r0, #-2147483648	; 0x80000000
    112c:	e59d007c 	ldr	r0, [sp, #124]	; 0x7c
    1130:	e59d1080 	ldr	r1, [sp, #128]	; 0x80
    1134:	eb000d75 	bl	4710 <__aeabi_fmul>
    1138:	e1a01000 	mov	r1, r0
    113c:	e1a0000b 	mov	r0, r11
    1140:	eb000dd8 	bl	48a8 <__aeabi_fdiv>
    1144:	eb000ae2 	bl	3cd4 <__aeabi_f2d>
    1148:	e1cd00f8 	strd	r0, [sp, #8]
    114c:	eb00018f 	bl	1790 <exp>
    1150:	e1cd01f0 	strd	r0, [sp, #16]
    1154:	e1a00005 	mov	r0, r5
    1158:	eb000add 	bl	3cd4 <__aeabi_f2d>
    115c:	e1a0a000 	mov	r10, r0
    1160:	e1a0b001 	mov	r11, r1
    1164:	e3a00000 	mov	r0, #0
    1168:	e3a01000 	mov	r1, #0
    116c:	e3431ff0 	movt	r1, #16368	; 0x3ff0
    1170:	e1cd21d0 	ldrd	r2, [sp, #16]
    1174:	eb0009fe 	bl	3974 <__aeabi_dsub>
    1178:	e1a02000 	mov	r2, r0
    117c:	e1a03001 	mov	r3, r1
    1180:	e1a0000a 	mov	r0, r10
    1184:	e1a0100b 	mov	r1, r11
    1188:	eb000afe 	bl	3d88 <__aeabi_dmul>
    118c:	eb000c8c 	bl	43c4 <__aeabi_d2f>
    1190:	e7870104 	str	r0, [r7, r4, lsl #2]
            Ic[size-1] = ( Vs[size-1] * ( exp( -(t-t_not) / (Rin * cap) ) ) ) / Rin;
    1194:	e7960104 	ldr	r0, [r6, r4, lsl #2]
    1198:	eb000acd 	bl	3cd4 <__aeabi_f2d>
    119c:	e1a0a000 	mov	r10, r0
    11a0:	e1a0b001 	mov	r11, r1
    11a4:	e1cd00d8 	ldrd	r0, [sp, #8]
    11a8:	eb000178 	bl	1790 <exp>
    11ac:	e1a02000 	mov	r2, r0
    11b0:	e1a03001 	mov	r3, r1
    11b4:	e1a0000a 	mov	r0, r10
    11b8:	e1a0100b 	mov	r1, r11
    11bc:	eb000af1 	bl	3d88 <__aeabi_dmul>
    11c0:	e1a0a000 	mov	r10, r0
    11c4:	e1a0b001 	mov	r11, r1
    11c8:	e59d007c 	ldr	r0, [sp, #124]	; 0x7c
    11cc:	eb000ac0 	bl	3cd4 <__aeabi_f2d>
    11d0:	e1a02000 	mov	r2, r0
    11d4:	e1a03001 	mov	r3, r1
    11d8:	e1a0000a 	mov	r0, r10
    11dc:	e1a0100b 	mov	r1, r11
    11e0:	eb000b8c 	bl	4018 <__aeabi_ddiv>
    11e4:	eb000c76 	bl	43c4 <__aeabi_d2f>
    11e8:	e7880104 	str	r0, [r8, r4, lsl #2]
            *v_stored = Vc[size-1];
    11ec:	e7973104 	ldr	r3, [r7, r4, lsl #2]
    11f0:	e59d206c 	ldr	r2, [sp, #108]	; 0x6c
    11f4:	e5823000 	str	r3, [r2]
    11f8:	ea000059 	b	1364 <compute+0x5d8>
        }

        else if (sw1 && sw2){
    11fc:	e119000a 	tst	r9, r10
    1200:	0a00003e 	beq	1300 <compute+0x574>
            float Rtot = (Rin * Rload) / (Rin + Rload);
    1204:	e59d007c 	ldr	r0, [sp, #124]	; 0x7c
    1208:	e59d1084 	ldr	r1, [sp, #132]	; 0x84
    120c:	eb000d3f 	bl	4710 <__aeabi_fmul>
    1210:	e1a0a000 	mov	r10, r0
    1214:	e59d007c 	ldr	r0, [sp, #124]	; 0x7c
    1218:	e59d1084 	ldr	r1, [sp, #132]	; 0x84
    121c:	eb000c93 	bl	4470 <__addsf3>
    1220:	e1a01000 	mov	r1, r0
    1224:	e1a0000a 	mov	r0, r10
    1228:	eb000d9e 	bl	48a8 <__aeabi_fdiv>
    122c:	e1a09000 	mov	r9, r0
            Vc[size-1] = Vs[size-1] * (1 - exp( -(t-t_not) / (Rtot * cap)));
    1230:	e28bb102 	add	r11, r11, #-2147483648	; 0x80000000
    1234:	e59d1080 	ldr	r1, [sp, #128]	; 0x80
    1238:	eb000d34 	bl	4710 <__aeabi_fmul>
    123c:	e1a01000 	mov	r1, r0
    1240:	e1a0000b 	mov	r0, r11
    1244:	eb000d97 	bl	48a8 <__aeabi_fdiv>
    1248:	eb000aa1 	bl	3cd4 <__aeabi_f2d>
    124c:	e1cd00f8 	strd	r0, [sp, #8]
    1250:	eb00014e 	bl	1790 <exp>
    1254:	e1a0a000 	mov	r10, r0
    1258:	e1a0b001 	mov	r11, r1
    125c:	e1a00005 	mov	r0, r5
    1260:	eb000a9b 	bl	3cd4 <__aeabi_f2d>
    1264:	e1cd01f0 	strd	r0, [sp, #16]
    1268:	e3a00000 	mov	r0, #0
    126c:	e3a01000 	mov	r1, #0
    1270:	e3431ff0 	movt	r1, #16368	; 0x3ff0
    1274:	e1a0200a 	mov	r2, r10
    1278:	e1a0300b 	mov	r3, r11
    127c:	eb0009bc 	bl	3974 <__aeabi_dsub>
    1280:	e1a02000 	mov	r2, r0
    1284:	e1a03001 	mov	r3, r1
    1288:	e1cd01d0 	ldrd	r0, [sp, #16]
    128c:	eb000abd 	bl	3d88 <__aeabi_dmul>
    1290:	eb000c4b 	bl	43c4 <__aeabi_d2f>
    1294:	e7870104 	str	r0, [r7, r4, lsl #2]
            Ic[size-1] = ( Vs[size-1] * ( exp( -(t-t_not) / (Rtot * cap) ) ) ) / Rtot;
    1298:	e7960104 	ldr	r0, [r6, r4, lsl #2]
    129c:	eb000a8c 	bl	3cd4 <__aeabi_f2d>
    12a0:	e1a0a000 	mov	r10, r0
    12a4:	e1a0b001 	mov	r11, r1
    12a8:	e1cd00d8 	ldrd	r0, [sp, #8]
    12ac:	eb000137 	bl	1790 <exp>
    12b0:	e1a02000 	mov	r2, r0
    12b4:	e1a03001 	mov	r3, r1
    12b8:	e1a0000a 	mov	r0, r10
    12bc:	e1a0100b 	mov	r1, r11
    12c0:	eb000ab0 	bl	3d88 <__aeabi_dmul>
    12c4:	e1a0a000 	mov	r10, r0
    12c8:	e1a0b001 	mov	r11, r1
    12cc:	e1a00009 	mov	r0, r9
    12d0:	eb000a7f 	bl	3cd4 <__aeabi_f2d>
    12d4:	e1a02000 	mov	r2, r0
    12d8:	e1a03001 	mov	r3, r1
    12dc:	e1a0000a 	mov	r0, r10
    12e0:	e1a0100b 	mov	r1, r11
    12e4:	eb000b4b 	bl	4018 <__aeabi_ddiv>
    12e8:	eb000c35 	bl	43c4 <__aeabi_d2f>
    12ec:	e7880104 	str	r0, [r8, r4, lsl #2]
            *v_stored = Vc[size-1];
    12f0:	e7973104 	ldr	r3, [r7, r4, lsl #2]
    12f4:	e59d206c 	ldr	r2, [sp, #108]	; 0x6c
    12f8:	e5823000 	str	r3, [r2]
    12fc:	ea000018 	b	1364 <compute+0x5d8>
        }

        else if (!sw1 && sw2){
    1300:	e1120009 	tst	r2, r9
    1304:	0a000016 	beq	1364 <compute+0x5d8>
            Vc[size-1] = *(v_stored) *  exp( -(t-t_not) / (Rload * cap) );
    1308:	e59d306c 	ldr	r3, [sp, #108]	; 0x6c
    130c:	e5930000 	ldr	r0, [r3]
    1310:	eb000a6f 	bl	3cd4 <__aeabi_f2d>
    1314:	e1cd00f0 	strd	r0, [sp]
    1318:	e28bb102 	add	r11, r11, #-2147483648	; 0x80000000
    131c:	e59d0084 	ldr	r0, [sp, #132]	; 0x84
    1320:	e59d1080 	ldr	r1, [sp, #128]	; 0x80
    1324:	eb000cf9 	bl	4710 <__aeabi_fmul>
    1328:	e1a01000 	mov	r1, r0
    132c:	e1a0000b 	mov	r0, r11
    1330:	eb000d5c 	bl	48a8 <__aeabi_fdiv>
    1334:	eb000a66 	bl	3cd4 <__aeabi_f2d>
    1338:	eb000114 	bl	1790 <exp>
    133c:	e1a02000 	mov	r2, r0
    1340:	e1a03001 	mov	r3, r1
    1344:	e1cd00d0 	ldrd	r0, [sp]
    1348:	eb000a8e 	bl	3d88 <__aeabi_dmul>
    134c:	eb000c1c 	bl	43c4 <__aeabi_d2f>
    1350:	e7870104 	str	r0, [r7, r4, lsl #2]
            Ic[size-1] = - Vc[size-1] / Rload;
    1354:	e2800102 	add	r0, r0, #-2147483648	; 0x80000000
    1358:	e59d1084 	ldr	r1, [sp, #132]	; 0x84
    135c:	eb000d51 	bl	48a8 <__aeabi_fdiv>
    1360:	e7880104 	str	r0, [r8, r4, lsl #2]
        }
    }
}
    1364:	e28dd044 	add	sp, sp, #68	; 0x44
    1368:	e8bd8ff0 	pop	{r4, r5, r6, r7, r8, r9, r10, r11, pc}

0000136c <set_switches>:

void set_switches(bool* sw1, bool* sw2, bool *ac)
{
    volatile int* SW_ptr = (int*) 0xFF200040;
    *(sw1) = *(SW_ptr) & 0b0000000001;
    136c:	e3a03000 	mov	r3, #0
    1370:	e34f3f20 	movt	r3, #65312	; 0xff20
    1374:	e593c040 	ldr	r12, [r3, #64]	; 0x40
    1378:	e20cc001 	and	r12, r12, #1
    137c:	e5c0c000 	strb	r12, [r0]
    *(sw2) = *(SW_ptr) & 0b0000000010;
    1380:	e5930040 	ldr	r0, [r3, #64]	; 0x40
    1384:	e7e000d0 	ubfx	r0, r0, #1, #1
    1388:	e5c10000 	strb	r0, [r1]
    *(ac) = *(SW_ptr) & 0b1000000000;
    138c:	e5933040 	ldr	r3, [r3, #64]	; 0x40
    1390:	e7e034d3 	ubfx	r3, r3, #9, #1
    1394:	e5c23000 	strb	r3, [r2]
    1398:	e12fff1e 	bx	lr

0000139c <main>:
// void set_switches( bool *sw1, bool *sw2, bool *sw1_ready, bool *sw2_ready );
// void tab_over( int *select, int *digit, bool *tab_ready, float *circuit_data, float *temp_circuit_data);
// void change_data( int *select, int *digit, bool *type_ready, float *circuit_data, float *temp_circuit_data);
// int get_jtag( void );

int main(void){
    139c:	e92d4ff0 	push	{r4, r5, r6, r7, r8, r9, r10, r11, lr}
    13a0:	e28db020 	add	r11, sp, #32
    13a4:	e24dd04c 	sub	sp, sp, #76	; 0x4c
    bool sw1 = false;
    13a8:	e3a07000 	mov	r7, #0
    13ac:	e54b7025 	strb	r7, [r11, #-37]	; 0xffffffdb
    bool sw2 = false;
    13b0:	e54b7026 	strb	r7, [r11, #-38]	; 0xffffffda
    bool ac = false;
    13b4:	e54b7027 	strb	r7, [r11, #-39]	; 0xffffffd9
    // declare other variables
    // short int draw_colour = BLUE;
    volatile int * pixel_ctrl_ptr = (int *)PIXEL_BUFF_REG;

    /* set front pixel buffer to start of FPGA On-chip memory */
    *(pixel_ctrl_ptr + 1) = ON_CHIP_MEM; // first store the address in the back buffer
    13b8:	e3034fff 	movw	r4, #16383	; 0x3fff
    13bc:	e34f4f20 	movt	r4, #65312	; 0xff20
    13c0:	e3a03332 	mov	r3, #-939524096	; 0xc8000000
    13c4:	e5043fdb 	str	r3, [r4, #-4059]	; 0xfffff025

    /* now, swap the front/back buffers, to set the front buffer location */
    // wait_for_vsync();
    wait_for_vsync();
    13c8:	ebfffe30 	bl	c90 <wait_for_vsync>

    /* initialize a pointer to the pixel buffer, used by drawing functions */
    pixel_buffer_start = *pixel_ctrl_ptr;
    13cc:	e5143fdf 	ldr	r3, [r4, #-4063]	; 0xfffff021
    13d0:	e305568c 	movw	r5, #22156	; 0x568c
    13d4:	e3405000 	movt	r5, #0
    13d8:	e5853000 	str	r3, [r5]
    clear_screen(); // pixel_buffer_start points to the pixel buffer
    13dc:	ebfffe10 	bl	c24 <clear_screen>
    clear_chars();
    13e0:	ebfffbb3 	bl	2b4 <clear_chars>

    /* set back pixel buffer to start of SDRAM memory */
    *(pixel_ctrl_ptr + 1) = SDRAM_MEM;
    13e4:	e3a03103 	mov	r3, #-1073741824	; 0xc0000000
    13e8:	e5043fdb 	str	r3, [r4, #-4059]	; 0xfffff025
    pixel_buffer_start = *(pixel_ctrl_ptr + 1); // we draw on the back buffer
    13ec:	e5143fdb 	ldr	r3, [r4, #-4059]	; 0xfffff025
    13f0:	e5853000 	str	r3, [r5]

    int size = 70;

    //Graph data
    float Vs[size];// = {0};
    13f4:	e24dde12 	sub	sp, sp, #288	; 0x120
    13f8:	e28da038 	add	r10, sp, #56	; 0x38
    float Ic[size];// = {0};
    13fc:	e24dde12 	sub	sp, sp, #288	; 0x120
    1400:	e28d5038 	add	r5, sp, #56	; 0x38
    float Vc[size];// = {0};
    1404:	e24dde12 	sub	sp, sp, #288	; 0x120
    1408:	e28d6038 	add	r6, sp, #56	; 0x38
    140c:	e1a03007 	mov	r3, r7

    for(int i = 0; i<size; i++){
        Vs[i] = 0;
    1410:	e3a02000 	mov	r2, #0
    1414:	e78a2003 	str	r2, [r10, r3]
        Vc[i] = 0;
    1418:	e7862003 	str	r2, [r6, r3]
        Ic[i] = 0;
    141c:	e7852003 	str	r2, [r5, r3]
    1420:	e2833004 	add	r3, r3, #4
    //Graph data
    float Vs[size];// = {0};
    float Ic[size];// = {0};
    float Vc[size];// = {0};

    for(int i = 0; i<size; i++){
    1424:	e3530f46 	cmp	r3, #280	; 0x118
    1428:	1afffff9 	bne	1414 <main+0x78>
        Vs[i] = 0;
        Vc[i] = 0;
        Ic[i] = 0;
    }

    float v_stored = 0.0;
    142c:	e3a03000 	mov	r3, #0
    1430:	e50b302c 	str	r3, [r11, #-44]	; 0xffffffd4

    int lit = 0;

    while (true){
        //  clear screen
        clear_screen();
    1434:	ebfffdfa 	bl	c24 <clear_screen>
        clear_chars();
    1438:	ebfffb9d 	bl	2b4 <clear_chars>
        set_switches(&sw1, &sw2, &ac);
    143c:	e24b0025 	sub	r0, r11, #37	; 0x25
    1440:	e24b1026 	sub	r1, r11, #38	; 0x26
    1444:	e24b2027 	sub	r2, r11, #39	; 0x27
    1448:	ebffffc7 	bl	136c <set_switches>
        draw_circuit(40, 100, WHITE, sw1, sw2);
    144c:	e55b3025 	ldrb	r3, [r11, #-37]	; 0xffffffdb
    1450:	e55b2026 	ldrb	r2, [r11, #-38]	; 0xffffffda
    1454:	e58d2000 	str	r2, [sp]
    1458:	e3a00028 	mov	r0, #40	; 0x28
    145c:	e3a01064 	mov	r1, #100	; 0x64
    1460:	e3e02000 	mvn	r2, #0
    1464:	ebfffd60 	bl	9ec <draw_circuit>

    float v_stored = 0.0;
    float dc_voltage = 12;
    //time data
    int tc = 0;
    double t = 0.0;
    1468:	e3a02000 	mov	r2, #0
    146c:	e3a03000 	mov	r3, #0
    1470:	e14b23f4 	strd	r2, [r11, #-52]	; 0xffffffcc
        // lit++;

        //Calculate Ic and Vs
        if(tc == 1){

            compute(size,
    1474:	e3a09000 	mov	r9, #0
    1478:	e3449140 	movt	r9, #16704	; 0x4140
    147c:	e3a085fe 	mov	r8, #1065353216	; 0x3f800000
    1480:	e3a07000 	mov	r7, #0
            // test[29] = sin(t);
            tc = 0;
        }

        //Draw graphs to the right of the circuit
        draw_graph(240, 60, sizeof(Vs)/sizeof(Vs[0]), Vc, WHITE);//some fucking difference between Vs and test here means the graph straight up doesn't plot vs plotting
    1484:	e3e04000 	mvn	r4, #0
    1488:	e58d4000 	str	r4, [sp]
    148c:	e3a000f0 	mov	r0, #240	; 0xf0
    1490:	e3a0103c 	mov	r1, #60	; 0x3c
    1494:	e3a02046 	mov	r2, #70	; 0x46
    1498:	e1a03006 	mov	r3, r6
    149c:	ebfffca6 	bl	73c <draw_graph>
        draw_graph(240, 180, sizeof(Vc)/sizeof(Vc[0]), Ic, WHITE);//some fucking difference between Vs and test here means the graph straight up doesn't plot vs plotting
    14a0:	e58d4000 	str	r4, [sp]
    14a4:	e3a000f0 	mov	r0, #240	; 0xf0
    14a8:	e3a010b4 	mov	r1, #180	; 0xb4
    14ac:	e3a02046 	mov	r2, #70	; 0x46
    14b0:	e1a03005 	mov	r3, r5
    14b4:	ebfffca0 	bl	73c <draw_graph>

        // tab_over(select, tab_ready);
        // change_data(select, type_ready, circuit_data, temp_circuit_data);

        //  wait for sync
        wait_for_vsync(); // swap front and back buffers on VGA vertical sync
    14b8:	ebfffdf4 	bl	c90 <wait_for_vsync>
        pixel_buffer_start = *(pixel_ctrl_ptr + 1); // new back buffer
    14bc:	e3033fff 	movw	r3, #16383	; 0x3fff
    14c0:	e34f3f20 	movt	r3, #65312	; 0xff20
    14c4:	e5132fdb 	ldr	r2, [r3, #-4059]	; 0xfffff025
    14c8:	e305368c 	movw	r3, #22156	; 0x568c
    14cc:	e3403000 	movt	r3, #0
    14d0:	e5832000 	str	r2, [r3]

    int lit = 0;

    while (true){
        //  clear screen
        clear_screen();
    14d4:	ebfffdd2 	bl	c24 <clear_screen>
        clear_chars();
    14d8:	ebfffb75 	bl	2b4 <clear_chars>
        set_switches(&sw1, &sw2, &ac);
    14dc:	e24b0025 	sub	r0, r11, #37	; 0x25
    14e0:	e24b1026 	sub	r1, r11, #38	; 0x26
    14e4:	e24b2027 	sub	r2, r11, #39	; 0x27
    14e8:	ebffff9f 	bl	136c <set_switches>
        draw_circuit(40, 100, WHITE, sw1, sw2);
    14ec:	e55b3025 	ldrb	r3, [r11, #-37]	; 0xffffffdb
    14f0:	e55b2026 	ldrb	r2, [r11, #-38]	; 0xffffffda
    14f4:	e58d2000 	str	r2, [sp]
    14f8:	e3a00028 	mov	r0, #40	; 0x28
    14fc:	e3a01064 	mov	r1, #100	; 0x64
    1500:	e1a02004 	mov	r2, r4
    1504:	ebfffd38 	bl	9ec <draw_circuit>
        // lit++;

        //Calculate Ic and Vs
        if(tc == 1){

            compute(size,
    1508:	e58d6000 	str	r6, [sp]
    150c:	e24b302c 	sub	r3, r11, #44	; 0x2c
    1510:	e58d3004 	str	r3, [sp, #4]
    1514:	e58d8008 	str	r8, [sp, #8]
    1518:	e58d800c 	str	r8, [sp, #12]
    151c:	e58d7010 	str	r7, [sp, #16]
    1520:	e3a03000 	mov	r3, #0
    1524:	e34433fa 	movt	r3, #17402	; 0x43fa
    1528:	e58d3014 	str	r3, [sp, #20]
    152c:	e30327bd 	movw	r2, #14269	; 0x37bd
    1530:	e3432586 	movt	r2, #13702	; 0x3586
    1534:	e58d2018 	str	r2, [sp, #24]
    1538:	e3a03000 	mov	r3, #0
    153c:	e58d301c 	str	r3, [sp, #28]
    1540:	e14b03d4 	ldrd	r0, [r11, #-52]	; 0xffffffcc
    1544:	eb000b9e 	bl	43c4 <__aeabi_d2f>
    1548:	e58d0020 	str	r0, [sp, #32]
    154c:	e58d7024 	str	r7, [sp, #36]	; 0x24
    1550:	e55b3025 	ldrb	r3, [r11, #-37]	; 0xffffffdb
    1554:	e58d3028 	str	r3, [sp, #40]	; 0x28
    1558:	e55b3026 	ldrb	r3, [r11, #-38]	; 0xffffffda
    155c:	e58d302c 	str	r3, [sp, #44]	; 0x2c
    1560:	e55b3027 	ldrb	r3, [r11, #-39]	; 0xffffffd9
    1564:	e58d3030 	str	r3, [sp, #48]	; 0x30
    1568:	e3a00046 	mov	r0, #70	; 0x46
    156c:	e1a01009 	mov	r1, r9
    1570:	e1a0200a 	mov	r2, r10
    1574:	e1a03005 	mov	r3, r5
    1578:	ebfffe03 	bl	d8c <compute>
                    t_not,
                    sw1,
                    sw2,
                    ac);

            t = t + 0.1;
    157c:	e14b03d4 	ldrd	r0, [r11, #-52]	; 0xffffffcc
    1580:	e309299a 	movw	r2, #39322	; 0x999a
    1584:	e3492999 	movt	r2, #39321	; 0x9999
    1588:	e3093999 	movw	r3, #39321	; 0x9999
    158c:	e3433fb9 	movt	r3, #16313	; 0x3fb9
    1590:	eb0008f8 	bl	3978 <__adddf3>
    1594:	e14b03f4 	strd	r0, [r11, #-52]	; 0xffffffcc
    1598:	eaffffb9 	b	1484 <main+0xe8>

0000159c <cos>:
    159c:	e92d4030 	push	{r4, r5, lr}
    15a0:	e59fe0e0 	ldr	lr, [pc, #224]	; 1688 <cos+0xec>
    15a4:	e3c1c102 	bic	r12, r1, #-2147483648	; 0x80000000
    15a8:	e15c000e 	cmp	r12, lr
    15ac:	e24dd01c 	sub	sp, sp, #28
    15b0:	e1a02000 	mov	r2, r0
    15b4:	e1a03001 	mov	r3, r1
    15b8:	e1a04000 	mov	r4, r0
    15bc:	e1a05001 	mov	r5, r1
    15c0:	da000015 	ble	161c <cos+0x80>
    15c4:	e59fe0c0 	ldr	lr, [pc, #192]	; 168c <cos+0xf0>
    15c8:	e15c000e 	cmp	r12, lr
    15cc:	da000003 	ble	15e0 <cos+0x44>
    15d0:	eb0008e7 	bl	3974 <__aeabi_dsub>
    15d4:	e28dd01c 	add	sp, sp, #28
    15d8:	e8bd4030 	pop	{r4, r5, lr}
    15dc:	e12fff1e 	bx	lr
    15e0:	e28d2008 	add	r2, sp, #8
    15e4:	eb0001db 	bl	1d58 <__ieee754_rem_pio2>
    15e8:	e2000003 	and	r0, r0, #3
    15ec:	e3500001 	cmp	r0, #1
    15f0:	0a000014 	beq	1648 <cos+0xac>
    15f4:	e3500002 	cmp	r0, #2
    15f8:	0a00000b 	beq	162c <cos+0x90>
    15fc:	e3500000 	cmp	r0, #0
    1600:	1a000018 	bne	1668 <cos+0xcc>
    1604:	e28d1008 	add	r1, sp, #8
    1608:	e8910003 	ldm	r1, {r0, r1}
    160c:	e28d3010 	add	r3, sp, #16
    1610:	e893000c 	ldm	r3, {r2, r3}
    1614:	eb000365 	bl	23b0 <__kernel_cos>
    1618:	eaffffed 	b	15d4 <cos+0x38>
    161c:	e3a02000 	mov	r2, #0
    1620:	e3a03000 	mov	r3, #0
    1624:	eb000361 	bl	23b0 <__kernel_cos>
    1628:	eaffffe9 	b	15d4 <cos+0x38>
    162c:	e28d1008 	add	r1, sp, #8
    1630:	e8910003 	ldm	r1, {r0, r1}
    1634:	e28d3010 	add	r3, sp, #16
    1638:	e893000c 	ldm	r3, {r2, r3}
    163c:	eb00035b 	bl	23b0 <__kernel_cos>
    1640:	e2811102 	add	r1, r1, #-2147483648	; 0x80000000
    1644:	eaffffe2 	b	15d4 <cos+0x38>
    1648:	e58d0000 	str	r0, [sp]
    164c:	e28d3010 	add	r3, sp, #16
    1650:	e893000c 	ldm	r3, {r2, r3}
    1654:	e28d1008 	add	r1, sp, #8
    1658:	e8910003 	ldm	r1, {r0, r1}
    165c:	eb00070b 	bl	3290 <__kernel_sin>
    1660:	e2811102 	add	r1, r1, #-2147483648	; 0x80000000
    1664:	eaffffda 	b	15d4 <cos+0x38>
    1668:	e3a03001 	mov	r3, #1
    166c:	e58d3000 	str	r3, [sp]
    1670:	e28d1008 	add	r1, sp, #8
    1674:	e8910003 	ldm	r1, {r0, r1}
    1678:	e28d3010 	add	r3, sp, #16
    167c:	e893000c 	ldm	r3, {r2, r3}
    1680:	eb000702 	bl	3290 <__kernel_sin>
    1684:	eaffffd2 	b	15d4 <cos+0x38>
    1688:	3fe921fb 	.word	0x3fe921fb
    168c:	7fefffff 	.word	0x7fefffff

00001690 <sin>:
    1690:	e92d4030 	push	{r4, r5, lr}
    1694:	e59fe0ec 	ldr	lr, [pc, #236]	; 1788 <sin+0xf8>
    1698:	e3c1c102 	bic	r12, r1, #-2147483648	; 0x80000000
    169c:	e15c000e 	cmp	r12, lr
    16a0:	e24dd01c 	sub	sp, sp, #28
    16a4:	e1a02000 	mov	r2, r0
    16a8:	e1a03001 	mov	r3, r1
    16ac:	e1a04000 	mov	r4, r0
    16b0:	e1a05001 	mov	r5, r1
    16b4:	da000017 	ble	1718 <sin+0x88>
    16b8:	e59fe0cc 	ldr	lr, [pc, #204]	; 178c <sin+0xfc>
    16bc:	e15c000e 	cmp	r12, lr
    16c0:	da000003 	ble	16d4 <sin+0x44>
    16c4:	eb0008aa 	bl	3974 <__aeabi_dsub>
    16c8:	e28dd01c 	add	sp, sp, #28
    16cc:	e8bd4030 	pop	{r4, r5, lr}
    16d0:	e12fff1e 	bx	lr
    16d4:	e28d2008 	add	r2, sp, #8
    16d8:	eb00019e 	bl	1d58 <__ieee754_rem_pio2>
    16dc:	e2000003 	and	r0, r0, #3
    16e0:	e3500001 	cmp	r0, #1
    16e4:	0a00001a 	beq	1754 <sin+0xc4>
    16e8:	e3500002 	cmp	r0, #2
    16ec:	0a00000f 	beq	1730 <sin+0xa0>
    16f0:	e3500000 	cmp	r0, #0
    16f4:	1a00001c 	bne	176c <sin+0xdc>
    16f8:	e3a03001 	mov	r3, #1
    16fc:	e58d3000 	str	r3, [sp]
    1700:	e28d1008 	add	r1, sp, #8
    1704:	e8910003 	ldm	r1, {r0, r1}
    1708:	e28d3010 	add	r3, sp, #16
    170c:	e893000c 	ldm	r3, {r2, r3}
    1710:	eb0006de 	bl	3290 <__kernel_sin>
    1714:	eaffffeb 	b	16c8 <sin+0x38>
    1718:	e3a03000 	mov	r3, #0
    171c:	e58d3000 	str	r3, [sp]
    1720:	e3a02000 	mov	r2, #0
    1724:	e3a03000 	mov	r3, #0
    1728:	eb0006d8 	bl	3290 <__kernel_sin>
    172c:	eaffffe5 	b	16c8 <sin+0x38>
    1730:	e3a03001 	mov	r3, #1
    1734:	e58d3000 	str	r3, [sp]
    1738:	e28d1008 	add	r1, sp, #8
    173c:	e8910003 	ldm	r1, {r0, r1}
    1740:	e28d3010 	add	r3, sp, #16
    1744:	e893000c 	ldm	r3, {r2, r3}
    1748:	eb0006d0 	bl	3290 <__kernel_sin>
    174c:	e2811102 	add	r1, r1, #-2147483648	; 0x80000000
    1750:	eaffffdc 	b	16c8 <sin+0x38>
    1754:	e28d1008 	add	r1, sp, #8
    1758:	e8910003 	ldm	r1, {r0, r1}
    175c:	e28d3010 	add	r3, sp, #16
    1760:	e893000c 	ldm	r3, {r2, r3}
    1764:	eb000311 	bl	23b0 <__kernel_cos>
    1768:	eaffffd6 	b	16c8 <sin+0x38>
    176c:	e28d1008 	add	r1, sp, #8
    1770:	e8910003 	ldm	r1, {r0, r1}
    1774:	e28d3010 	add	r3, sp, #16
    1778:	e893000c 	ldm	r3, {r2, r3}
    177c:	eb00030b 	bl	23b0 <__kernel_cos>
    1780:	e2811102 	add	r1, r1, #-2147483648	; 0x80000000
    1784:	eaffffcf 	b	16c8 <sin+0x38>
    1788:	3fe921fb 	.word	0x3fe921fb
    178c:	7fefffff 	.word	0x7fefffff

00001790 <exp>:
    1790:	e92d41f0 	push	{r4, r5, r6, r7, r8, lr}
    1794:	e24dd028 	sub	sp, sp, #40	; 0x28
    1798:	e1a04000 	mov	r4, r0
    179c:	e1a05001 	mov	r5, r1
    17a0:	eb00005e 	bl	1920 <__ieee754_exp>
    17a4:	e59f8164 	ldr	r8, [pc, #356]	; 1910 <exp+0x180>
    17a8:	e1d830d0 	ldrsb	r3, [r8]
    17ac:	e3730001 	cmn	r3, #1
    17b0:	e1a06000 	mov	r6, r0
    17b4:	e1a07001 	mov	r7, r1
    17b8:	0a00002f 	beq	187c <exp+0xec>
    17bc:	e1a00004 	mov	r0, r4
    17c0:	e1a01005 	mov	r1, r5
    17c4:	eb00073b 	bl	34b8 <finite>
    17c8:	e3500000 	cmp	r0, #0
    17cc:	0a00002a 	beq	187c <exp+0xec>
    17d0:	e1a00004 	mov	r0, r4
    17d4:	e1a01005 	mov	r1, r5
    17d8:	e28f3e12 	add	r3, pc, #288	; 0x120
    17dc:	e893000c 	ldm	r3, {r2, r3}
    17e0:	eb000ada 	bl	4350 <__aeabi_dcmpgt>
    17e4:	e3500000 	cmp	r0, #0
    17e8:	1a000028 	bne	1890 <exp+0x100>
    17ec:	e1a00004 	mov	r0, r4
    17f0:	e1a01005 	mov	r1, r5
    17f4:	e28f3f43 	add	r3, pc, #268	; 0x10c
    17f8:	e893000c 	ldm	r3, {r2, r3}
    17fc:	eb000ac1 	bl	4308 <__aeabi_dcmplt>
    1800:	e3500000 	cmp	r0, #0
    1804:	0a00001c 	beq	187c <exp+0xec>
    1808:	e1d830d0 	ldrsb	r3, [r8]
    180c:	e3530002 	cmp	r3, #2
    1810:	e3a03004 	mov	r3, #4
    1814:	e58d3000 	str	r3, [sp]
    1818:	e59f30f4 	ldr	r3, [pc, #244]	; 1914 <exp+0x184>
    181c:	e58d3004 	str	r3, [sp, #4]
    1820:	e3a03000 	mov	r3, #0
    1824:	e58d3020 	str	r3, [sp, #32]
    1828:	e3a02000 	mov	r2, #0
    182c:	e3a03000 	mov	r3, #0
    1830:	e58d4010 	str	r4, [sp, #16]
    1834:	e58d5014 	str	r5, [sp, #20]
    1838:	e58d4008 	str	r4, [sp, #8]
    183c:	e58d500c 	str	r5, [sp, #12]
    1840:	e58d2018 	str	r2, [sp, #24]
    1844:	e58d301c 	str	r3, [sp, #28]
    1848:	0a000027 	beq	18ec <exp+0x15c>
    184c:	e1a0000d 	mov	r0, sp
    1850:	eb000782 	bl	3660 <matherr>
    1854:	e3500000 	cmp	r0, #0
    1858:	0a000023 	beq	18ec <exp+0x15c>
    185c:	e59d3020 	ldr	r3, [sp, #32]
    1860:	e3530000 	cmp	r3, #0
    1864:	0a000002 	beq	1874 <exp+0xe4>
    1868:	eb000cca 	bl	4b98 <__errno>
    186c:	e59d3020 	ldr	r3, [sp, #32]
    1870:	e5803000 	str	r3, [r0]
    1874:	e28d7018 	add	r7, sp, #24
    1878:	e89700c0 	ldm	r7, {r6, r7}
    187c:	e1a00006 	mov	r0, r6
    1880:	e1a01007 	mov	r1, r7
    1884:	e28dd028 	add	sp, sp, #40	; 0x28
    1888:	e8bd41f0 	pop	{r4, r5, r6, r7, r8, lr}
    188c:	e12fff1e 	bx	lr
    1890:	e3a02003 	mov	r2, #3
    1894:	e5d83000 	ldrb	r3, [r8]
    1898:	e58d2000 	str	r2, [sp]
    189c:	e59f2070 	ldr	r2, [pc, #112]	; 1914 <exp+0x184>
    18a0:	e3530000 	cmp	r3, #0
    18a4:	e58d2004 	str	r2, [sp, #4]
    18a8:	e3a02000 	mov	r2, #0
    18ac:	e58d2020 	str	r2, [sp, #32]
    18b0:	e58d4010 	str	r4, [sp, #16]
    18b4:	e58d5014 	str	r5, [sp, #20]
    18b8:	e58d4008 	str	r4, [sp, #8]
    18bc:	e58d500c 	str	r5, [sp, #12]
    18c0:	059f3050 	ldreq	r3, [pc, #80]	; 1918 <exp+0x188>
    18c4:	03a0220e 	moveq	r2, #-536870912	; 0xe0000000
    18c8:	058d2018 	streq	r2, [sp, #24]
    18cc:	058d301c 	streq	r3, [sp, #28]
    18d0:	0affffdd 	beq	184c <exp+0xbc>
    18d4:	e3530002 	cmp	r3, #2
    18d8:	e59f303c 	ldr	r3, [pc, #60]	; 191c <exp+0x18c>
    18dc:	e3a02000 	mov	r2, #0
    18e0:	e58d2018 	str	r2, [sp, #24]
    18e4:	e58d301c 	str	r3, [sp, #28]
    18e8:	1affffd7 	bne	184c <exp+0xbc>
    18ec:	eb000ca9 	bl	4b98 <__errno>
    18f0:	e3a03022 	mov	r3, #34	; 0x22
    18f4:	e5803000 	str	r3, [r0]
    18f8:	eaffffd7 	b	185c <exp+0xcc>
    18fc:	e1a00000 	nop			; (mov r0, r0)
    1900:	fefa39ef 	.word	0xfefa39ef
    1904:	40862e42 	.word	0x40862e42
    1908:	d52d3051 	.word	0xd52d3051
    190c:	c0874910 	.word	0xc0874910
    1910:	00005230 	.word	0x00005230
    1914:	00004fc0 	.word	0x00004fc0
    1918:	47efffff 	.word	0x47efffff
    191c:	7ff00000 	.word	0x7ff00000

00001920 <__ieee754_exp>:
    1920:	e92d4ff0 	push	{r4, r5, r6, r7, r8, r9, r10, r11, lr}
    1924:	e59fc40c 	ldr	r12, [pc, #1036]	; 1d38 <__ieee754_exp+0x418>
    1928:	e3c13102 	bic	r3, r1, #-2147483648	; 0x80000000
    192c:	e153000c 	cmp	r3, r12
    1930:	e24dd00c 	sub	sp, sp, #12
    1934:	e1a04000 	mov	r4, r0
    1938:	e1a05001 	mov	r5, r1
    193c:	e1a06fa1 	lsr	r6, r1, #31
    1940:	9a00000d 	bls	197c <__ieee754_exp+0x5c>
    1944:	e59fc3f0 	ldr	r12, [pc, #1008]	; 1d3c <__ieee754_exp+0x41c>
    1948:	e153000c 	cmp	r3, r12
    194c:	9a000020 	bls	19d4 <__ieee754_exp+0xb4>
    1950:	e3c1c4ff 	bic	r12, r1, #-16777216	; 0xff000000
    1954:	e3cc360f 	bic	r3, r12, #15728640	; 0xf00000
    1958:	e1933000 	orrs	r3, r3, r0
    195c:	1a0000b2 	bne	1c2c <__ieee754_exp+0x30c>
    1960:	e3560000 	cmp	r6, #0
    1964:	1a0000da 	bne	1cd4 <__ieee754_exp+0x3b4>
    1968:	e1a00004 	mov	r0, r4
    196c:	e1a01005 	mov	r1, r5
    1970:	e28dd00c 	add	sp, sp, #12
    1974:	e8bd4ff0 	pop	{r4, r5, r6, r7, r8, r9, r10, r11, lr}
    1978:	e12fff1e 	bx	lr
    197c:	e59f23bc 	ldr	r2, [pc, #956]	; 1d40 <__ieee754_exp+0x420>
    1980:	e1530002 	cmp	r3, r2
    1984:	8a000098 	bhi	1bec <__ieee754_exp+0x2cc>
    1988:	e59f23b4 	ldr	r2, [pc, #948]	; 1d44 <__ieee754_exp+0x424>
    198c:	e1530002 	cmp	r3, r2
    1990:	8a0000a3 	bhi	1c24 <__ieee754_exp+0x304>
    1994:	e28f3fd1 	add	r3, pc, #836	; 0x344
    1998:	e893000c 	ldm	r3, {r2, r3}
    199c:	eb0007f5 	bl	3978 <__adddf3>
    19a0:	e3a02000 	mov	r2, #0
    19a4:	e59f339c 	ldr	r3, [pc, #924]	; 1d48 <__ieee754_exp+0x428>
    19a8:	eb000a68 	bl	4350 <__aeabi_dcmpgt>
    19ac:	e3500000 	cmp	r0, #0
    19b0:	0a000038 	beq	1a98 <__ieee754_exp+0x178>
    19b4:	e1a00004 	mov	r0, r4
    19b8:	e1a01005 	mov	r1, r5
    19bc:	e3a02000 	mov	r2, #0
    19c0:	e59f3380 	ldr	r3, [pc, #896]	; 1d48 <__ieee754_exp+0x428>
    19c4:	eb0007eb 	bl	3978 <__adddf3>
    19c8:	e1a04000 	mov	r4, r0
    19cc:	e1a05001 	mov	r5, r1
    19d0:	eaffffe4 	b	1968 <__ieee754_exp+0x48>
    19d4:	e28f3fc3 	add	r3, pc, #780	; 0x30c
    19d8:	e893000c 	ldm	r3, {r2, r3}
    19dc:	eb000a5b 	bl	4350 <__aeabi_dcmpgt>
    19e0:	e3500000 	cmp	r0, #0
    19e4:	1a000096 	bne	1c44 <__ieee754_exp+0x324>
    19e8:	e1a00004 	mov	r0, r4
    19ec:	e1a01005 	mov	r1, r5
    19f0:	e28f3fbe 	add	r3, pc, #760	; 0x2f8
    19f4:	e893000c 	ldm	r3, {r2, r3}
    19f8:	eb000a42 	bl	4308 <__aeabi_dcmplt>
    19fc:	e3500000 	cmp	r0, #0
    1a00:	1a0000b3 	bne	1cd4 <__ieee754_exp+0x3b4>
    1a04:	e28f3fbb 	add	r3, pc, #748	; 0x2ec
    1a08:	e893000c 	ldm	r3, {r2, r3}
    1a0c:	e1a00004 	mov	r0, r4
    1a10:	e1a01005 	mov	r1, r5
    1a14:	eb0008db 	bl	3d88 <__aeabi_dmul>
    1a18:	e59f332c 	ldr	r3, [pc, #812]	; 1d4c <__ieee754_exp+0x42c>
    1a1c:	e0836186 	add	r6, r3, r6, lsl #3
    1a20:	e2863020 	add	r3, r6, #32
    1a24:	e893000c 	ldm	r3, {r2, r3}
    1a28:	eb0007d2 	bl	3978 <__adddf3>
    1a2c:	eb000a4d 	bl	4368 <__aeabi_d2iz>
    1a30:	e1a08000 	mov	r8, r0
    1a34:	eb00089c 	bl	3cac <__aeabi_i2d>
    1a38:	e28f3d0b 	add	r3, pc, #704	; 0x2c0
    1a3c:	e893000c 	ldm	r3, {r2, r3}
    1a40:	e1a06000 	mov	r6, r0
    1a44:	e1a07001 	mov	r7, r1
    1a48:	eb0008ce 	bl	3d88 <__aeabi_dmul>
    1a4c:	e1a02000 	mov	r2, r0
    1a50:	e1a03001 	mov	r3, r1
    1a54:	e1a00004 	mov	r0, r4
    1a58:	e1a01005 	mov	r1, r5
    1a5c:	eb0007c4 	bl	3974 <__aeabi_dsub>
    1a60:	e28f3e2a 	add	r3, pc, #672	; 0x2a0
    1a64:	e893000c 	ldm	r3, {r2, r3}
    1a68:	e88d0003 	stm	sp, {r0, r1}
    1a6c:	e1a00006 	mov	r0, r6
    1a70:	e1a01007 	mov	r1, r7
    1a74:	eb0008c3 	bl	3d88 <__aeabi_dmul>
    1a78:	e1a0a000 	mov	r10, r0
    1a7c:	e1a0b001 	mov	r11, r1
    1a80:	e89d0003 	ldm	sp, {r0, r1}
    1a84:	e1a0200a 	mov	r2, r10
    1a88:	e1a0300b 	mov	r3, r11
    1a8c:	eb0007b8 	bl	3974 <__aeabi_dsub>
    1a90:	e1a04000 	mov	r4, r0
    1a94:	e1a05001 	mov	r5, r1
    1a98:	e1a02004 	mov	r2, r4
    1a9c:	e1a03005 	mov	r3, r5
    1aa0:	e1a00004 	mov	r0, r4
    1aa4:	e1a01005 	mov	r1, r5
    1aa8:	eb0008b6 	bl	3d88 <__aeabi_dmul>
    1aac:	e28f3f97 	add	r3, pc, #604	; 0x25c
    1ab0:	e893000c 	ldm	r3, {r2, r3}
    1ab4:	e1a06000 	mov	r6, r0
    1ab8:	e1a07001 	mov	r7, r1
    1abc:	eb0008b1 	bl	3d88 <__aeabi_dmul>
    1ac0:	e28f3e25 	add	r3, pc, #592	; 0x250
    1ac4:	e893000c 	ldm	r3, {r2, r3}
    1ac8:	eb0007a9 	bl	3974 <__aeabi_dsub>
    1acc:	e1a02006 	mov	r2, r6
    1ad0:	e1a03007 	mov	r3, r7
    1ad4:	eb0008ab 	bl	3d88 <__aeabi_dmul>
    1ad8:	e28f3d09 	add	r3, pc, #576	; 0x240
    1adc:	e893000c 	ldm	r3, {r2, r3}
    1ae0:	eb0007a4 	bl	3978 <__adddf3>
    1ae4:	e1a02006 	mov	r2, r6
    1ae8:	e1a03007 	mov	r3, r7
    1aec:	eb0008a5 	bl	3d88 <__aeabi_dmul>
    1af0:	e28f3e23 	add	r3, pc, #560	; 0x230
    1af4:	e893000c 	ldm	r3, {r2, r3}
    1af8:	eb00079d 	bl	3974 <__aeabi_dsub>
    1afc:	e1a02006 	mov	r2, r6
    1b00:	e1a03007 	mov	r3, r7
    1b04:	eb00089f 	bl	3d88 <__aeabi_dmul>
    1b08:	e28f3e22 	add	r3, pc, #544	; 0x220
    1b0c:	e893000c 	ldm	r3, {r2, r3}
    1b10:	eb000798 	bl	3978 <__adddf3>
    1b14:	e1a02006 	mov	r2, r6
    1b18:	e1a03007 	mov	r3, r7
    1b1c:	eb000899 	bl	3d88 <__aeabi_dmul>
    1b20:	e1a02000 	mov	r2, r0
    1b24:	e1a03001 	mov	r3, r1
    1b28:	e1a00004 	mov	r0, r4
    1b2c:	e1a01005 	mov	r1, r5
    1b30:	eb00078f 	bl	3974 <__aeabi_dsub>
    1b34:	e3580000 	cmp	r8, #0
    1b38:	e1a06000 	mov	r6, r0
    1b3c:	e1a07001 	mov	r7, r1
    1b40:	0a000047 	beq	1c64 <__ieee754_exp+0x344>
    1b44:	e1a02000 	mov	r2, r0
    1b48:	e1a03001 	mov	r3, r1
    1b4c:	e1a00004 	mov	r0, r4
    1b50:	e1a01005 	mov	r1, r5
    1b54:	eb00088b 	bl	3d88 <__aeabi_dmul>
    1b58:	e1a02006 	mov	r2, r6
    1b5c:	e1a04000 	mov	r4, r0
    1b60:	e1a05001 	mov	r5, r1
    1b64:	e1a03007 	mov	r3, r7
    1b68:	e3a00000 	mov	r0, #0
    1b6c:	e3a01101 	mov	r1, #1073741824	; 0x40000000
    1b70:	eb00077f 	bl	3974 <__aeabi_dsub>
    1b74:	e1a02000 	mov	r2, r0
    1b78:	e1a03001 	mov	r3, r1
    1b7c:	e1a00004 	mov	r0, r4
    1b80:	e1a01005 	mov	r1, r5
    1b84:	eb000923 	bl	4018 <__aeabi_ddiv>
    1b88:	e1a02000 	mov	r2, r0
    1b8c:	e1a03001 	mov	r3, r1
    1b90:	e1a0000a 	mov	r0, r10
    1b94:	e1a0100b 	mov	r1, r11
    1b98:	eb000775 	bl	3974 <__aeabi_dsub>
    1b9c:	e89d000c 	ldm	sp, {r2, r3}
    1ba0:	eb000773 	bl	3974 <__aeabi_dsub>
    1ba4:	e1a03001 	mov	r3, r1
    1ba8:	e1a02000 	mov	r2, r0
    1bac:	e59f1194 	ldr	r1, [pc, #404]	; 1d48 <__ieee754_exp+0x428>
    1bb0:	e3a00000 	mov	r0, #0
    1bb4:	eb00076e 	bl	3974 <__aeabi_dsub>
    1bb8:	e3e03fff 	mvn	r3, #1020	; 0x3fc
    1bbc:	e1580003 	cmp	r8, r3
    1bc0:	a1a04000 	movge	r4, r0
    1bc4:	a0815a08 	addge	r5, r1, r8, lsl #20
    1bc8:	aaffff66 	bge	1968 <__ieee754_exp+0x48>
    1bcc:	e2888ffa 	add	r8, r8, #1000	; 0x3e8
    1bd0:	e0811a08 	add	r1, r1, r8, lsl #20
    1bd4:	e3a02000 	mov	r2, #0
    1bd8:	e3a03617 	mov	r3, #24117248	; 0x1700000
    1bdc:	eb000869 	bl	3d88 <__aeabi_dmul>
    1be0:	e1a04000 	mov	r4, r0
    1be4:	e1a05001 	mov	r5, r1
    1be8:	eaffff5e 	b	1968 <__ieee754_exp+0x48>
    1bec:	e59f215c 	ldr	r2, [pc, #348]	; 1d50 <__ieee754_exp+0x430>
    1bf0:	e1530002 	cmp	r3, r2
    1bf4:	8affff82 	bhi	1a04 <__ieee754_exp+0xe4>
    1bf8:	e59f414c 	ldr	r4, [pc, #332]	; 1d4c <__ieee754_exp+0x42c>
    1bfc:	e0844186 	add	r4, r4, r6, lsl #3
    1c00:	e894000c 	ldm	r4, {r2, r3}
    1c04:	eb00075a 	bl	3974 <__aeabi_dsub>
    1c08:	e2668000 	rsb	r8, r6, #0
    1c0c:	e0668008 	rsb	r8, r6, r8
    1c10:	e88d0003 	stm	sp, {r0, r1}
    1c14:	e284b010 	add	r11, r4, #16
    1c18:	e89b0c00 	ldm	r11, {r10, r11}
    1c1c:	e2888001 	add	r8, r8, #1
    1c20:	eaffff96 	b	1a80 <__ieee754_exp+0x160>
    1c24:	e3a08000 	mov	r8, #0
    1c28:	eaffff9a 	b	1a98 <__ieee754_exp+0x178>
    1c2c:	e1a02000 	mov	r2, r0
    1c30:	e1a03001 	mov	r3, r1
    1c34:	eb00074f 	bl	3978 <__adddf3>
    1c38:	e1a04000 	mov	r4, r0
    1c3c:	e1a05001 	mov	r5, r1
    1c40:	eaffff48 	b	1968 <__ieee754_exp+0x48>
    1c44:	e28f1094 	add	r1, pc, #148	; 0x94
    1c48:	e8910003 	ldm	r1, {r0, r1}
    1c4c:	e1a02000 	mov	r2, r0
    1c50:	e1a03001 	mov	r3, r1
    1c54:	eb00084b 	bl	3d88 <__aeabi_dmul>
    1c58:	e1a04000 	mov	r4, r0
    1c5c:	e1a05001 	mov	r5, r1
    1c60:	eaffff40 	b	1968 <__ieee754_exp+0x48>
    1c64:	e1a00004 	mov	r0, r4
    1c68:	e1a01005 	mov	r1, r5
    1c6c:	e1a02006 	mov	r2, r6
    1c70:	e1a03007 	mov	r3, r7
    1c74:	eb000843 	bl	3d88 <__aeabi_dmul>
    1c78:	e3a02000 	mov	r2, #0
    1c7c:	e1a08000 	mov	r8, r0
    1c80:	e1a09001 	mov	r9, r1
    1c84:	e3a03101 	mov	r3, #1073741824	; 0x40000000
    1c88:	e1a00006 	mov	r0, r6
    1c8c:	e1a01007 	mov	r1, r7
    1c90:	eb000737 	bl	3974 <__aeabi_dsub>
    1c94:	e1a02000 	mov	r2, r0
    1c98:	e1a03001 	mov	r3, r1
    1c9c:	e1a00008 	mov	r0, r8
    1ca0:	e1a01009 	mov	r1, r9
    1ca4:	eb0008db 	bl	4018 <__aeabi_ddiv>
    1ca8:	e1a02004 	mov	r2, r4
    1cac:	e1a03005 	mov	r3, r5
    1cb0:	eb00072f 	bl	3974 <__aeabi_dsub>
    1cb4:	e1a02000 	mov	r2, r0
    1cb8:	e1a03001 	mov	r3, r1
    1cbc:	e3a00000 	mov	r0, #0
    1cc0:	e59f1080 	ldr	r1, [pc, #128]	; 1d48 <__ieee754_exp+0x428>
    1cc4:	eb00072a 	bl	3974 <__aeabi_dsub>
    1cc8:	e1a04000 	mov	r4, r0
    1ccc:	e1a05001 	mov	r5, r1
    1cd0:	eaffff24 	b	1968 <__ieee754_exp+0x48>
    1cd4:	e3a04000 	mov	r4, #0
    1cd8:	e3a05000 	mov	r5, #0
    1cdc:	eaffff21 	b	1968 <__ieee754_exp+0x48>
    1ce0:	8800759c 	.word	0x8800759c
    1ce4:	7e37e43c 	.word	0x7e37e43c
    1ce8:	fefa39ef 	.word	0xfefa39ef
    1cec:	40862e42 	.word	0x40862e42
    1cf0:	d52d3051 	.word	0xd52d3051
    1cf4:	c0874910 	.word	0xc0874910
    1cf8:	652b82fe 	.word	0x652b82fe
    1cfc:	3ff71547 	.word	0x3ff71547
    1d00:	fee00000 	.word	0xfee00000
    1d04:	3fe62e42 	.word	0x3fe62e42
    1d08:	35793c76 	.word	0x35793c76
    1d0c:	3dea39ef 	.word	0x3dea39ef
    1d10:	72bea4d0 	.word	0x72bea4d0
    1d14:	3e663769 	.word	0x3e663769
    1d18:	c5d26bf1 	.word	0xc5d26bf1
    1d1c:	3ebbbd41 	.word	0x3ebbbd41
    1d20:	af25de2c 	.word	0xaf25de2c
    1d24:	3f11566a 	.word	0x3f11566a
    1d28:	16bebd93 	.word	0x16bebd93
    1d2c:	3f66c16c 	.word	0x3f66c16c
    1d30:	5555553e 	.word	0x5555553e
    1d34:	3fc55555 	.word	0x3fc55555
    1d38:	40862e41 	.word	0x40862e41
    1d3c:	7fefffff 	.word	0x7fefffff
    1d40:	3fd62e42 	.word	0x3fd62e42
    1d44:	3e2fffff 	.word	0x3e2fffff
    1d48:	3ff00000 	.word	0x3ff00000
    1d4c:	00004fc8 	.word	0x00004fc8
    1d50:	3ff0a2b1 	.word	0x3ff0a2b1
    1d54:	e1a00000 	nop			; (mov r0, r0)

00001d58 <__ieee754_rem_pio2>:
    1d58:	e92d4ff0 	push	{r4, r5, r6, r7, r8, r9, r10, r11, lr}
    1d5c:	e59fc3bc 	ldr	r12, [pc, #956]	; 2120 <__ieee754_rem_pio2+0x3c8>
    1d60:	e3c17102 	bic	r7, r1, #-2147483648	; 0x80000000
    1d64:	e157000c 	cmp	r7, r12
    1d68:	e24dd03c 	sub	sp, sp, #60	; 0x3c
    1d6c:	e1a04000 	mov	r4, r0
    1d70:	e1a05001 	mov	r5, r1
    1d74:	e1a0a000 	mov	r10, r0
    1d78:	e1a0b001 	mov	r11, r1
    1d7c:	e1a08002 	mov	r8, r2
    1d80:	da00005b 	ble	1ef4 <__ieee754_rem_pio2+0x19c>
    1d84:	e59f2398 	ldr	r2, [pc, #920]	; 2124 <__ieee754_rem_pio2+0x3cc>
    1d88:	e1570002 	cmp	r7, r2
    1d8c:	e1a09001 	mov	r9, r1
    1d90:	ca000019 	bgt	1dfc <__ieee754_rem_pio2+0xa4>
    1d94:	e3510000 	cmp	r1, #0
    1d98:	e28f3fd6 	add	r3, pc, #856	; 0x358
    1d9c:	e893000c 	ldm	r3, {r2, r3}
    1da0:	da000149 	ble	22cc <__ieee754_rem_pio2+0x574>
    1da4:	eb0006f2 	bl	3974 <__aeabi_dsub>
    1da8:	e59f3378 	ldr	r3, [pc, #888]	; 2128 <__ieee754_rem_pio2+0x3d0>
    1dac:	e1570003 	cmp	r7, r3
    1db0:	e1a0a000 	mov	r10, r0
    1db4:	e1a0b001 	mov	r11, r1
    1db8:	0a00005f 	beq	1f3c <__ieee754_rem_pio2+0x1e4>
    1dbc:	e28f3fcf 	add	r3, pc, #828	; 0x33c
    1dc0:	e893000c 	ldm	r3, {r2, r3}
    1dc4:	eb0006ea 	bl	3974 <__aeabi_dsub>
    1dc8:	e1a02000 	mov	r2, r0
    1dcc:	e1a03001 	mov	r3, r1
    1dd0:	e8880003 	stm	r8, {r0, r1}
    1dd4:	e1a0000a 	mov	r0, r10
    1dd8:	e1a0100b 	mov	r1, r11
    1ddc:	eb0006e4 	bl	3974 <__aeabi_dsub>
    1de0:	e28f3fc6 	add	r3, pc, #792	; 0x318
    1de4:	e893000c 	ldm	r3, {r2, r3}
    1de8:	eb0006e1 	bl	3974 <__aeabi_dsub>
    1dec:	e3a06001 	mov	r6, #1
    1df0:	e5880008 	str	r0, [r8, #8]
    1df4:	e588100c 	str	r1, [r8, #12]
    1df8:	ea000043 	b	1f0c <__ieee754_rem_pio2+0x1b4>
    1dfc:	e59f3328 	ldr	r3, [pc, #808]	; 212c <__ieee754_rem_pio2+0x3d4>
    1e00:	e1570003 	cmp	r7, r3
    1e04:	da000075 	ble	1fe0 <__ieee754_rem_pio2+0x288>
    1e08:	e59f3320 	ldr	r3, [pc, #800]	; 2130 <__ieee754_rem_pio2+0x3d8>
    1e0c:	e1570003 	cmp	r7, r3
    1e10:	ca000041 	bgt	1f1c <__ieee754_rem_pio2+0x1c4>
    1e14:	e1a0aa47 	asr	r10, r7, #20
    1e18:	e24aae41 	sub	r10, r10, #1040	; 0x410
    1e1c:	e24aa006 	sub	r10, r10, #6
    1e20:	e0475a0a 	sub	r5, r7, r10, lsl #20
    1e24:	e1a01005 	mov	r1, r5
    1e28:	e1a04000 	mov	r4, r0
    1e2c:	eb00094d 	bl	4368 <__aeabi_d2iz>
    1e30:	eb00079d 	bl	3cac <__aeabi_i2d>
    1e34:	e1a06000 	mov	r6, r0
    1e38:	e1a07001 	mov	r7, r1
    1e3c:	e1a02000 	mov	r2, r0
    1e40:	e1a03001 	mov	r3, r1
    1e44:	e1a00004 	mov	r0, r4
    1e48:	e1a01005 	mov	r1, r5
    1e4c:	e58d6020 	str	r6, [sp, #32]
    1e50:	e58d7024 	str	r7, [sp, #36]	; 0x24
    1e54:	eb0006c6 	bl	3974 <__aeabi_dsub>
    1e58:	e3a02000 	mov	r2, #0
    1e5c:	e59f32d0 	ldr	r3, [pc, #720]	; 2134 <__ieee754_rem_pio2+0x3dc>
    1e60:	eb0007c8 	bl	3d88 <__aeabi_dmul>
    1e64:	e1a06000 	mov	r6, r0
    1e68:	e1a07001 	mov	r7, r1
    1e6c:	eb00093d 	bl	4368 <__aeabi_d2iz>
    1e70:	eb00078d 	bl	3cac <__aeabi_i2d>
    1e74:	e1a02000 	mov	r2, r0
    1e78:	e1a03001 	mov	r3, r1
    1e7c:	e1a04000 	mov	r4, r0
    1e80:	e1a05001 	mov	r5, r1
    1e84:	e1a00006 	mov	r0, r6
    1e88:	e1a01007 	mov	r1, r7
    1e8c:	e58d4028 	str	r4, [sp, #40]	; 0x28
    1e90:	e58d502c 	str	r5, [sp, #44]	; 0x2c
    1e94:	eb0006b6 	bl	3974 <__aeabi_dsub>
    1e98:	e3a02000 	mov	r2, #0
    1e9c:	e59f3290 	ldr	r3, [pc, #656]	; 2134 <__ieee754_rem_pio2+0x3dc>
    1ea0:	eb0007b8 	bl	3d88 <__aeabi_dmul>
    1ea4:	e3a02000 	mov	r2, #0
    1ea8:	e3a03000 	mov	r3, #0
    1eac:	e58d0030 	str	r0, [sp, #48]	; 0x30
    1eb0:	e58d1034 	str	r1, [sp, #52]	; 0x34
    1eb4:	eb00090d 	bl	42f0 <__aeabi_dcmpeq>
    1eb8:	e3500000 	cmp	r0, #0
    1ebc:	03a06003 	moveq	r6, #3
    1ec0:	0a000032 	beq	1f90 <__ieee754_rem_pio2+0x238>
    1ec4:	e28d7028 	add	r7, sp, #40	; 0x28
    1ec8:	e3a06003 	mov	r6, #3
    1ecc:	e1a00004 	mov	r0, r4
    1ed0:	e1a01005 	mov	r1, r5
    1ed4:	e3a02000 	mov	r2, #0
    1ed8:	e3a03000 	mov	r3, #0
    1edc:	eb000903 	bl	42f0 <__aeabi_dcmpeq>
    1ee0:	e3500000 	cmp	r0, #0
    1ee4:	e2466001 	sub	r6, r6, #1
    1ee8:	0a000028 	beq	1f90 <__ieee754_rem_pio2+0x238>
    1eec:	e9370003 	ldmdb	r7!, {r0, r1}
    1ef0:	eafffff7 	b	1ed4 <__ieee754_rem_pio2+0x17c>
    1ef4:	e8820030 	stm	r2, {r4, r5}
    1ef8:	e3a03000 	mov	r3, #0
    1efc:	e3a02000 	mov	r2, #0
    1f00:	e5882008 	str	r2, [r8, #8]
    1f04:	e588300c 	str	r3, [r8, #12]
    1f08:	e3a06000 	mov	r6, #0
    1f0c:	e1a00006 	mov	r0, r6
    1f10:	e28dd03c 	add	sp, sp, #60	; 0x3c
    1f14:	e8bd4ff0 	pop	{r4, r5, r6, r7, r8, r9, r10, r11, lr}
    1f18:	e12fff1e 	bx	lr
    1f1c:	e1a02000 	mov	r2, r0
    1f20:	e1a03001 	mov	r3, r1
    1f24:	eb000692 	bl	3974 <__aeabi_dsub>
    1f28:	e3a06000 	mov	r6, #0
    1f2c:	e5880008 	str	r0, [r8, #8]
    1f30:	e588100c 	str	r1, [r8, #12]
    1f34:	e8880003 	stm	r8, {r0, r1}
    1f38:	eafffff3 	b	1f0c <__ieee754_rem_pio2+0x1b4>
    1f3c:	e28f3f71 	add	r3, pc, #452	; 0x1c4
    1f40:	e893000c 	ldm	r3, {r2, r3}
    1f44:	eb00068a 	bl	3974 <__aeabi_dsub>
    1f48:	e28f3d07 	add	r3, pc, #448	; 0x1c0
    1f4c:	e893000c 	ldm	r3, {r2, r3}
    1f50:	e1a06000 	mov	r6, r0
    1f54:	e1a07001 	mov	r7, r1
    1f58:	eb000685 	bl	3974 <__aeabi_dsub>
    1f5c:	e1a02000 	mov	r2, r0
    1f60:	e1a03001 	mov	r3, r1
    1f64:	e8880003 	stm	r8, {r0, r1}
    1f68:	e1a00006 	mov	r0, r6
    1f6c:	e1a01007 	mov	r1, r7
    1f70:	eb00067f 	bl	3974 <__aeabi_dsub>
    1f74:	e28f3f65 	add	r3, pc, #404	; 0x194
    1f78:	e893000c 	ldm	r3, {r2, r3}
    1f7c:	eb00067c 	bl	3974 <__aeabi_dsub>
    1f80:	e3a06001 	mov	r6, #1
    1f84:	e5880008 	str	r0, [r8, #8]
    1f88:	e588100c 	str	r1, [r8, #12]
    1f8c:	eaffffde 	b	1f0c <__ieee754_rem_pio2+0x1b4>
    1f90:	e3a03002 	mov	r3, #2
    1f94:	e58d3000 	str	r3, [sp]
    1f98:	e59f3198 	ldr	r3, [pc, #408]	; 2138 <__ieee754_rem_pio2+0x3e0>
    1f9c:	e28d0020 	add	r0, sp, #32
    1fa0:	e58d3004 	str	r3, [sp, #4]
    1fa4:	e1a01008 	mov	r1, r8
    1fa8:	e1a03006 	mov	r3, r6
    1fac:	e1a0200a 	mov	r2, r10
    1fb0:	eb0001d0 	bl	26f8 <__kernel_rem_pio2>
    1fb4:	e3590000 	cmp	r9, #0
    1fb8:	e1a06000 	mov	r6, r0
    1fbc:	aaffffd2 	bge	1f0c <__ieee754_rem_pio2+0x1b4>
    1fc0:	e5982004 	ldr	r2, [r8, #4]
    1fc4:	e598300c 	ldr	r3, [r8, #12]
    1fc8:	e2822102 	add	r2, r2, #-2147483648	; 0x80000000
    1fcc:	e2833102 	add	r3, r3, #-2147483648	; 0x80000000
    1fd0:	e5882004 	str	r2, [r8, #4]
    1fd4:	e588300c 	str	r3, [r8, #12]
    1fd8:	e2606000 	rsb	r6, r0, #0
    1fdc:	eaffffca 	b	1f0c <__ieee754_rem_pio2+0x1b4>
    1fe0:	eb000532 	bl	34b0 <fabs>
    1fe4:	e28f3f4b 	add	r3, pc, #300	; 0x12c
    1fe8:	e893000c 	ldm	r3, {r2, r3}
    1fec:	e1a04000 	mov	r4, r0
    1ff0:	e1a05001 	mov	r5, r1
    1ff4:	eb000763 	bl	3d88 <__aeabi_dmul>
    1ff8:	e3a02000 	mov	r2, #0
    1ffc:	e59f3138 	ldr	r3, [pc, #312]	; 213c <__ieee754_rem_pio2+0x3e4>
    2000:	eb00065c 	bl	3978 <__adddf3>
    2004:	eb0008d7 	bl	4368 <__aeabi_d2iz>
    2008:	e1a06000 	mov	r6, r0
    200c:	eb000726 	bl	3cac <__aeabi_i2d>
    2010:	e28f30e0 	add	r3, pc, #224	; 0xe0
    2014:	e893000c 	ldm	r3, {r2, r3}
    2018:	e58d0010 	str	r0, [sp, #16]
    201c:	e58d1014 	str	r1, [sp, #20]
    2020:	eb000758 	bl	3d88 <__aeabi_dmul>
    2024:	e1a02000 	mov	r2, r0
    2028:	e1a03001 	mov	r3, r1
    202c:	e1a00004 	mov	r0, r4
    2030:	e1a01005 	mov	r1, r5
    2034:	eb00064e 	bl	3974 <__aeabi_dsub>
    2038:	e28f30c0 	add	r3, pc, #192	; 0xc0
    203c:	e893000c 	ldm	r3, {r2, r3}
    2040:	e1a0a000 	mov	r10, r0
    2044:	e1a0b001 	mov	r11, r1
    2048:	e28d1010 	add	r1, sp, #16
    204c:	e8910003 	ldm	r1, {r0, r1}
    2050:	eb00074c 	bl	3d88 <__aeabi_dmul>
    2054:	e356001f 	cmp	r6, #31
    2058:	e58d0008 	str	r0, [sp, #8]
    205c:	e58d100c 	str	r1, [sp, #12]
    2060:	e1a0000a 	mov	r0, r10
    2064:	e1a0100b 	mov	r1, r11
    2068:	ca000035 	bgt	2144 <__ieee754_rem_pio2+0x3ec>
    206c:	e59f30cc 	ldr	r3, [pc, #204]	; 2140 <__ieee754_rem_pio2+0x3e8>
    2070:	e2462001 	sub	r2, r6, #1
    2074:	e7933102 	ldr	r3, [r3, r2, lsl #2]
    2078:	e1530007 	cmp	r3, r7
    207c:	0a000030 	beq	2144 <__ieee754_rem_pio2+0x3ec>
    2080:	e28d3008 	add	r3, sp, #8
    2084:	e893000c 	ldm	r3, {r2, r3}
    2088:	eb000639 	bl	3974 <__aeabi_dsub>
    208c:	e1a02000 	mov	r2, r0
    2090:	e1a03001 	mov	r3, r1
    2094:	e888000c 	stm	r8, {r2, r3}
    2098:	e1a05000 	mov	r5, r0
    209c:	e1a04001 	mov	r4, r1
    20a0:	e1a02005 	mov	r2, r5
    20a4:	e1a03004 	mov	r3, r4
    20a8:	e1a0000a 	mov	r0, r10
    20ac:	e1a0100b 	mov	r1, r11
    20b0:	eb00062f 	bl	3974 <__aeabi_dsub>
    20b4:	e28d3008 	add	r3, sp, #8
    20b8:	e893000c 	ldm	r3, {r2, r3}
    20bc:	eb00062c 	bl	3974 <__aeabi_dsub>
    20c0:	e3590000 	cmp	r9, #0
    20c4:	e1a02000 	mov	r2, r0
    20c8:	e1a03001 	mov	r3, r1
    20cc:	e5882008 	str	r2, [r8, #8]
    20d0:	e588300c 	str	r3, [r8, #12]
    20d4:	aaffff8c 	bge	1f0c <__ieee754_rem_pio2+0x1b4>
    20d8:	e2844102 	add	r4, r4, #-2147483648	; 0x80000000
    20dc:	e2811102 	add	r1, r1, #-2147483648	; 0x80000000
    20e0:	e5885000 	str	r5, [r8]
    20e4:	e5884004 	str	r4, [r8, #4]
    20e8:	e5880008 	str	r0, [r8, #8]
    20ec:	e588100c 	str	r1, [r8, #12]
    20f0:	e2666000 	rsb	r6, r6, #0
    20f4:	eaffff84 	b	1f0c <__ieee754_rem_pio2+0x1b4>
    20f8:	54400000 	.word	0x54400000
    20fc:	3ff921fb 	.word	0x3ff921fb
    2100:	1a626331 	.word	0x1a626331
    2104:	3dd0b461 	.word	0x3dd0b461
    2108:	1a600000 	.word	0x1a600000
    210c:	3dd0b461 	.word	0x3dd0b461
    2110:	2e037073 	.word	0x2e037073
    2114:	3ba3198a 	.word	0x3ba3198a
    2118:	6dc9c883 	.word	0x6dc9c883
    211c:	3fe45f30 	.word	0x3fe45f30
    2120:	3fe921fb 	.word	0x3fe921fb
    2124:	4002d97b 	.word	0x4002d97b
    2128:	3ff921fb 	.word	0x3ff921fb
    212c:	413921fb 	.word	0x413921fb
    2130:	7fefffff 	.word	0x7fefffff
    2134:	41700000 	.word	0x41700000
    2138:	00005078 	.word	0x00005078
    213c:	3fe00000 	.word	0x3fe00000
    2140:	00004ff8 	.word	0x00004ff8
    2144:	e28d3008 	add	r3, sp, #8
    2148:	e893000c 	ldm	r3, {r2, r3}
    214c:	eb000608 	bl	3974 <__aeabi_dsub>
    2150:	e1a07a47 	asr	r7, r7, #20
    2154:	e1a04001 	mov	r4, r1
    2158:	e1a01081 	lsl	r1, r1, #1
    215c:	e1a05000 	mov	r5, r0
    2160:	e0471aa1 	sub	r1, r7, r1, lsr #21
    2164:	e1a02005 	mov	r2, r5
    2168:	e1a03004 	mov	r3, r4
    216c:	e3510010 	cmp	r1, #16
    2170:	e888000c 	stm	r8, {r2, r3}
    2174:	daffffc9 	ble	20a0 <__ieee754_rem_pio2+0x348>
    2178:	e28f3f82 	add	r3, pc, #520	; 0x208
    217c:	e893000c 	ldm	r3, {r2, r3}
    2180:	e28d1010 	add	r1, sp, #16
    2184:	e8910003 	ldm	r1, {r0, r1}
    2188:	eb0006fe 	bl	3d88 <__aeabi_dmul>
    218c:	e1a04000 	mov	r4, r0
    2190:	e1a05001 	mov	r5, r1
    2194:	e1a02004 	mov	r2, r4
    2198:	e1a03005 	mov	r3, r5
    219c:	e1a0000a 	mov	r0, r10
    21a0:	e1a0100b 	mov	r1, r11
    21a4:	eb0005f2 	bl	3974 <__aeabi_dsub>
    21a8:	e58d0018 	str	r0, [sp, #24]
    21ac:	e58d101c 	str	r1, [sp, #28]
    21b0:	e28d3018 	add	r3, sp, #24
    21b4:	e893000c 	ldm	r3, {r2, r3}
    21b8:	e1a0000a 	mov	r0, r10
    21bc:	e1a0100b 	mov	r1, r11
    21c0:	eb0005eb 	bl	3974 <__aeabi_dsub>
    21c4:	e1a02004 	mov	r2, r4
    21c8:	e1a03005 	mov	r3, r5
    21cc:	eb0005e8 	bl	3974 <__aeabi_dsub>
    21d0:	e28f3f6e 	add	r3, pc, #440	; 0x1b8
    21d4:	e893000c 	ldm	r3, {r2, r3}
    21d8:	e1a04000 	mov	r4, r0
    21dc:	e1a05001 	mov	r5, r1
    21e0:	e28d1010 	add	r1, sp, #16
    21e4:	e8910003 	ldm	r1, {r0, r1}
    21e8:	eb0006e6 	bl	3d88 <__aeabi_dmul>
    21ec:	e1a02004 	mov	r2, r4
    21f0:	e1a03005 	mov	r3, r5
    21f4:	eb0005de 	bl	3974 <__aeabi_dsub>
    21f8:	e58d0008 	str	r0, [sp, #8]
    21fc:	e58d100c 	str	r1, [sp, #12]
    2200:	e28d3008 	add	r3, sp, #8
    2204:	e893000c 	ldm	r3, {r2, r3}
    2208:	e28d1018 	add	r1, sp, #24
    220c:	e8910003 	ldm	r1, {r0, r1}
    2210:	eb0005d7 	bl	3974 <__aeabi_dsub>
    2214:	e1a04001 	mov	r4, r1
    2218:	e1a01081 	lsl	r1, r1, #1
    221c:	e1a05000 	mov	r5, r0
    2220:	e0477aa1 	sub	r7, r7, r1, lsr #21
    2224:	e1a02005 	mov	r2, r5
    2228:	e1a03004 	mov	r3, r4
    222c:	e3570031 	cmp	r7, #49	; 0x31
    2230:	e888000c 	stm	r8, {r2, r3}
    2234:	da00004f 	ble	2378 <__ieee754_rem_pio2+0x620>
    2238:	e3a0242e 	mov	r2, #771751936	; 0x2e000000
    223c:	e59f3164 	ldr	r3, [pc, #356]	; 23a8 <__ieee754_rem_pio2+0x650>
    2240:	e28d1010 	add	r1, sp, #16
    2244:	e8910003 	ldm	r1, {r0, r1}
    2248:	eb0006ce 	bl	3d88 <__aeabi_dmul>
    224c:	e1a04000 	mov	r4, r0
    2250:	e1a05001 	mov	r5, r1
    2254:	e1a02004 	mov	r2, r4
    2258:	e1a03005 	mov	r3, r5
    225c:	e28d1018 	add	r1, sp, #24
    2260:	e8910003 	ldm	r1, {r0, r1}
    2264:	eb0005c2 	bl	3974 <__aeabi_dsub>
    2268:	e1a0a000 	mov	r10, r0
    226c:	e1a0b001 	mov	r11, r1
    2270:	e1a0200a 	mov	r2, r10
    2274:	e1a0300b 	mov	r3, r11
    2278:	e28d1018 	add	r1, sp, #24
    227c:	e8910003 	ldm	r1, {r0, r1}
    2280:	eb0005bb 	bl	3974 <__aeabi_dsub>
    2284:	e1a02004 	mov	r2, r4
    2288:	e1a03005 	mov	r3, r5
    228c:	eb0005b8 	bl	3974 <__aeabi_dsub>
    2290:	e28f3c01 	add	r3, pc, #256	; 0x100
    2294:	e893000c 	ldm	r3, {r2, r3}
    2298:	e1a04000 	mov	r4, r0
    229c:	e1a05001 	mov	r5, r1
    22a0:	e28d1010 	add	r1, sp, #16
    22a4:	e8910003 	ldm	r1, {r0, r1}
    22a8:	eb0006b6 	bl	3d88 <__aeabi_dmul>
    22ac:	e1a02004 	mov	r2, r4
    22b0:	e1a03005 	mov	r3, r5
    22b4:	eb0005ae 	bl	3974 <__aeabi_dsub>
    22b8:	e58d0008 	str	r0, [sp, #8]
    22bc:	e58d100c 	str	r1, [sp, #12]
    22c0:	e1a0000a 	mov	r0, r10
    22c4:	e1a0100b 	mov	r1, r11
    22c8:	eaffff6c 	b	2080 <__ieee754_rem_pio2+0x328>
    22cc:	eb0005a9 	bl	3978 <__adddf3>
    22d0:	e59f30d4 	ldr	r3, [pc, #212]	; 23ac <__ieee754_rem_pio2+0x654>
    22d4:	e1570003 	cmp	r7, r3
    22d8:	e1a0a000 	mov	r10, r0
    22dc:	e1a0b001 	mov	r11, r1
    22e0:	0a00000f 	beq	2324 <__ieee754_rem_pio2+0x5cc>
    22e4:	e28f30b4 	add	r3, pc, #180	; 0xb4
    22e8:	e893000c 	ldm	r3, {r2, r3}
    22ec:	eb0005a1 	bl	3978 <__adddf3>
    22f0:	e1a02000 	mov	r2, r0
    22f4:	e1a03001 	mov	r3, r1
    22f8:	e8880003 	stm	r8, {r0, r1}
    22fc:	e1a0000a 	mov	r0, r10
    2300:	e1a0100b 	mov	r1, r11
    2304:	eb00059a 	bl	3974 <__aeabi_dsub>
    2308:	e28f3090 	add	r3, pc, #144	; 0x90
    230c:	e893000c 	ldm	r3, {r2, r3}
    2310:	eb000598 	bl	3978 <__adddf3>
    2314:	e3e06000 	mvn	r6, #0
    2318:	e5880008 	str	r0, [r8, #8]
    231c:	e588100c 	str	r1, [r8, #12]
    2320:	eafffef9 	b	1f0c <__ieee754_rem_pio2+0x1b4>
    2324:	e28f305c 	add	r3, pc, #92	; 0x5c
    2328:	e893000c 	ldm	r3, {r2, r3}
    232c:	eb000591 	bl	3978 <__adddf3>
    2330:	e28f3058 	add	r3, pc, #88	; 0x58
    2334:	e893000c 	ldm	r3, {r2, r3}
    2338:	e1a06000 	mov	r6, r0
    233c:	e1a07001 	mov	r7, r1
    2340:	eb00058c 	bl	3978 <__adddf3>
    2344:	e1a02000 	mov	r2, r0
    2348:	e1a03001 	mov	r3, r1
    234c:	e8880003 	stm	r8, {r0, r1}
    2350:	e1a00006 	mov	r0, r6
    2354:	e1a01007 	mov	r1, r7
    2358:	eb000585 	bl	3974 <__aeabi_dsub>
    235c:	e28f302c 	add	r3, pc, #44	; 0x2c
    2360:	e893000c 	ldm	r3, {r2, r3}
    2364:	eb000583 	bl	3978 <__adddf3>
    2368:	e3e06000 	mvn	r6, #0
    236c:	e5880008 	str	r0, [r8, #8]
    2370:	e588100c 	str	r1, [r8, #12]
    2374:	eafffee4 	b	1f0c <__ieee754_rem_pio2+0x1b4>
    2378:	e28db018 	add	r11, sp, #24
    237c:	e89b0c00 	ldm	r11, {r10, r11}
    2380:	eaffff46 	b	20a0 <__ieee754_rem_pio2+0x348>
    2384:	e1a00000 	nop			; (mov r0, r0)
    2388:	1a600000 	.word	0x1a600000
    238c:	3dd0b461 	.word	0x3dd0b461
    2390:	2e037073 	.word	0x2e037073
    2394:	3ba3198a 	.word	0x3ba3198a
    2398:	252049c1 	.word	0x252049c1
    239c:	397b839a 	.word	0x397b839a
    23a0:	1a626331 	.word	0x1a626331
    23a4:	3dd0b461 	.word	0x3dd0b461
    23a8:	3ba3198a 	.word	0x3ba3198a
    23ac:	3ff921fb 	.word	0x3ff921fb

000023b0 <__kernel_cos>:
    23b0:	e92d4ff0 	push	{r4, r5, r6, r7, r8, r9, r10, r11, lr}
    23b4:	e3c19102 	bic	r9, r1, #-2147483648	; 0x80000000
    23b8:	e35905f9 	cmp	r9, #1044381696	; 0x3e400000
    23bc:	e24dd014 	sub	sp, sp, #20
    23c0:	e1a06000 	mov	r6, r0
    23c4:	e1a07001 	mov	r7, r1
    23c8:	e1a04000 	mov	r4, r0
    23cc:	e1a05001 	mov	r5, r1
    23d0:	e1a0a002 	mov	r10, r2
    23d4:	e1a0b003 	mov	r11, r3
    23d8:	aa00004d 	bge	2514 <__kernel_cos+0x164>
    23dc:	eb0007e1 	bl	4368 <__aeabi_d2iz>
    23e0:	e3500000 	cmp	r0, #0
    23e4:	0a0000ae 	beq	26a4 <__kernel_cos+0x2f4>
    23e8:	e1a02006 	mov	r2, r6
    23ec:	e1a03007 	mov	r3, r7
    23f0:	e1a00006 	mov	r0, r6
    23f4:	e1a01007 	mov	r1, r7
    23f8:	eb000662 	bl	3d88 <__aeabi_dmul>
    23fc:	e28f3fab 	add	r3, pc, #684	; 0x2ac
    2400:	e893000c 	ldm	r3, {r2, r3}
    2404:	e1a04000 	mov	r4, r0
    2408:	e1a05001 	mov	r5, r1
    240c:	eb00065d 	bl	3d88 <__aeabi_dmul>
    2410:	e28f3e2a 	add	r3, pc, #672	; 0x2a0
    2414:	e893000c 	ldm	r3, {r2, r3}
    2418:	eb000556 	bl	3978 <__adddf3>
    241c:	e1a02004 	mov	r2, r4
    2420:	e1a03005 	mov	r3, r5
    2424:	eb000657 	bl	3d88 <__aeabi_dmul>
    2428:	e28f3e29 	add	r3, pc, #656	; 0x290
    242c:	e893000c 	ldm	r3, {r2, r3}
    2430:	eb00054f 	bl	3974 <__aeabi_dsub>
    2434:	e1a02004 	mov	r2, r4
    2438:	e1a03005 	mov	r3, r5
    243c:	eb000651 	bl	3d88 <__aeabi_dmul>
    2440:	e28f3d0a 	add	r3, pc, #640	; 0x280
    2444:	e893000c 	ldm	r3, {r2, r3}
    2448:	eb00054a 	bl	3978 <__adddf3>
    244c:	e1a02004 	mov	r2, r4
    2450:	e1a03005 	mov	r3, r5
    2454:	eb00064b 	bl	3d88 <__aeabi_dmul>
    2458:	e28f3e27 	add	r3, pc, #624	; 0x270
    245c:	e893000c 	ldm	r3, {r2, r3}
    2460:	eb000543 	bl	3974 <__aeabi_dsub>
    2464:	e1a02004 	mov	r2, r4
    2468:	e1a03005 	mov	r3, r5
    246c:	eb000645 	bl	3d88 <__aeabi_dmul>
    2470:	e28f3e26 	add	r3, pc, #608	; 0x260
    2474:	e893000c 	ldm	r3, {r2, r3}
    2478:	eb00053e 	bl	3978 <__adddf3>
    247c:	e1a02004 	mov	r2, r4
    2480:	e1a03005 	mov	r3, r5
    2484:	eb00063f 	bl	3d88 <__aeabi_dmul>
    2488:	e88d0003 	stm	sp, {r0, r1}
    248c:	e1a00004 	mov	r0, r4
    2490:	e1a01005 	mov	r1, r5
    2494:	e3a02000 	mov	r2, #0
    2498:	e59f3240 	ldr	r3, [pc, #576]	; 26e0 <__kernel_cos+0x330>
    249c:	eb000639 	bl	3d88 <__aeabi_dmul>
    24a0:	e89d000c 	ldm	sp, {r2, r3}
    24a4:	e1a08000 	mov	r8, r0
    24a8:	e1a09001 	mov	r9, r1
    24ac:	e1a00004 	mov	r0, r4
    24b0:	e1a01005 	mov	r1, r5
    24b4:	eb000633 	bl	3d88 <__aeabi_dmul>
    24b8:	e1a0200a 	mov	r2, r10
    24bc:	e1a04000 	mov	r4, r0
    24c0:	e1a05001 	mov	r5, r1
    24c4:	e1a0300b 	mov	r3, r11
    24c8:	e1a00006 	mov	r0, r6
    24cc:	e1a01007 	mov	r1, r7
    24d0:	eb00062c 	bl	3d88 <__aeabi_dmul>
    24d4:	e1a02000 	mov	r2, r0
    24d8:	e1a03001 	mov	r3, r1
    24dc:	e1a00004 	mov	r0, r4
    24e0:	e1a01005 	mov	r1, r5
    24e4:	eb000522 	bl	3974 <__aeabi_dsub>
    24e8:	e1a02000 	mov	r2, r0
    24ec:	e1a03001 	mov	r3, r1
    24f0:	e1a00008 	mov	r0, r8
    24f4:	e1a01009 	mov	r1, r9
    24f8:	eb00051d 	bl	3974 <__aeabi_dsub>
    24fc:	e1a02000 	mov	r2, r0
    2500:	e1a03001 	mov	r3, r1
    2504:	e3a00000 	mov	r0, #0
    2508:	e59f11d4 	ldr	r1, [pc, #468]	; 26e4 <__kernel_cos+0x334>
    250c:	eb000518 	bl	3974 <__aeabi_dsub>
    2510:	ea00005a 	b	2680 <__kernel_cos+0x2d0>
    2514:	e1a02000 	mov	r2, r0
    2518:	e1a03001 	mov	r3, r1
    251c:	eb000619 	bl	3d88 <__aeabi_dmul>
    2520:	e28f3f62 	add	r3, pc, #392	; 0x188
    2524:	e893000c 	ldm	r3, {r2, r3}
    2528:	e1a04000 	mov	r4, r0
    252c:	e1a05001 	mov	r5, r1
    2530:	eb000614 	bl	3d88 <__aeabi_dmul>
    2534:	e28f3f5f 	add	r3, pc, #380	; 0x17c
    2538:	e893000c 	ldm	r3, {r2, r3}
    253c:	eb00050d 	bl	3978 <__adddf3>
    2540:	e1a02004 	mov	r2, r4
    2544:	e1a03005 	mov	r3, r5
    2548:	eb00060e 	bl	3d88 <__aeabi_dmul>
    254c:	e28f3f5b 	add	r3, pc, #364	; 0x16c
    2550:	e893000c 	ldm	r3, {r2, r3}
    2554:	eb000506 	bl	3974 <__aeabi_dsub>
    2558:	e1a02004 	mov	r2, r4
    255c:	e1a03005 	mov	r3, r5
    2560:	eb000608 	bl	3d88 <__aeabi_dmul>
    2564:	e28f3f57 	add	r3, pc, #348	; 0x15c
    2568:	e893000c 	ldm	r3, {r2, r3}
    256c:	eb000501 	bl	3978 <__adddf3>
    2570:	e1a02004 	mov	r2, r4
    2574:	e1a03005 	mov	r3, r5
    2578:	eb000602 	bl	3d88 <__aeabi_dmul>
    257c:	e28f3f53 	add	r3, pc, #332	; 0x14c
    2580:	e893000c 	ldm	r3, {r2, r3}
    2584:	eb0004fa 	bl	3974 <__aeabi_dsub>
    2588:	e1a02004 	mov	r2, r4
    258c:	e1a03005 	mov	r3, r5
    2590:	eb0005fc 	bl	3d88 <__aeabi_dmul>
    2594:	e28f3f4f 	add	r3, pc, #316	; 0x13c
    2598:	e893000c 	ldm	r3, {r2, r3}
    259c:	eb0004f5 	bl	3978 <__adddf3>
    25a0:	e1a03005 	mov	r3, r5
    25a4:	e1a02004 	mov	r2, r4
    25a8:	eb0005f6 	bl	3d88 <__aeabi_dmul>
    25ac:	e59f3134 	ldr	r3, [pc, #308]	; 26e8 <__kernel_cos+0x338>
    25b0:	e1590003 	cmp	r9, r3
    25b4:	e88d0003 	stm	sp, {r0, r1}
    25b8:	daffffb3 	ble	248c <__kernel_cos+0xdc>
    25bc:	e59f3128 	ldr	r3, [pc, #296]	; 26ec <__kernel_cos+0x33c>
    25c0:	e1590003 	cmp	r9, r3
    25c4:	e3a02000 	mov	r2, #0
    25c8:	ca00002f 	bgt	268c <__kernel_cos+0x2dc>
    25cc:	e2493602 	sub	r3, r9, #2097152	; 0x200000
    25d0:	e3a02000 	mov	r2, #0
    25d4:	e3a00000 	mov	r0, #0
    25d8:	e59f1104 	ldr	r1, [pc, #260]	; 26e4 <__kernel_cos+0x334>
    25dc:	e1a08002 	mov	r8, r2
    25e0:	e1a09003 	mov	r9, r3
    25e4:	eb0004e2 	bl	3974 <__aeabi_dsub>
    25e8:	e58d0008 	str	r0, [sp, #8]
    25ec:	e58d100c 	str	r1, [sp, #12]
    25f0:	e1a00004 	mov	r0, r4
    25f4:	e1a01005 	mov	r1, r5
    25f8:	e3a02000 	mov	r2, #0
    25fc:	e59f30dc 	ldr	r3, [pc, #220]	; 26e0 <__kernel_cos+0x330>
    2600:	eb0005e0 	bl	3d88 <__aeabi_dmul>
    2604:	e1a02008 	mov	r2, r8
    2608:	e1a03009 	mov	r3, r9
    260c:	eb0004d8 	bl	3974 <__aeabi_dsub>
    2610:	e89d000c 	ldm	sp, {r2, r3}
    2614:	e1a08000 	mov	r8, r0
    2618:	e1a09001 	mov	r9, r1
    261c:	e1a00004 	mov	r0, r4
    2620:	e1a01005 	mov	r1, r5
    2624:	eb0005d7 	bl	3d88 <__aeabi_dmul>
    2628:	e1a0200a 	mov	r2, r10
    262c:	e1a04000 	mov	r4, r0
    2630:	e1a05001 	mov	r5, r1
    2634:	e1a0300b 	mov	r3, r11
    2638:	e1a00006 	mov	r0, r6
    263c:	e1a01007 	mov	r1, r7
    2640:	eb0005d0 	bl	3d88 <__aeabi_dmul>
    2644:	e1a02000 	mov	r2, r0
    2648:	e1a03001 	mov	r3, r1
    264c:	e1a00004 	mov	r0, r4
    2650:	e1a01005 	mov	r1, r5
    2654:	eb0004c6 	bl	3974 <__aeabi_dsub>
    2658:	e1a02000 	mov	r2, r0
    265c:	e1a03001 	mov	r3, r1
    2660:	e1a00008 	mov	r0, r8
    2664:	e1a01009 	mov	r1, r9
    2668:	eb0004c1 	bl	3974 <__aeabi_dsub>
    266c:	e1a02000 	mov	r2, r0
    2670:	e1a03001 	mov	r3, r1
    2674:	e28d1008 	add	r1, sp, #8
    2678:	e8910003 	ldm	r1, {r0, r1}
    267c:	eb0004bc 	bl	3974 <__aeabi_dsub>
    2680:	e28dd014 	add	sp, sp, #20
    2684:	e8bd4ff0 	pop	{r4, r5, r6, r7, r8, r9, r10, r11, lr}
    2688:	e12fff1e 	bx	lr
    268c:	e59f305c 	ldr	r3, [pc, #92]	; 26f0 <__kernel_cos+0x340>
    2690:	e3a08000 	mov	r8, #0
    2694:	e58d2008 	str	r2, [sp, #8]
    2698:	e58d300c 	str	r3, [sp, #12]
    269c:	e59f9050 	ldr	r9, [pc, #80]	; 26f4 <__kernel_cos+0x344>
    26a0:	eaffffd2 	b	25f0 <__kernel_cos+0x240>
    26a4:	e3a00000 	mov	r0, #0
    26a8:	e59f1034 	ldr	r1, [pc, #52]	; 26e4 <__kernel_cos+0x334>
    26ac:	eafffff3 	b	2680 <__kernel_cos+0x2d0>
    26b0:	be8838d4 	.word	0xbe8838d4
    26b4:	bda8fae9 	.word	0xbda8fae9
    26b8:	bdb4b1c4 	.word	0xbdb4b1c4
    26bc:	3e21ee9e 	.word	0x3e21ee9e
    26c0:	809c52ad 	.word	0x809c52ad
    26c4:	3e927e4f 	.word	0x3e927e4f
    26c8:	19cb1590 	.word	0x19cb1590
    26cc:	3efa01a0 	.word	0x3efa01a0
    26d0:	16c15177 	.word	0x16c15177
    26d4:	3f56c16c 	.word	0x3f56c16c
    26d8:	5555554c 	.word	0x5555554c
    26dc:	3fa55555 	.word	0x3fa55555
    26e0:	3fe00000 	.word	0x3fe00000
    26e4:	3ff00000 	.word	0x3ff00000
    26e8:	3fd33332 	.word	0x3fd33332
    26ec:	3fe90000 	.word	0x3fe90000
    26f0:	3fe70000 	.word	0x3fe70000
    26f4:	3fd20000 	.word	0x3fd20000

000026f8 <__kernel_rem_pio2>:
    26f8:	e92d4ff0 	push	{r4, r5, r6, r7, r8, r9, r10, r11, lr}
    26fc:	e59feb6c 	ldr	lr, [pc, #2924]	; 3270 <__kernel_rem_pio2+0xb78>
    2700:	e242c003 	sub	r12, r2, #3
    2704:	e0ce4e9c 	smull	r4, lr, r12, lr
    2708:	e1a0cfcc 	asr	r12, r12, #31
    270c:	e06cc14e 	rsb	r12, r12, lr, asr #2
    2710:	e24ddf99 	sub	sp, sp, #612	; 0x264
    2714:	e1cccfcc 	bic	r12, r12, r12, asr #31
    2718:	e58dc028 	str	r12, [sp, #40]	; 0x28
    271c:	e1a0b003 	mov	r11, r3
    2720:	e59dc288 	ldr	r12, [sp, #648]	; 0x288
    2724:	e59f3b48 	ldr	r3, [pc, #2888]	; 3274 <__kernel_rem_pio2+0xb7c>
    2728:	e793310c 	ldr	r3, [r3, r12, lsl #2]
    272c:	e59dc028 	ldr	r12, [sp, #40]	; 0x28
    2730:	e58d3020 	str	r3, [sp, #32]
    2734:	e59de020 	ldr	lr, [sp, #32]
    2738:	e1e0300c 	mvn	r3, r12
    273c:	e24b4001 	sub	r4, r11, #1
    2740:	e0833083 	add	r3, r3, r3, lsl #1
    2744:	e58d0010 	str	r0, [sp, #16]
    2748:	e59d0028 	ldr	r0, [sp, #40]	; 0x28
    274c:	e0823183 	add	r3, r2, r3, lsl #3
    2750:	e094c00e 	adds	r12, r4, lr
    2754:	e58d400c 	str	r4, [sp, #12]
    2758:	e58d101c 	str	r1, [sp, #28]
    275c:	e58d3018 	str	r3, [sp, #24]
    2760:	e0646000 	rsb	r6, r4, r0
    2764:	4a000012 	bmi	27b4 <__kernel_rem_pio2+0xbc>
    2768:	e086c00c 	add	r12, r6, r12
    276c:	e28c4001 	add	r4, r12, #1
    2770:	e59dc28c 	ldr	r12, [sp, #652]	; 0x28c
    2774:	e28d8080 	add	r8, sp, #128	; 0x80
    2778:	e08c5106 	add	r5, r12, r6, lsl #2
    277c:	e3a07000 	mov	r7, #0
    2780:	ea000006 	b	27a0 <__kernel_rem_pio2+0xa8>
    2784:	e7950007 	ldr	r0, [r5, r7]
    2788:	eb000547 	bl	3cac <__aeabi_i2d>
    278c:	e2866001 	add	r6, r6, #1
    2790:	e1560004 	cmp	r6, r4
    2794:	e8a80003 	stmia	r8!, {r0, r1}
    2798:	e2877004 	add	r7, r7, #4
    279c:	0a000004 	beq	27b4 <__kernel_rem_pio2+0xbc>
    27a0:	e3560000 	cmp	r6, #0
    27a4:	aafffff6 	bge	2784 <__kernel_rem_pio2+0x8c>
    27a8:	e3a00000 	mov	r0, #0
    27ac:	e3a01000 	mov	r1, #0
    27b0:	eafffff5 	b	278c <__kernel_rem_pio2+0x94>
    27b4:	e59d4020 	ldr	r4, [sp, #32]
    27b8:	e3540000 	cmp	r4, #0
    27bc:	ba000020 	blt	2844 <__kernel_rem_pio2+0x14c>
    27c0:	e59d4020 	ldr	r4, [sp, #32]
    27c4:	e28dcf72 	add	r12, sp, #456	; 0x1c8
    27c8:	e08cc184 	add	r12, r12, r4, lsl #3
    27cc:	e58dc004 	str	r12, [sp, #4]
    27d0:	e28dad07 	add	r10, sp, #448	; 0x1c0
    27d4:	e1a0800b 	mov	r8, r11
    27d8:	e59dc00c 	ldr	r12, [sp, #12]
    27dc:	e35c0000 	cmp	r12, #0
    27e0:	ba000130 	blt	2ca8 <__kernel_rem_pio2+0x5b0>
    27e4:	e28de080 	add	lr, sp, #128	; 0x80
    27e8:	e59d9010 	ldr	r9, [sp, #16]
    27ec:	e08e7188 	add	r7, lr, r8, lsl #3
    27f0:	e3a04000 	mov	r4, #0
    27f4:	e3a05000 	mov	r5, #0
    27f8:	e3a06000 	mov	r6, #0
    27fc:	e937000c 	ldmdb	r7!, {r2, r3}
    2800:	e8b90003 	ldm	r9!, {r0, r1}
    2804:	eb00055f 	bl	3d88 <__aeabi_dmul>
    2808:	e1a02000 	mov	r2, r0
    280c:	e1a03001 	mov	r3, r1
    2810:	e1a00004 	mov	r0, r4
    2814:	e1a01005 	mov	r1, r5
    2818:	eb000456 	bl	3978 <__adddf3>
    281c:	e2866001 	add	r6, r6, #1
    2820:	e156000b 	cmp	r6, r11
    2824:	e1a04000 	mov	r4, r0
    2828:	e1a05001 	mov	r5, r1
    282c:	1afffff2 	bne	27fc <__kernel_rem_pio2+0x104>
    2830:	e8aa0030 	stmia	r10!, {r4, r5}
    2834:	e59d4004 	ldr	r4, [sp, #4]
    2838:	e15a0004 	cmp	r10, r4
    283c:	e2888001 	add	r8, r8, #1
    2840:	1affffe4 	bne	27d8 <__kernel_rem_pio2+0xe0>
    2844:	e59dc020 	ldr	r12, [sp, #32]
    2848:	e28d4030 	add	r4, sp, #48	; 0x30
    284c:	e084410c 	add	r4, r4, r12, lsl #2
    2850:	e58d402c 	str	r4, [sp, #44]	; 0x2c
    2854:	e58dc004 	str	r12, [sp, #4]
    2858:	e59d4004 	ldr	r4, [sp, #4]
    285c:	e28dce26 	add	r12, sp, #608	; 0x260
    2860:	e1a0a184 	lsl	r10, r4, #3
    2864:	e08c300a 	add	r3, r12, r10
    2868:	e3540000 	cmp	r4, #0
    286c:	e24350a0 	sub	r5, r3, #160	; 0xa0
    2870:	e8950030 	ldm	r5, {r4, r5}
    2874:	da00001f 	ble	28f8 <__kernel_rem_pio2+0x200>
    2878:	e59dc004 	ldr	r12, [sp, #4]
    287c:	e28d802c 	add	r8, sp, #44	; 0x2c
    2880:	e28ded07 	add	lr, sp, #448	; 0x1c0
    2884:	e08ea00a 	add	r10, lr, r10
    2888:	e088910c 	add	r9, r8, r12, lsl #2
    288c:	e3a02000 	mov	r2, #0
    2890:	e59f39e0 	ldr	r3, [pc, #2528]	; 3278 <__kernel_rem_pio2+0xb80>
    2894:	e1a00004 	mov	r0, r4
    2898:	e1a01005 	mov	r1, r5
    289c:	eb000539 	bl	3d88 <__aeabi_dmul>
    28a0:	eb0006b0 	bl	4368 <__aeabi_d2iz>
    28a4:	eb000500 	bl	3cac <__aeabi_i2d>
    28a8:	e3a02000 	mov	r2, #0
    28ac:	e59f39c8 	ldr	r3, [pc, #2504]	; 327c <__kernel_rem_pio2+0xb84>
    28b0:	e1a06000 	mov	r6, r0
    28b4:	e1a07001 	mov	r7, r1
    28b8:	eb000532 	bl	3d88 <__aeabi_dmul>
    28bc:	e1a02000 	mov	r2, r0
    28c0:	e1a03001 	mov	r3, r1
    28c4:	e1a00004 	mov	r0, r4
    28c8:	e1a01005 	mov	r1, r5
    28cc:	eb000428 	bl	3974 <__aeabi_dsub>
    28d0:	eb0006a4 	bl	4368 <__aeabi_d2iz>
    28d4:	e1a02006 	mov	r2, r6
    28d8:	e5a80004 	str	r0, [r8, #4]!
    28dc:	e1a03007 	mov	r3, r7
    28e0:	e93a0003 	ldmdb	r10!, {r0, r1}
    28e4:	eb000423 	bl	3978 <__adddf3>
    28e8:	e1580009 	cmp	r8, r9
    28ec:	e1a04000 	mov	r4, r0
    28f0:	e1a05001 	mov	r5, r1
    28f4:	1affffe4 	bne	288c <__kernel_rem_pio2+0x194>
    28f8:	e59d2018 	ldr	r2, [sp, #24]
    28fc:	e1a00004 	mov	r0, r4
    2900:	e1a01005 	mov	r1, r5
    2904:	eb000357 	bl	3668 <scalbn>
    2908:	e3a02000 	mov	r2, #0
    290c:	e3a035ff 	mov	r3, #1069547520	; 0x3fc00000
    2910:	e1a04000 	mov	r4, r0
    2914:	e1a05001 	mov	r5, r1
    2918:	eb00051a 	bl	3d88 <__aeabi_dmul>
    291c:	eb0002e9 	bl	34c8 <floor>
    2920:	e3a02000 	mov	r2, #0
    2924:	e59f3954 	ldr	r3, [pc, #2388]	; 3280 <__kernel_rem_pio2+0xb88>
    2928:	eb000516 	bl	3d88 <__aeabi_dmul>
    292c:	e1a02000 	mov	r2, r0
    2930:	e1a03001 	mov	r3, r1
    2934:	e1a00004 	mov	r0, r4
    2938:	e1a01005 	mov	r1, r5
    293c:	eb00040c 	bl	3974 <__aeabi_dsub>
    2940:	e1a04000 	mov	r4, r0
    2944:	e1a05001 	mov	r5, r1
    2948:	eb000686 	bl	4368 <__aeabi_d2iz>
    294c:	e1a08000 	mov	r8, r0
    2950:	eb0004d5 	bl	3cac <__aeabi_i2d>
    2954:	e1a02000 	mov	r2, r0
    2958:	e1a03001 	mov	r3, r1
    295c:	e1a00004 	mov	r0, r4
    2960:	e1a01005 	mov	r1, r5
    2964:	eb000402 	bl	3974 <__aeabi_dsub>
    2968:	e59d4018 	ldr	r4, [sp, #24]
    296c:	e3540000 	cmp	r4, #0
    2970:	e1a06000 	mov	r6, r0
    2974:	e1a07001 	mov	r7, r1
    2978:	da0000ad 	ble	2c34 <__kernel_rem_pio2+0x53c>
    297c:	e59dc004 	ldr	r12, [sp, #4]
    2980:	e28dee26 	add	lr, sp, #608	; 0x260
    2984:	e24c2001 	sub	r2, r12, #1
    2988:	e08e2102 	add	r2, lr, r2, lsl #2
    298c:	e5120230 	ldr	r0, [r2, #-560]	; 0xfffffdd0
    2990:	e2643018 	rsb	r3, r4, #24
    2994:	e1a01350 	asr	r1, r0, r3
    2998:	e0403311 	sub	r3, r0, r1, lsl r3
    299c:	e2645017 	rsb	r5, r4, #23
    29a0:	e1a05553 	asr	r5, r3, r5
    29a4:	e5023230 	str	r3, [r2, #-560]	; 0xfffffdd0
    29a8:	e0888001 	add	r8, r8, r1
    29ac:	e3550000 	cmp	r5, #0
    29b0:	da000027 	ble	2a54 <__kernel_rem_pio2+0x35c>
    29b4:	e59d4004 	ldr	r4, [sp, #4]
    29b8:	e3540000 	cmp	r4, #0
    29bc:	e2888001 	add	r8, r8, #1
    29c0:	da0000b6 	ble	2ca0 <__kernel_rem_pio2+0x5a8>
    29c4:	e28d3030 	add	r3, sp, #48	; 0x30
    29c8:	e0830104 	add	r0, r3, r4, lsl #2
    29cc:	e3a04000 	mov	r4, #0
    29d0:	ea000005 	b	29ec <__kernel_rem_pio2+0x2f4>
    29d4:	e3520000 	cmp	r2, #0
    29d8:	12622401 	rsbne	r2, r2, #16777216	; 0x1000000
    29dc:	15032004 	strne	r2, [r3, #-4]
    29e0:	13a04001 	movne	r4, #1
    29e4:	e1530000 	cmp	r3, r0
    29e8:	0a000008 	beq	2a10 <__kernel_rem_pio2+0x318>
    29ec:	e3540000 	cmp	r4, #0
    29f0:	e4932004 	ldr	r2, [r3], #4
    29f4:	0afffff6 	beq	29d4 <__kernel_rem_pio2+0x2dc>
    29f8:	e3e014ff 	mvn	r1, #-16777216	; 0xff000000
    29fc:	e0621001 	rsb	r1, r2, r1
    2a00:	e1530000 	cmp	r3, r0
    2a04:	e5031004 	str	r1, [r3, #-4]
    2a08:	e3a04001 	mov	r4, #1
    2a0c:	1afffff6 	bne	29ec <__kernel_rem_pio2+0x2f4>
    2a10:	e59dc018 	ldr	r12, [sp, #24]
    2a14:	e35c0000 	cmp	r12, #0
    2a18:	da00000b 	ble	2a4c <__kernel_rem_pio2+0x354>
    2a1c:	e35c0001 	cmp	r12, #1
    2a20:	0a00008a 	beq	2c50 <__kernel_rem_pio2+0x558>
    2a24:	e35c0002 	cmp	r12, #2
    2a28:	1a000007 	bne	2a4c <__kernel_rem_pio2+0x354>
    2a2c:	e59dc004 	ldr	r12, [sp, #4]
    2a30:	e28dee26 	add	lr, sp, #608	; 0x260
    2a34:	e24c3001 	sub	r3, r12, #1
    2a38:	e08e3103 	add	r3, lr, r3, lsl #2
    2a3c:	e5132230 	ldr	r2, [r3, #-560]	; 0xfffffdd0
    2a40:	e3c224ff 	bic	r2, r2, #-16777216	; 0xff000000
    2a44:	e3c22503 	bic	r2, r2, #12582912	; 0xc00000
    2a48:	e5032230 	str	r2, [r3, #-560]	; 0xfffffdd0
    2a4c:	e3550002 	cmp	r5, #2
    2a50:	0a000062 	beq	2be0 <__kernel_rem_pio2+0x4e8>
    2a54:	e1a00006 	mov	r0, r6
    2a58:	e1a01007 	mov	r1, r7
    2a5c:	e3a02000 	mov	r2, #0
    2a60:	e3a03000 	mov	r3, #0
    2a64:	eb000621 	bl	42f0 <__aeabi_dcmpeq>
    2a68:	e3500000 	cmp	r0, #0
    2a6c:	0a000090 	beq	2cb4 <__kernel_rem_pio2+0x5bc>
    2a70:	e59d4004 	ldr	r4, [sp, #4]
    2a74:	e59dc020 	ldr	r12, [sp, #32]
    2a78:	e2440001 	sub	r0, r4, #1
    2a7c:	e15c0000 	cmp	r12, r0
    2a80:	ca000009 	bgt	2aac <__kernel_rem_pio2+0x3b4>
    2a84:	e28de030 	add	lr, sp, #48	; 0x30
    2a88:	e59dc02c 	ldr	r12, [sp, #44]	; 0x2c
    2a8c:	e08e3104 	add	r3, lr, r4, lsl #2
    2a90:	e3a02000 	mov	r2, #0
    2a94:	e5331004 	ldr	r1, [r3, #-4]!
    2a98:	e153000c 	cmp	r3, r12
    2a9c:	e1822001 	orr	r2, r2, r1
    2aa0:	1afffffb 	bne	2a94 <__kernel_rem_pio2+0x39c>
    2aa4:	e3520000 	cmp	r2, #0
    2aa8:	1a0001c9 	bne	31d4 <__kernel_rem_pio2+0xadc>
    2aac:	e59d4020 	ldr	r4, [sp, #32]
    2ab0:	e2442001 	sub	r2, r4, #1
    2ab4:	e1a02102 	lsl	r2, r2, #2
    2ab8:	e28dce26 	add	r12, sp, #608	; 0x260
    2abc:	e08c3002 	add	r3, r12, r2
    2ac0:	e5133230 	ldr	r3, [r3, #-560]	; 0xfffffdd0
    2ac4:	e3530000 	cmp	r3, #0
    2ac8:	1a0001d9 	bne	3234 <__kernel_rem_pio2+0xb3c>
    2acc:	e28de030 	add	lr, sp, #48	; 0x30
    2ad0:	e08e2002 	add	r2, lr, r2
    2ad4:	e3a03001 	mov	r3, #1
    2ad8:	e5321004 	ldr	r1, [r2, #-4]!
    2adc:	e3510000 	cmp	r1, #0
    2ae0:	e2833001 	add	r3, r3, #1
    2ae4:	0afffffb 	beq	2ad8 <__kernel_rem_pio2+0x3e0>
    2ae8:	e59d4004 	ldr	r4, [sp, #4]
    2aec:	e0843003 	add	r3, r4, r3
    2af0:	e2848001 	add	r8, r4, #1
    2af4:	e1580003 	cmp	r8, r3
    2af8:	e58d3024 	str	r3, [sp, #36]	; 0x24
    2afc:	ca000031 	bgt	2bc8 <__kernel_rem_pio2+0x4d0>
    2b00:	e59d4004 	ldr	r4, [sp, #4]
    2b04:	e59dc028 	ldr	r12, [sp, #40]	; 0x28
    2b08:	e084300c 	add	r3, r4, r12
    2b0c:	e59dc28c 	ldr	r12, [sp, #652]	; 0x28c
    2b10:	e59d400c 	ldr	r4, [sp, #12]
    2b14:	e08c3103 	add	r3, r12, r3, lsl #2
    2b18:	e59dc024 	ldr	r12, [sp, #36]	; 0x24
    2b1c:	e0849008 	add	r9, r4, r8
    2b20:	e28d4d07 	add	r4, sp, #448	; 0x1c0
    2b24:	e0844188 	add	r4, r4, r8, lsl #3
    2b28:	e28cc001 	add	r12, r12, #1
    2b2c:	e28de080 	add	lr, sp, #128	; 0x80
    2b30:	e98d0018 	stmib	sp, {r3, r4}
    2b34:	e58dc014 	str	r12, [sp, #20]
    2b38:	e08e9189 	add	r9, lr, r9, lsl #3
    2b3c:	e59d4004 	ldr	r4, [sp, #4]
    2b40:	e5b40004 	ldr	r0, [r4, #4]!
    2b44:	e58d4004 	str	r4, [sp, #4]
    2b48:	eb000457 	bl	3cac <__aeabi_i2d>
    2b4c:	e59dc00c 	ldr	r12, [sp, #12]
    2b50:	e35c0000 	cmp	r12, #0
    2b54:	e8a90003 	stmia	r9!, {r0, r1}
    2b58:	ba00001d 	blt	2bd4 <__kernel_rem_pio2+0x4dc>
    2b5c:	e088700b 	add	r7, r8, r11
    2b60:	e28de080 	add	lr, sp, #128	; 0x80
    2b64:	e59da010 	ldr	r10, [sp, #16]
    2b68:	e08e7187 	add	r7, lr, r7, lsl #3
    2b6c:	e3a04000 	mov	r4, #0
    2b70:	e3a05000 	mov	r5, #0
    2b74:	e3a06000 	mov	r6, #0
    2b78:	e937000c 	ldmdb	r7!, {r2, r3}
    2b7c:	e8ba0003 	ldm	r10!, {r0, r1}
    2b80:	eb000480 	bl	3d88 <__aeabi_dmul>
    2b84:	e1a02000 	mov	r2, r0
    2b88:	e1a03001 	mov	r3, r1
    2b8c:	e1a00004 	mov	r0, r4
    2b90:	e1a01005 	mov	r1, r5
    2b94:	eb000377 	bl	3978 <__adddf3>
    2b98:	e2866001 	add	r6, r6, #1
    2b9c:	e156000b 	cmp	r6, r11
    2ba0:	e1a04000 	mov	r4, r0
    2ba4:	e1a05001 	mov	r5, r1
    2ba8:	1afffff2 	bne	2b78 <__kernel_rem_pio2+0x480>
    2bac:	e59dc014 	ldr	r12, [sp, #20]
    2bb0:	e2888001 	add	r8, r8, #1
    2bb4:	e158000c 	cmp	r8, r12
    2bb8:	e59dc008 	ldr	r12, [sp, #8]
    2bbc:	e8ac0030 	stmia	r12!, {r4, r5}
    2bc0:	e58dc008 	str	r12, [sp, #8]
    2bc4:	1affffdc 	bne	2b3c <__kernel_rem_pio2+0x444>
    2bc8:	e59dc024 	ldr	r12, [sp, #36]	; 0x24
    2bcc:	e58dc004 	str	r12, [sp, #4]
    2bd0:	eaffff20 	b	2858 <__kernel_rem_pio2+0x160>
    2bd4:	e3a04000 	mov	r4, #0
    2bd8:	e3a05000 	mov	r5, #0
    2bdc:	eafffff2 	b	2bac <__kernel_rem_pio2+0x4b4>
    2be0:	e1a02006 	mov	r2, r6
    2be4:	e1a03007 	mov	r3, r7
    2be8:	e3a00000 	mov	r0, #0
    2bec:	e59f1690 	ldr	r1, [pc, #1680]	; 3284 <__kernel_rem_pio2+0xb8c>
    2bf0:	eb00035f 	bl	3974 <__aeabi_dsub>
    2bf4:	e3540000 	cmp	r4, #0
    2bf8:	e1a06000 	mov	r6, r0
    2bfc:	e1a07001 	mov	r7, r1
    2c00:	0affff93 	beq	2a54 <__kernel_rem_pio2+0x35c>
    2c04:	e59d2018 	ldr	r2, [sp, #24]
    2c08:	e3a00000 	mov	r0, #0
    2c0c:	e59f1670 	ldr	r1, [pc, #1648]	; 3284 <__kernel_rem_pio2+0xb8c>
    2c10:	eb000294 	bl	3668 <scalbn>
    2c14:	e1a02000 	mov	r2, r0
    2c18:	e1a03001 	mov	r3, r1
    2c1c:	e1a00006 	mov	r0, r6
    2c20:	e1a01007 	mov	r1, r7
    2c24:	eb000352 	bl	3974 <__aeabi_dsub>
    2c28:	e1a06000 	mov	r6, r0
    2c2c:	e1a07001 	mov	r7, r1
    2c30:	eaffff87 	b	2a54 <__kernel_rem_pio2+0x35c>
    2c34:	1a00000e 	bne	2c74 <__kernel_rem_pio2+0x57c>
    2c38:	e59d4004 	ldr	r4, [sp, #4]
    2c3c:	e28dce26 	add	r12, sp, #608	; 0x260
    2c40:	e08c3104 	add	r3, r12, r4, lsl #2
    2c44:	e5135234 	ldr	r5, [r3, #-564]	; 0xfffffdcc
    2c48:	e1a05bc5 	asr	r5, r5, #23
    2c4c:	eaffff56 	b	29ac <__kernel_rem_pio2+0x2b4>
    2c50:	e59dc004 	ldr	r12, [sp, #4]
    2c54:	e28dee26 	add	lr, sp, #608	; 0x260
    2c58:	e24c3001 	sub	r3, r12, #1
    2c5c:	e08e3103 	add	r3, lr, r3, lsl #2
    2c60:	e5132230 	ldr	r2, [r3, #-560]	; 0xfffffdd0
    2c64:	e3c224ff 	bic	r2, r2, #-16777216	; 0xff000000
    2c68:	e3c22502 	bic	r2, r2, #8388608	; 0x800000
    2c6c:	e5032230 	str	r2, [r3, #-560]	; 0xfffffdd0
    2c70:	eaffff75 	b	2a4c <__kernel_rem_pio2+0x354>
    2c74:	e3a02000 	mov	r2, #0
    2c78:	e59f3608 	ldr	r3, [pc, #1544]	; 3288 <__kernel_rem_pio2+0xb90>
    2c7c:	eb0005ad 	bl	4338 <__aeabi_dcmpge>
    2c80:	e3500000 	cmp	r0, #0
    2c84:	03a05000 	moveq	r5, #0
    2c88:	0affff71 	beq	2a54 <__kernel_rem_pio2+0x35c>
    2c8c:	e59d4004 	ldr	r4, [sp, #4]
    2c90:	e3540000 	cmp	r4, #0
    2c94:	e3a05002 	mov	r5, #2
    2c98:	e2888001 	add	r8, r8, #1
    2c9c:	caffff48 	bgt	29c4 <__kernel_rem_pio2+0x2cc>
    2ca0:	e3a04000 	mov	r4, #0
    2ca4:	eaffff59 	b	2a10 <__kernel_rem_pio2+0x318>
    2ca8:	e3a04000 	mov	r4, #0
    2cac:	e3a05000 	mov	r5, #0
    2cb0:	eafffede 	b	2830 <__kernel_rem_pio2+0x138>
    2cb4:	e59d4018 	ldr	r4, [sp, #24]
    2cb8:	e1a00006 	mov	r0, r6
    2cbc:	e2642000 	rsb	r2, r4, #0
    2cc0:	e1a01007 	mov	r1, r7
    2cc4:	e58d500c 	str	r5, [sp, #12]
    2cc8:	e58d8010 	str	r8, [sp, #16]
    2ccc:	eb000265 	bl	3668 <scalbn>
    2cd0:	e3a02000 	mov	r2, #0
    2cd4:	e59f35a0 	ldr	r3, [pc, #1440]	; 327c <__kernel_rem_pio2+0xb84>
    2cd8:	e1a04000 	mov	r4, r0
    2cdc:	e1a05001 	mov	r5, r1
    2ce0:	eb000594 	bl	4338 <__aeabi_dcmpge>
    2ce4:	e3500000 	cmp	r0, #0
    2ce8:	0a000153 	beq	323c <__kernel_rem_pio2+0xb44>
    2cec:	e3a02000 	mov	r2, #0
    2cf0:	e59f3580 	ldr	r3, [pc, #1408]	; 3278 <__kernel_rem_pio2+0xb80>
    2cf4:	e1a00004 	mov	r0, r4
    2cf8:	e1a01005 	mov	r1, r5
    2cfc:	eb000421 	bl	3d88 <__aeabi_dmul>
    2d00:	eb000598 	bl	4368 <__aeabi_d2iz>
    2d04:	eb0003e8 	bl	3cac <__aeabi_i2d>
    2d08:	e3a02000 	mov	r2, #0
    2d0c:	e59f3568 	ldr	r3, [pc, #1384]	; 327c <__kernel_rem_pio2+0xb84>
    2d10:	e1a06000 	mov	r6, r0
    2d14:	e1a07001 	mov	r7, r1
    2d18:	eb00041a 	bl	3d88 <__aeabi_dmul>
    2d1c:	e1a02000 	mov	r2, r0
    2d20:	e1a03001 	mov	r3, r1
    2d24:	e1a00004 	mov	r0, r4
    2d28:	e1a01005 	mov	r1, r5
    2d2c:	eb000310 	bl	3974 <__aeabi_dsub>
    2d30:	eb00058c 	bl	4368 <__aeabi_d2iz>
    2d34:	e59d4004 	ldr	r4, [sp, #4]
    2d38:	e28dce26 	add	r12, sp, #608	; 0x260
    2d3c:	e08c3104 	add	r3, r12, r4, lsl #2
    2d40:	e5030230 	str	r0, [r3, #-560]	; 0xfffffdd0
    2d44:	e1a01007 	mov	r1, r7
    2d48:	e1a00006 	mov	r0, r6
    2d4c:	eb000585 	bl	4368 <__aeabi_d2iz>
    2d50:	e2844001 	add	r4, r4, #1
    2d54:	e28dee26 	add	lr, sp, #608	; 0x260
    2d58:	e08e3104 	add	r3, lr, r4, lsl #2
    2d5c:	e58d4004 	str	r4, [sp, #4]
    2d60:	e59d4018 	ldr	r4, [sp, #24]
    2d64:	e2844018 	add	r4, r4, #24
    2d68:	e58d4018 	str	r4, [sp, #24]
    2d6c:	e5030230 	str	r0, [r3, #-560]	; 0xfffffdd0
    2d70:	e3a00000 	mov	r0, #0
    2d74:	e59f1508 	ldr	r1, [pc, #1288]	; 3284 <__kernel_rem_pio2+0xb8c>
    2d78:	e59d2018 	ldr	r2, [sp, #24]
    2d7c:	eb000239 	bl	3668 <scalbn>
    2d80:	e59dc004 	ldr	r12, [sp, #4]
    2d84:	e35c0000 	cmp	r12, #0
    2d88:	e1a04000 	mov	r4, r0
    2d8c:	e1a05001 	mov	r5, r1
    2d90:	ba00003b 	blt	2e84 <__kernel_rem_pio2+0x78c>
    2d94:	e28c6001 	add	r6, r12, #1
    2d98:	e28d9d07 	add	r9, sp, #448	; 0x1c0
    2d9c:	e28de030 	add	lr, sp, #48	; 0x30
    2da0:	e08e7106 	add	r7, lr, r6, lsl #2
    2da4:	e0896186 	add	r6, r9, r6, lsl #3
    2da8:	e5370004 	ldr	r0, [r7, #-4]!
    2dac:	eb0003be 	bl	3cac <__aeabi_i2d>
    2db0:	e1a02004 	mov	r2, r4
    2db4:	e1a03005 	mov	r3, r5
    2db8:	eb0003f2 	bl	3d88 <__aeabi_dmul>
    2dbc:	e3a02000 	mov	r2, #0
    2dc0:	e9260003 	stmdb	r6!, {r0, r1}
    2dc4:	e59f34ac 	ldr	r3, [pc, #1196]	; 3278 <__kernel_rem_pio2+0xb80>
    2dc8:	e1a00004 	mov	r0, r4
    2dcc:	e1a01005 	mov	r1, r5
    2dd0:	eb0003ec 	bl	3d88 <__aeabi_dmul>
    2dd4:	e1560009 	cmp	r6, r9
    2dd8:	e1a04000 	mov	r4, r0
    2ddc:	e1a05001 	mov	r5, r1
    2de0:	1afffff0 	bne	2da8 <__kernel_rem_pio2+0x6b0>
    2de4:	e59da004 	ldr	r10, [sp, #4]
    2de8:	e59db020 	ldr	r11, [sp, #32]
    2dec:	e58da008 	str	r10, [sp, #8]
    2df0:	e3a08000 	mov	r8, #0
    2df4:	e35b0000 	cmp	r11, #0
    2df8:	b3a04000 	movlt	r4, #0
    2dfc:	b3a05000 	movlt	r5, #0
    2e00:	ba000015 	blt	2e5c <__kernel_rem_pio2+0x764>
    2e04:	e59d4008 	ldr	r4, [sp, #8]
    2e08:	e59fa47c 	ldr	r10, [pc, #1148]	; 328c <__kernel_rem_pio2+0xb94>
    2e0c:	e0897184 	add	r7, r9, r4, lsl #3
    2e10:	e3a05000 	mov	r5, #0
    2e14:	e3a04000 	mov	r4, #0
    2e18:	e3a06000 	mov	r6, #0
    2e1c:	ea000001 	b	2e28 <__kernel_rem_pio2+0x730>
    2e20:	e1560008 	cmp	r6, r8
    2e24:	ca00000c 	bgt	2e5c <__kernel_rem_pio2+0x764>
    2e28:	e8b7000c 	ldm	r7!, {r2, r3}
    2e2c:	e8ba0003 	ldm	r10!, {r0, r1}
    2e30:	eb0003d4 	bl	3d88 <__aeabi_dmul>
    2e34:	e1a02000 	mov	r2, r0
    2e38:	e1a03001 	mov	r3, r1
    2e3c:	e1a00004 	mov	r0, r4
    2e40:	e1a01005 	mov	r1, r5
    2e44:	eb0002cb 	bl	3978 <__adddf3>
    2e48:	e2866001 	add	r6, r6, #1
    2e4c:	e15b0006 	cmp	r11, r6
    2e50:	e1a04000 	mov	r4, r0
    2e54:	e1a05001 	mov	r5, r1
    2e58:	aafffff0 	bge	2e20 <__kernel_rem_pio2+0x728>
    2e5c:	e59dc008 	ldr	r12, [sp, #8]
    2e60:	e28d0e26 	add	r0, sp, #608	; 0x260
    2e64:	e24cc001 	sub	r12, r12, #1
    2e68:	e0803188 	add	r3, r0, r8, lsl #3
    2e6c:	e37c0001 	cmn	r12, #1
    2e70:	e58dc008 	str	r12, [sp, #8]
    2e74:	e5034140 	str	r4, [r3, #-320]	; 0xfffffec0
    2e78:	e503513c 	str	r5, [r3, #-316]	; 0xfffffec4
    2e7c:	e2888001 	add	r8, r8, #1
    2e80:	1affffdb 	bne	2df4 <__kernel_rem_pio2+0x6fc>
    2e84:	e59dc288 	ldr	r12, [sp, #648]	; 0x288
    2e88:	e35c0003 	cmp	r12, #3
    2e8c:	979ff10c 	ldrls	pc, [pc, r12, lsl #2]
    2e90:	ea000015 	b	2eec <__kernel_rem_pio2+0x7f4>
    2e94:	00003174 	.word	0x00003174
    2e98:	00003090 	.word	0x00003090
    2e9c:	00003090 	.word	0x00003090
    2ea0:	00002f00 	.word	0x00002f00
    2ea4:	e59d000c 	ldr	r0, [sp, #12]
    2ea8:	e3a0c000 	mov	r12, #0
    2eac:	e3500000 	cmp	r0, #0
    2eb0:	e1a0400c 	mov	r4, r12
    2eb4:	0a000068 	beq	305c <__kernel_rem_pio2+0x964>
    2eb8:	e59d2124 	ldr	r2, [sp, #292]	; 0x124
    2ebc:	e59d001c 	ldr	r0, [sp, #28]
    2ec0:	e59d1120 	ldr	r1, [sp, #288]	; 0x120
    2ec4:	e2822102 	add	r2, r2, #-2147483648	; 0x80000000
    2ec8:	e59d312c 	ldr	r3, [sp, #300]	; 0x12c
    2ecc:	e8800006 	stm	r0, {r1, r2}
    2ed0:	e59d2128 	ldr	r2, [sp, #296]	; 0x128
    2ed4:	e2833102 	add	r3, r3, #-2147483648	; 0x80000000
    2ed8:	e2844102 	add	r4, r4, #-2147483648	; 0x80000000
    2edc:	e5802008 	str	r2, [r0, #8]
    2ee0:	e580300c 	str	r3, [r0, #12]
    2ee4:	e580c010 	str	r12, [r0, #16]
    2ee8:	e5804014 	str	r4, [r0, #20]
    2eec:	e59d4010 	ldr	r4, [sp, #16]
    2ef0:	e2040007 	and	r0, r4, #7
    2ef4:	e28ddf99 	add	sp, sp, #612	; 0x264
    2ef8:	e8bd4ff0 	pop	{r4, r5, r6, r7, r8, r9, r10, r11, lr}
    2efc:	e12fff1e 	bx	lr
    2f00:	e59d4004 	ldr	r4, [sp, #4]
    2f04:	e3540000 	cmp	r4, #0
    2f08:	daffffe5 	ble	2ea4 <__kernel_rem_pio2+0x7ac>
    2f0c:	e59d4004 	ldr	r4, [sp, #4]
    2f10:	e28dbe12 	add	r11, sp, #288	; 0x120
    2f14:	e08ba184 	add	r10, r11, r4, lsl #3
    2f18:	e58da008 	str	r10, [sp, #8]
    2f1c:	e58da014 	str	r10, [sp, #20]
    2f20:	e93a0300 	ldmdb	r10!, {r8, r9}
    2f24:	e28a7008 	add	r7, r10, #8
    2f28:	e89700c0 	ldm	r7, {r6, r7}
    2f2c:	e1a00008 	mov	r0, r8
    2f30:	e1a02006 	mov	r2, r6
    2f34:	e1a03007 	mov	r3, r7
    2f38:	e1a01009 	mov	r1, r9
    2f3c:	eb00028d 	bl	3978 <__adddf3>
    2f40:	e1a04000 	mov	r4, r0
    2f44:	e1a05001 	mov	r5, r1
    2f48:	e1a02004 	mov	r2, r4
    2f4c:	e1a03005 	mov	r3, r5
    2f50:	e1a00008 	mov	r0, r8
    2f54:	e1a01009 	mov	r1, r9
    2f58:	eb000285 	bl	3974 <__aeabi_dsub>
    2f5c:	e1a02000 	mov	r2, r0
    2f60:	e1a03001 	mov	r3, r1
    2f64:	e1a00006 	mov	r0, r6
    2f68:	e1a01007 	mov	r1, r7
    2f6c:	eb000281 	bl	3978 <__adddf3>
    2f70:	e59dc008 	ldr	r12, [sp, #8]
    2f74:	e58a0008 	str	r0, [r10, #8]
    2f78:	e58a100c 	str	r1, [r10, #12]
    2f7c:	e92c0030 	stmdb	r12!, {r4, r5}
    2f80:	e15a000b 	cmp	r10, r11
    2f84:	e58dc008 	str	r12, [sp, #8]
    2f88:	1affffe4 	bne	2f20 <__kernel_rem_pio2+0x828>
    2f8c:	e59d4004 	ldr	r4, [sp, #4]
    2f90:	e3540001 	cmp	r4, #1
    2f94:	e59da014 	ldr	r10, [sp, #20]
    2f98:	daffffc1 	ble	2ea4 <__kernel_rem_pio2+0x7ac>
    2f9c:	e28bc008 	add	r12, r11, #8
    2fa0:	e58dc008 	str	r12, [sp, #8]
    2fa4:	e1a0c00a 	mov	r12, r10
    2fa8:	e93a0300 	ldmdb	r10!, {r8, r9}
    2fac:	e28a7008 	add	r7, r10, #8
    2fb0:	e89700c0 	ldm	r7, {r6, r7}
    2fb4:	e1a00008 	mov	r0, r8
    2fb8:	e1a02006 	mov	r2, r6
    2fbc:	e1a03007 	mov	r3, r7
    2fc0:	e1a01009 	mov	r1, r9
    2fc4:	e58dc000 	str	r12, [sp]
    2fc8:	eb00026a 	bl	3978 <__adddf3>
    2fcc:	e1a04000 	mov	r4, r0
    2fd0:	e1a05001 	mov	r5, r1
    2fd4:	e1a02004 	mov	r2, r4
    2fd8:	e1a03005 	mov	r3, r5
    2fdc:	e1a00008 	mov	r0, r8
    2fe0:	e1a01009 	mov	r1, r9
    2fe4:	eb000262 	bl	3974 <__aeabi_dsub>
    2fe8:	e1a02000 	mov	r2, r0
    2fec:	e1a03001 	mov	r3, r1
    2ff0:	e1a00006 	mov	r0, r6
    2ff4:	e1a01007 	mov	r1, r7
    2ff8:	eb00025e 	bl	3978 <__adddf3>
    2ffc:	e59de008 	ldr	lr, [sp, #8]
    3000:	e59dc000 	ldr	r12, [sp]
    3004:	e15a000e 	cmp	r10, lr
    3008:	e58a0008 	str	r0, [r10, #8]
    300c:	e58a100c 	str	r1, [r10, #12]
    3010:	e92c0030 	stmdb	r12!, {r4, r5}
    3014:	1affffe3 	bne	2fa8 <__kernel_rem_pio2+0x8b0>
    3018:	e59d4004 	ldr	r4, [sp, #4]
    301c:	e3a0c000 	mov	r12, #0
    3020:	e2845001 	add	r5, r4, #1
    3024:	e08b5185 	add	r5, r11, r5, lsl #3
    3028:	e1a0400c 	mov	r4, r12
    302c:	e28bb010 	add	r11, r11, #16
    3030:	e1a0000c 	mov	r0, r12
    3034:	e1a01004 	mov	r1, r4
    3038:	e935000c 	ldmdb	r5!, {r2, r3}
    303c:	eb00024d 	bl	3978 <__adddf3>
    3040:	e155000b 	cmp	r5, r11
    3044:	e1a0c000 	mov	r12, r0
    3048:	e1a04001 	mov	r4, r1
    304c:	1afffff7 	bne	3030 <__kernel_rem_pio2+0x938>
    3050:	e59d000c 	ldr	r0, [sp, #12]
    3054:	e3500000 	cmp	r0, #0
    3058:	1affff96 	bne	2eb8 <__kernel_rem_pio2+0x7c0>
    305c:	e1a03004 	mov	r3, r4
    3060:	e28d1e12 	add	r1, sp, #288	; 0x120
    3064:	e8910003 	ldm	r1, {r0, r1}
    3068:	e59d401c 	ldr	r4, [sp, #28]
    306c:	e8840003 	stm	r4, {r0, r1}
    3070:	e28d1f4a 	add	r1, sp, #296	; 0x128
    3074:	e8910003 	ldm	r1, {r0, r1}
    3078:	e1a0200c 	mov	r2, r12
    307c:	e5840008 	str	r0, [r4, #8]
    3080:	e584100c 	str	r1, [r4, #12]
    3084:	e5842010 	str	r2, [r4, #16]
    3088:	e5843014 	str	r3, [r4, #20]
    308c:	eaffff96 	b	2eec <__kernel_rem_pio2+0x7f4>
    3090:	e59dc004 	ldr	r12, [sp, #4]
    3094:	e35c0000 	cmp	r12, #0
    3098:	b3a0e000 	movlt	lr, #0
    309c:	b1a0c00e 	movlt	r12, lr
    30a0:	ba00000d 	blt	30dc <__kernel_rem_pio2+0x9e4>
    30a4:	e59dc004 	ldr	r12, [sp, #4]
    30a8:	e28d5e12 	add	r5, sp, #288	; 0x120
    30ac:	e28c4001 	add	r4, r12, #1
    30b0:	e3a0e000 	mov	lr, #0
    30b4:	e0854184 	add	r4, r5, r4, lsl #3
    30b8:	e1a0c00e 	mov	r12, lr
    30bc:	e1a0000e 	mov	r0, lr
    30c0:	e1a0100c 	mov	r1, r12
    30c4:	e934000c 	ldmdb	r4!, {r2, r3}
    30c8:	eb00022a 	bl	3978 <__adddf3>
    30cc:	e1540005 	cmp	r4, r5
    30d0:	e1a0e000 	mov	lr, r0
    30d4:	e1a0c001 	mov	r12, r1
    30d8:	1afffff7 	bne	30bc <__kernel_rem_pio2+0x9c4>
    30dc:	e59d400c 	ldr	r4, [sp, #12]
    30e0:	e3540000 	cmp	r4, #0
    30e4:	128c3102 	addne	r3, r12, #-2147483648	; 0x80000000
    30e8:	01a0300c 	moveq	r3, r12
    30ec:	e1a01003 	mov	r1, r3
    30f0:	e1a0300c 	mov	r3, r12
    30f4:	e59dc01c 	ldr	r12, [sp, #28]
    30f8:	e1a0000e 	mov	r0, lr
    30fc:	e88c0003 	stm	r12, {r0, r1}
    3100:	e1a0200e 	mov	r2, lr
    3104:	e28d1e12 	add	r1, sp, #288	; 0x120
    3108:	e8910003 	ldm	r1, {r0, r1}
    310c:	eb000218 	bl	3974 <__aeabi_dsub>
    3110:	e59d4004 	ldr	r4, [sp, #4]
    3114:	e3540000 	cmp	r4, #0
    3118:	e1a05000 	mov	r5, r0
    311c:	e1a0c001 	mov	r12, r1
    3120:	da00000a 	ble	3150 <__kernel_rem_pio2+0xa58>
    3124:	e59de004 	ldr	lr, [sp, #4]
    3128:	e28d4f4a 	add	r4, sp, #296	; 0x128
    312c:	e084618e 	add	r6, r4, lr, lsl #3
    3130:	e1a00005 	mov	r0, r5
    3134:	e1a0100c 	mov	r1, r12
    3138:	e8b4000c 	ldm	r4!, {r2, r3}
    313c:	eb00020d 	bl	3978 <__adddf3>
    3140:	e1540006 	cmp	r4, r6
    3144:	e1a05000 	mov	r5, r0
    3148:	e1a0c001 	mov	r12, r1
    314c:	1afffff7 	bne	3130 <__kernel_rem_pio2+0xa38>
    3150:	e59d400c 	ldr	r4, [sp, #12]
    3154:	e3540000 	cmp	r4, #0
    3158:	128cc102 	addne	r12, r12, #-2147483648	; 0x80000000
    315c:	e1a0300c 	mov	r3, r12
    3160:	e59dc01c 	ldr	r12, [sp, #28]
    3164:	e1a02005 	mov	r2, r5
    3168:	e58c2008 	str	r2, [r12, #8]
    316c:	e58c300c 	str	r3, [r12, #12]
    3170:	eaffff5d 	b	2eec <__kernel_rem_pio2+0x7f4>
    3174:	e59d4004 	ldr	r4, [sp, #4]
    3178:	e3540000 	cmp	r4, #0
    317c:	ba000038 	blt	3264 <__kernel_rem_pio2+0xb6c>
    3180:	e2846001 	add	r6, r4, #1
    3184:	e28d5e12 	add	r5, sp, #288	; 0x120
    3188:	e3a04000 	mov	r4, #0
    318c:	e0856186 	add	r6, r5, r6, lsl #3
    3190:	e1a0c004 	mov	r12, r4
    3194:	e1a00004 	mov	r0, r4
    3198:	e1a0100c 	mov	r1, r12
    319c:	e936000c 	ldmdb	r6!, {r2, r3}
    31a0:	eb0001f4 	bl	3978 <__adddf3>
    31a4:	e1560005 	cmp	r6, r5
    31a8:	e1a04000 	mov	r4, r0
    31ac:	e1a0c001 	mov	r12, r1
    31b0:	1afffff7 	bne	3194 <__kernel_rem_pio2+0xa9c>
    31b4:	e59d000c 	ldr	r0, [sp, #12]
    31b8:	e3500000 	cmp	r0, #0
    31bc:	e1a02004 	mov	r2, r4
    31c0:	128cc102 	addne	r12, r12, #-2147483648	; 0x80000000
    31c4:	e59d401c 	ldr	r4, [sp, #28]
    31c8:	e1a0300c 	mov	r3, r12
    31cc:	e884000c 	stm	r4, {r2, r3}
    31d0:	eaffff45 	b	2eec <__kernel_rem_pio2+0x7f4>
    31d4:	e1a03100 	lsl	r3, r0, #2
    31d8:	e28dce26 	add	r12, sp, #608	; 0x260
    31dc:	e08c2003 	add	r2, r12, r3
    31e0:	e59d4018 	ldr	r4, [sp, #24]
    31e4:	e5122230 	ldr	r2, [r2, #-560]	; 0xfffffdd0
    31e8:	e2444018 	sub	r4, r4, #24
    31ec:	e3520000 	cmp	r2, #0
    31f0:	e58d8010 	str	r8, [sp, #16]
    31f4:	e58d500c 	str	r5, [sp, #12]
    31f8:	e58d4018 	str	r4, [sp, #24]
    31fc:	1a000016 	bne	325c <__kernel_rem_pio2+0xb64>
    3200:	e28dc030 	add	r12, sp, #48	; 0x30
    3204:	e58d0004 	str	r0, [sp, #4]
    3208:	e08c3003 	add	r3, r12, r3
    320c:	e1a02000 	mov	r2, r0
    3210:	e1a01004 	mov	r1, r4
    3214:	e5330004 	ldr	r0, [r3, #-4]!
    3218:	e3500000 	cmp	r0, #0
    321c:	e2422001 	sub	r2, r2, #1
    3220:	e2411018 	sub	r1, r1, #24
    3224:	0afffffa 	beq	3214 <__kernel_rem_pio2+0xb1c>
    3228:	e58d2004 	str	r2, [sp, #4]
    322c:	e58d1018 	str	r1, [sp, #24]
    3230:	eafffece 	b	2d70 <__kernel_rem_pio2+0x678>
    3234:	e3a03001 	mov	r3, #1
    3238:	eafffe2a 	b	2ae8 <__kernel_rem_pio2+0x3f0>
    323c:	e1a00004 	mov	r0, r4
    3240:	e1a01005 	mov	r1, r5
    3244:	eb000447 	bl	4368 <__aeabi_d2iz>
    3248:	e59dc004 	ldr	r12, [sp, #4]
    324c:	e28dee26 	add	lr, sp, #608	; 0x260
    3250:	e08e310c 	add	r3, lr, r12, lsl #2
    3254:	e5030230 	str	r0, [r3, #-560]	; 0xfffffdd0
    3258:	eafffec4 	b	2d70 <__kernel_rem_pio2+0x678>
    325c:	e58d0004 	str	r0, [sp, #4]
    3260:	eafffec2 	b	2d70 <__kernel_rem_pio2+0x678>
    3264:	e3a04000 	mov	r4, #0
    3268:	e1a0c004 	mov	r12, r4
    326c:	eaffffd0 	b	31b4 <__kernel_rem_pio2+0xabc>
    3270:	2aaaaaab 	.word	0x2aaaaaab
    3274:	00005180 	.word	0x00005180
    3278:	3e700000 	.word	0x3e700000
    327c:	41700000 	.word	0x41700000
    3280:	40200000 	.word	0x40200000
    3284:	3ff00000 	.word	0x3ff00000
    3288:	3fe00000 	.word	0x3fe00000
    328c:	00005190 	.word	0x00005190

00003290 <__kernel_sin>:
    3290:	e92d4ff0 	push	{r4, r5, r6, r7, r8, r9, r10, r11, lr}
    3294:	e3c1c102 	bic	r12, r1, #-2147483648	; 0x80000000
    3298:	e35c05f9 	cmp	r12, #1044381696	; 0x3e400000
    329c:	e24dd014 	sub	sp, sp, #20
    32a0:	e1a04000 	mov	r4, r0
    32a4:	e1a05001 	mov	r5, r1
    32a8:	e1a06000 	mov	r6, r0
    32ac:	e1a07001 	mov	r7, r1
    32b0:	e1a08002 	mov	r8, r2
    32b4:	e1a09003 	mov	r9, r3
    32b8:	aa000002 	bge	32c8 <__kernel_sin+0x38>
    32bc:	eb000429 	bl	4368 <__aeabi_d2iz>
    32c0:	e3500000 	cmp	r0, #0
    32c4:	0a000052 	beq	3414 <__kernel_sin+0x184>
    32c8:	e1a02004 	mov	r2, r4
    32cc:	e1a03005 	mov	r3, r5
    32d0:	e1a00004 	mov	r0, r4
    32d4:	e1a01005 	mov	r1, r5
    32d8:	eb0002aa 	bl	3d88 <__aeabi_dmul>
    32dc:	e1a02004 	mov	r2, r4
    32e0:	e1a03005 	mov	r3, r5
    32e4:	e1a06000 	mov	r6, r0
    32e8:	e1a07001 	mov	r7, r1
    32ec:	eb0002a5 	bl	3d88 <__aeabi_dmul>
    32f0:	e28f3d06 	add	r3, pc, #384	; 0x180
    32f4:	e893000c 	ldm	r3, {r2, r3}
    32f8:	e1a0a000 	mov	r10, r0
    32fc:	e1a0b001 	mov	r11, r1
    3300:	e1a00006 	mov	r0, r6
    3304:	e1a01007 	mov	r1, r7
    3308:	eb00029e 	bl	3d88 <__aeabi_dmul>
    330c:	e28f3f5b 	add	r3, pc, #364	; 0x16c
    3310:	e893000c 	ldm	r3, {r2, r3}
    3314:	eb000196 	bl	3974 <__aeabi_dsub>
    3318:	e1a02006 	mov	r2, r6
    331c:	e1a03007 	mov	r3, r7
    3320:	eb000298 	bl	3d88 <__aeabi_dmul>
    3324:	e28f3f57 	add	r3, pc, #348	; 0x15c
    3328:	e893000c 	ldm	r3, {r2, r3}
    332c:	eb000191 	bl	3978 <__adddf3>
    3330:	e1a02006 	mov	r2, r6
    3334:	e1a03007 	mov	r3, r7
    3338:	eb000292 	bl	3d88 <__aeabi_dmul>
    333c:	e28f3f53 	add	r3, pc, #332	; 0x14c
    3340:	e893000c 	ldm	r3, {r2, r3}
    3344:	eb00018a 	bl	3974 <__aeabi_dsub>
    3348:	e1a02006 	mov	r2, r6
    334c:	e1a03007 	mov	r3, r7
    3350:	eb00028c 	bl	3d88 <__aeabi_dmul>
    3354:	e28f3f4f 	add	r3, pc, #316	; 0x13c
    3358:	e893000c 	ldm	r3, {r2, r3}
    335c:	eb000185 	bl	3978 <__adddf3>
    3360:	e59d3038 	ldr	r3, [sp, #56]	; 0x38
    3364:	e3530000 	cmp	r3, #0
    3368:	e88d0003 	stm	sp, {r0, r1}
    336c:	0a00002d 	beq	3428 <__kernel_sin+0x198>
    3370:	e3a02000 	mov	r2, #0
    3374:	e59f312c 	ldr	r3, [pc, #300]	; 34a8 <__kernel_sin+0x218>
    3378:	e1a00008 	mov	r0, r8
    337c:	e1a01009 	mov	r1, r9
    3380:	eb000280 	bl	3d88 <__aeabi_dmul>
    3384:	e89d000c 	ldm	sp, {r2, r3}
    3388:	e58d0008 	str	r0, [sp, #8]
    338c:	e58d100c 	str	r1, [sp, #12]
    3390:	e1a0000a 	mov	r0, r10
    3394:	e1a0100b 	mov	r1, r11
    3398:	eb00027a 	bl	3d88 <__aeabi_dmul>
    339c:	e1a02000 	mov	r2, r0
    33a0:	e1a03001 	mov	r3, r1
    33a4:	e28d1008 	add	r1, sp, #8
    33a8:	e8910003 	ldm	r1, {r0, r1}
    33ac:	eb000170 	bl	3974 <__aeabi_dsub>
    33b0:	e1a02006 	mov	r2, r6
    33b4:	e1a03007 	mov	r3, r7
    33b8:	eb000272 	bl	3d88 <__aeabi_dmul>
    33bc:	e1a02008 	mov	r2, r8
    33c0:	e1a03009 	mov	r3, r9
    33c4:	eb00016a 	bl	3974 <__aeabi_dsub>
    33c8:	e28f30d0 	add	r3, pc, #208	; 0xd0
    33cc:	e893000c 	ldm	r3, {r2, r3}
    33d0:	e1a06000 	mov	r6, r0
    33d4:	e1a07001 	mov	r7, r1
    33d8:	e1a0000a 	mov	r0, r10
    33dc:	e1a0100b 	mov	r1, r11
    33e0:	eb000268 	bl	3d88 <__aeabi_dmul>
    33e4:	e1a02000 	mov	r2, r0
    33e8:	e1a03001 	mov	r3, r1
    33ec:	e1a00006 	mov	r0, r6
    33f0:	e1a01007 	mov	r1, r7
    33f4:	eb00015f 	bl	3978 <__adddf3>
    33f8:	e1a02000 	mov	r2, r0
    33fc:	e1a03001 	mov	r3, r1
    3400:	e1a00004 	mov	r0, r4
    3404:	e1a01005 	mov	r1, r5
    3408:	eb000159 	bl	3974 <__aeabi_dsub>
    340c:	e1a04000 	mov	r4, r0
    3410:	e1a05001 	mov	r5, r1
    3414:	e1a00004 	mov	r0, r4
    3418:	e1a01005 	mov	r1, r5
    341c:	e28dd014 	add	sp, sp, #20
    3420:	e8bd4ff0 	pop	{r4, r5, r6, r7, r8, r9, r10, r11, lr}
    3424:	e12fff1e 	bx	lr
    3428:	e1a02000 	mov	r2, r0
    342c:	e1a03001 	mov	r3, r1
    3430:	e1a00006 	mov	r0, r6
    3434:	e1a01007 	mov	r1, r7
    3438:	eb000252 	bl	3d88 <__aeabi_dmul>
    343c:	e28f305c 	add	r3, pc, #92	; 0x5c
    3440:	e893000c 	ldm	r3, {r2, r3}
    3444:	eb00014a 	bl	3974 <__aeabi_dsub>
    3448:	e1a0200a 	mov	r2, r10
    344c:	e1a0300b 	mov	r3, r11
    3450:	eb00024c 	bl	3d88 <__aeabi_dmul>
    3454:	e1a02000 	mov	r2, r0
    3458:	e1a03001 	mov	r3, r1
    345c:	e1a00004 	mov	r0, r4
    3460:	e1a01005 	mov	r1, r5
    3464:	eb000143 	bl	3978 <__adddf3>
    3468:	e1a04000 	mov	r4, r0
    346c:	e1a05001 	mov	r5, r1
    3470:	eaffffe7 	b	3414 <__kernel_sin+0x184>
    3474:	e1a00000 	nop			; (mov r0, r0)
    3478:	5acfd57c 	.word	0x5acfd57c
    347c:	3de5d93a 	.word	0x3de5d93a
    3480:	8a2b9ceb 	.word	0x8a2b9ceb
    3484:	3e5ae5e6 	.word	0x3e5ae5e6
    3488:	57b1fe7d 	.word	0x57b1fe7d
    348c:	3ec71de3 	.word	0x3ec71de3
    3490:	19c161d5 	.word	0x19c161d5
    3494:	3f2a01a0 	.word	0x3f2a01a0
    3498:	1110f8a6 	.word	0x1110f8a6
    349c:	3f811111 	.word	0x3f811111
    34a0:	55555549 	.word	0x55555549
    34a4:	3fc55555 	.word	0x3fc55555
    34a8:	3fe00000 	.word	0x3fe00000
    34ac:	e1a00000 	nop			; (mov r0, r0)

000034b0 <fabs>:
    34b0:	e3c11102 	bic	r1, r1, #-2147483648	; 0x80000000
    34b4:	e12fff1e 	bx	lr

000034b8 <finite>:
    34b8:	e3811102 	orr	r1, r1, #-2147483648	; 0x80000000
    34bc:	e2810601 	add	r0, r1, #1048576	; 0x100000
    34c0:	e1a00fa0 	lsr	r0, r0, #31
    34c4:	e12fff1e 	bx	lr

000034c8 <floor>:
    34c8:	e92d45f8 	push	{r3, r4, r5, r6, r7, r8, r10, lr}
    34cc:	e1a08081 	lsl	r8, r1, #1
    34d0:	e1a08aa8 	lsr	r8, r8, #21
    34d4:	e2486fff 	sub	r6, r8, #1020	; 0x3fc
    34d8:	e2466003 	sub	r6, r6, #3
    34dc:	e3560013 	cmp	r6, #19
    34e0:	e1a02000 	mov	r2, r0
    34e4:	e1a03001 	mov	r3, r1
    34e8:	e1a04000 	mov	r4, r0
    34ec:	e1a05001 	mov	r5, r1
    34f0:	e1a07001 	mov	r7, r1
    34f4:	ca000019 	bgt	3560 <floor+0x98>
    34f8:	e3560000 	cmp	r6, #0
    34fc:	ba000034 	blt	35d4 <floor+0x10c>
    3500:	e59f8150 	ldr	r8, [pc, #336]	; 3658 <floor+0x190>
    3504:	e1a08658 	asr	r8, r8, r6
    3508:	e008c001 	and	r12, r8, r1
    350c:	e19cc000 	orrs	r12, r12, r0
    3510:	0a00000e 	beq	3550 <floor+0x88>
    3514:	e28f3f4d 	add	r3, pc, #308	; 0x134
    3518:	e893000c 	ldm	r3, {r2, r3}
    351c:	eb000115 	bl	3978 <__adddf3>
    3520:	e3a02000 	mov	r2, #0
    3524:	e3a03000 	mov	r3, #0
    3528:	eb000388 	bl	4350 <__aeabi_dcmpgt>
    352c:	e3500000 	cmp	r0, #0
    3530:	0a000004 	beq	3548 <floor+0x80>
    3534:	e3550000 	cmp	r5, #0
    3538:	b3a03601 	movlt	r3, #1048576	; 0x100000
    353c:	b0855653 	addlt	r5, r5, r3, asr r6
    3540:	e3a04000 	mov	r4, #0
    3544:	e1c57008 	bic	r7, r5, r8
    3548:	e1a03007 	mov	r3, r7
    354c:	e1a02004 	mov	r2, r4
    3550:	e1a00002 	mov	r0, r2
    3554:	e1a01003 	mov	r1, r3
    3558:	e8bd45f8 	pop	{r3, r4, r5, r6, r7, r8, r10, lr}
    355c:	e12fff1e 	bx	lr
    3560:	e3560033 	cmp	r6, #51	; 0x33
    3564:	da000005 	ble	3580 <floor+0xb8>
    3568:	e3560b01 	cmp	r6, #1024	; 0x400
    356c:	1afffff7 	bne	3550 <floor+0x88>
    3570:	eb000100 	bl	3978 <__adddf3>
    3574:	e1a02000 	mov	r2, r0
    3578:	e1a03001 	mov	r3, r1
    357c:	eafffff3 	b	3550 <floor+0x88>
    3580:	e248ae41 	sub	r10, r8, #1040	; 0x410
    3584:	e24aa003 	sub	r10, r10, #3
    3588:	e3e0c000 	mvn	r12, #0
    358c:	e1a0aa3c 	lsr	r10, r12, r10
    3590:	e11a0000 	tst	r10, r0
    3594:	0affffed 	beq	3550 <floor+0x88>
    3598:	e28f30b0 	add	r3, pc, #176	; 0xb0
    359c:	e893000c 	ldm	r3, {r2, r3}
    35a0:	eb0000f4 	bl	3978 <__adddf3>
    35a4:	e3a02000 	mov	r2, #0
    35a8:	e3a03000 	mov	r3, #0
    35ac:	eb000367 	bl	4350 <__aeabi_dcmpgt>
    35b0:	e3500000 	cmp	r0, #0
    35b4:	0affffe3 	beq	3548 <floor+0x80>
    35b8:	e3550000 	cmp	r5, #0
    35bc:	ba000017 	blt	3620 <floor+0x158>
    35c0:	e1c4400a 	bic	r4, r4, r10
    35c4:	e1a07005 	mov	r7, r5
    35c8:	e1a03007 	mov	r3, r7
    35cc:	e1a02004 	mov	r2, r4
    35d0:	eaffffde 	b	3550 <floor+0x88>
    35d4:	e28f3074 	add	r3, pc, #116	; 0x74
    35d8:	e893000c 	ldm	r3, {r2, r3}
    35dc:	eb0000e5 	bl	3978 <__adddf3>
    35e0:	e3a02000 	mov	r2, #0
    35e4:	e3a03000 	mov	r3, #0
    35e8:	eb000358 	bl	4350 <__aeabi_dcmpgt>
    35ec:	e3500000 	cmp	r0, #0
    35f0:	0affffd4 	beq	3548 <floor+0x80>
    35f4:	e3550000 	cmp	r5, #0
    35f8:	a3a04000 	movge	r4, #0
    35fc:	a1a07004 	movge	r7, r4
    3600:	aaffffd0 	bge	3548 <floor+0x80>
    3604:	e3c73102 	bic	r3, r7, #-2147483648	; 0x80000000
    3608:	e1833004 	orr	r3, r3, r4
    360c:	e3530000 	cmp	r3, #0
    3610:	e59f3044 	ldr	r3, [pc, #68]	; 365c <floor+0x194>
    3614:	13a04000 	movne	r4, #0
    3618:	11a07003 	movne	r7, r3
    361c:	eaffffc9 	b	3548 <floor+0x80>
    3620:	e3560014 	cmp	r6, #20
    3624:	02855001 	addeq	r5, r5, #1
    3628:	0affffe4 	beq	35c0 <floor+0xf8>
    362c:	e2688e43 	rsb	r8, r8, #1072	; 0x430
    3630:	e2888003 	add	r8, r8, #3
    3634:	e3a03001 	mov	r3, #1
    3638:	e0843813 	add	r3, r4, r3, lsl r8
    363c:	e1540003 	cmp	r4, r3
    3640:	82855001 	addhi	r5, r5, #1
    3644:	e1a04003 	mov	r4, r3
    3648:	eaffffdc 	b	35c0 <floor+0xf8>
    364c:	e1a00000 	nop			; (mov r0, r0)
    3650:	8800759c 	.word	0x8800759c
    3654:	7e37e43c 	.word	0x7e37e43c
    3658:	000fffff 	.word	0x000fffff
    365c:	bff00000 	.word	0xbff00000

00003660 <matherr>:
    3660:	e3a00000 	mov	r0, #0
    3664:	e12fff1e 	bx	lr

00003668 <scalbn>:
    3668:	e59f3170 	ldr	r3, [pc, #368]	; 37e0 <scalbn+0x178>
    366c:	e0013003 	and	r3, r1, r3
    3670:	e1b03a43 	asrs	r3, r3, #20
    3674:	e92d41f0 	push	{r4, r5, r6, r7, r8, lr}
    3678:	e1a04000 	mov	r4, r0
    367c:	e1a05001 	mov	r5, r1
    3680:	e1a06000 	mov	r6, r0
    3684:	e1a07001 	mov	r7, r1
    3688:	e1a08002 	mov	r8, r2
    368c:	1a000011 	bne	36d8 <scalbn+0x70>
    3690:	e3c1c102 	bic	r12, r1, #-2147483648	; 0x80000000
    3694:	e19cc000 	orrs	r12, r12, r0
    3698:	0a00001d 	beq	3714 <scalbn+0xac>
    369c:	e59f3140 	ldr	r3, [pc, #320]	; 37e4 <scalbn+0x17c>
    36a0:	e3a02000 	mov	r2, #0
    36a4:	eb0001b7 	bl	3d88 <__aeabi_dmul>
    36a8:	e59f3138 	ldr	r3, [pc, #312]	; 37e8 <scalbn+0x180>
    36ac:	e1580003 	cmp	r8, r3
    36b0:	e1a04000 	mov	r4, r0
    36b4:	e1a05001 	mov	r5, r1
    36b8:	e1a06000 	mov	r6, r0
    36bc:	e1a07001 	mov	r7, r1
    36c0:	ba000021 	blt	374c <scalbn+0xe4>
    36c4:	e59f3114 	ldr	r3, [pc, #276]	; 37e0 <scalbn+0x178>
    36c8:	e0013003 	and	r3, r1, r3
    36cc:	e1a03a43 	asr	r3, r3, #20
    36d0:	e2433036 	sub	r3, r3, #54	; 0x36
    36d4:	ea000003 	b	36e8 <scalbn+0x80>
    36d8:	e59f210c 	ldr	r2, [pc, #268]	; 37ec <scalbn+0x184>
    36dc:	e1530002 	cmp	r3, r2
    36e0:	11a01001 	movne	r1, r1
    36e4:	0a000027 	beq	3788 <scalbn+0x120>
    36e8:	e59f2100 	ldr	r2, [pc, #256]	; 37f0 <scalbn+0x188>
    36ec:	e0833008 	add	r3, r3, r8
    36f0:	e1530002 	cmp	r3, r2
    36f4:	c1a02004 	movgt	r2, r4
    36f8:	c1a03005 	movgt	r3, r5
    36fc:	ca000018 	bgt	3764 <scalbn+0xfc>
    3700:	e3530000 	cmp	r3, #0
    3704:	da000006 	ble	3724 <scalbn+0xbc>
    3708:	e3c1147f 	bic	r1, r1, #2130706432	; 0x7f000000
    370c:	e3c1160f 	bic	r1, r1, #15728640	; 0xf00000
    3710:	e1815a03 	orr	r5, r1, r3, lsl #20
    3714:	e1a00004 	mov	r0, r4
    3718:	e1a01005 	mov	r1, r5
    371c:	e8bd41f0 	pop	{r4, r5, r6, r7, r8, lr}
    3720:	e12fff1e 	bx	lr
    3724:	e3730035 	cmn	r3, #53	; 0x35
    3728:	aa00001c 	bge	37a0 <scalbn+0x138>
    372c:	e59f30c0 	ldr	r3, [pc, #192]	; 37f4 <scalbn+0x18c>
    3730:	e1580003 	cmp	r8, r3
    3734:	e1a02004 	mov	r2, r4
    3738:	e1a03005 	mov	r3, r5
    373c:	ca000008 	bgt	3764 <scalbn+0xfc>
    3740:	e28f1088 	add	r1, pc, #136	; 0x88
    3744:	e8910003 	ldm	r1, {r0, r1}
    3748:	eb00002c 	bl	3800 <copysign>
    374c:	e28f307c 	add	r3, pc, #124	; 0x7c
    3750:	e893000c 	ldm	r3, {r2, r3}
    3754:	eb00018b 	bl	3d88 <__aeabi_dmul>
    3758:	e1a04000 	mov	r4, r0
    375c:	e1a05001 	mov	r5, r1
    3760:	eaffffeb 	b	3714 <scalbn+0xac>
    3764:	e28f106c 	add	r1, pc, #108	; 0x6c
    3768:	e8910003 	ldm	r1, {r0, r1}
    376c:	eb000023 	bl	3800 <copysign>
    3770:	e28f3060 	add	r3, pc, #96	; 0x60
    3774:	e893000c 	ldm	r3, {r2, r3}
    3778:	eb000182 	bl	3d88 <__aeabi_dmul>
    377c:	e1a04000 	mov	r4, r0
    3780:	e1a05001 	mov	r5, r1
    3784:	eaffffe2 	b	3714 <scalbn+0xac>
    3788:	e1a03005 	mov	r3, r5
    378c:	e1a02000 	mov	r2, r0
    3790:	eb000078 	bl	3978 <__adddf3>
    3794:	e1a04000 	mov	r4, r0
    3798:	e1a05001 	mov	r5, r1
    379c:	eaffffdc 	b	3714 <scalbn+0xac>
    37a0:	e3c1147f 	bic	r1, r1, #2130706432	; 0x7f000000
    37a4:	e2833036 	add	r3, r3, #54	; 0x36
    37a8:	e3c1160f 	bic	r1, r1, #15728640	; 0xf00000
    37ac:	e1815a03 	orr	r5, r1, r3, lsl #20
    37b0:	e1a00004 	mov	r0, r4
    37b4:	e1a01005 	mov	r1, r5
    37b8:	e3a02000 	mov	r2, #0
    37bc:	e59f3034 	ldr	r3, [pc, #52]	; 37f8 <scalbn+0x190>
    37c0:	eb000170 	bl	3d88 <__aeabi_dmul>
    37c4:	e1a04000 	mov	r4, r0
    37c8:	e1a05001 	mov	r5, r1
    37cc:	eaffffd0 	b	3714 <scalbn+0xac>
    37d0:	c2f8f359 	.word	0xc2f8f359
    37d4:	01a56e1f 	.word	0x01a56e1f
    37d8:	8800759c 	.word	0x8800759c
    37dc:	7e37e43c 	.word	0x7e37e43c
    37e0:	7ff00000 	.word	0x7ff00000
    37e4:	43500000 	.word	0x43500000
    37e8:	ffff3cb0 	.word	0xffff3cb0
    37ec:	000007ff 	.word	0x000007ff
    37f0:	000007fe 	.word	0x000007fe
    37f4:	0000c350 	.word	0x0000c350
    37f8:	3c900000 	.word	0x3c900000
    37fc:	e1a00000 	nop			; (mov r0, r0)

00003800 <copysign>:
    3800:	e2033102 	and	r3, r3, #-2147483648	; 0x80000000
    3804:	e3c12102 	bic	r2, r1, #-2147483648	; 0x80000000
    3808:	e92d0030 	push	{r4, r5}
    380c:	e1a05001 	mov	r5, r1
    3810:	e1a04000 	mov	r4, r0
    3814:	e1831002 	orr	r1, r3, r2
    3818:	e8bd0030 	pop	{r4, r5}
    381c:	e12fff1e 	bx	lr

00003820 <__aeabi_idiv>:
    3820:	e3510000 	cmp	r1, #0
    3824:	0a000043 	beq	3938 <.divsi3_skip_div0_test+0x110>

00003828 <.divsi3_skip_div0_test>:
    3828:	e020c001 	eor	r12, r0, r1
    382c:	42611000 	rsbmi	r1, r1, #0
    3830:	e2512001 	subs	r2, r1, #1
    3834:	0a000027 	beq	38d8 <.divsi3_skip_div0_test+0xb0>
    3838:	e1b03000 	movs	r3, r0
    383c:	42603000 	rsbmi	r3, r0, #0
    3840:	e1530001 	cmp	r3, r1
    3844:	9a000026 	bls	38e4 <.divsi3_skip_div0_test+0xbc>
    3848:	e1110002 	tst	r1, r2
    384c:	0a000028 	beq	38f4 <.divsi3_skip_div0_test+0xcc>
    3850:	e311020e 	tst	r1, #-536870912	; 0xe0000000
    3854:	01a01181 	lsleq	r1, r1, #3
    3858:	03a02008 	moveq	r2, #8
    385c:	13a02001 	movne	r2, #1
    3860:	e3510201 	cmp	r1, #268435456	; 0x10000000
    3864:	31510003 	cmpcc	r1, r3
    3868:	31a01201 	lslcc	r1, r1, #4
    386c:	31a02202 	lslcc	r2, r2, #4
    3870:	3afffffa 	bcc	3860 <.divsi3_skip_div0_test+0x38>
    3874:	e3510102 	cmp	r1, #-2147483648	; 0x80000000
    3878:	31510003 	cmpcc	r1, r3
    387c:	31a01081 	lslcc	r1, r1, #1
    3880:	31a02082 	lslcc	r2, r2, #1
    3884:	3afffffa 	bcc	3874 <.divsi3_skip_div0_test+0x4c>
    3888:	e3a00000 	mov	r0, #0
    388c:	e1530001 	cmp	r3, r1
    3890:	20433001 	subcs	r3, r3, r1
    3894:	21800002 	orrcs	r0, r0, r2
    3898:	e15300a1 	cmp	r3, r1, lsr #1
    389c:	204330a1 	subcs	r3, r3, r1, lsr #1
    38a0:	218000a2 	orrcs	r0, r0, r2, lsr #1
    38a4:	e1530121 	cmp	r3, r1, lsr #2
    38a8:	20433121 	subcs	r3, r3, r1, lsr #2
    38ac:	21800122 	orrcs	r0, r0, r2, lsr #2
    38b0:	e15301a1 	cmp	r3, r1, lsr #3
    38b4:	204331a1 	subcs	r3, r3, r1, lsr #3
    38b8:	218001a2 	orrcs	r0, r0, r2, lsr #3
    38bc:	e3530000 	cmp	r3, #0
    38c0:	11b02222 	lsrsne	r2, r2, #4
    38c4:	11a01221 	lsrne	r1, r1, #4
    38c8:	1affffef 	bne	388c <.divsi3_skip_div0_test+0x64>
    38cc:	e35c0000 	cmp	r12, #0
    38d0:	42600000 	rsbmi	r0, r0, #0
    38d4:	e12fff1e 	bx	lr
    38d8:	e13c0000 	teq	r12, r0
    38dc:	42600000 	rsbmi	r0, r0, #0
    38e0:	e12fff1e 	bx	lr
    38e4:	33a00000 	movcc	r0, #0
    38e8:	01a00fcc 	asreq	r0, r12, #31
    38ec:	03800001 	orreq	r0, r0, #1
    38f0:	e12fff1e 	bx	lr
    38f4:	e3510801 	cmp	r1, #65536	; 0x10000
    38f8:	21a01821 	lsrcs	r1, r1, #16
    38fc:	23a02010 	movcs	r2, #16
    3900:	33a02000 	movcc	r2, #0
    3904:	e3510c01 	cmp	r1, #256	; 0x100
    3908:	21a01421 	lsrcs	r1, r1, #8
    390c:	22822008 	addcs	r2, r2, #8
    3910:	e3510010 	cmp	r1, #16
    3914:	21a01221 	lsrcs	r1, r1, #4
    3918:	22822004 	addcs	r2, r2, #4
    391c:	e3510004 	cmp	r1, #4
    3920:	82822003 	addhi	r2, r2, #3
    3924:	908220a1 	addls	r2, r2, r1, lsr #1
    3928:	e35c0000 	cmp	r12, #0
    392c:	e1a00233 	lsr	r0, r3, r2
    3930:	42600000 	rsbmi	r0, r0, #0
    3934:	e12fff1e 	bx	lr
    3938:	e3500000 	cmp	r0, #0
    393c:	c3e00102 	mvngt	r0, #-2147483648	; 0x80000000
    3940:	b3a00102 	movlt	r0, #-2147483648	; 0x80000000
    3944:	ea000007 	b	3968 <__aeabi_idiv0>

00003948 <__aeabi_idivmod>:
    3948:	e3510000 	cmp	r1, #0
    394c:	0afffff9 	beq	3938 <.divsi3_skip_div0_test+0x110>
    3950:	e92d4003 	push	{r0, r1, lr}
    3954:	ebffffb3 	bl	3828 <.divsi3_skip_div0_test>
    3958:	e8bd4006 	pop	{r1, r2, lr}
    395c:	e0030092 	mul	r3, r2, r0
    3960:	e0411003 	sub	r1, r1, r3
    3964:	e12fff1e 	bx	lr

00003968 <__aeabi_idiv0>:
    3968:	e12fff1e 	bx	lr

0000396c <__aeabi_drsub>:
    396c:	e2211102 	eor	r1, r1, #-2147483648	; 0x80000000
    3970:	ea000000 	b	3978 <__adddf3>

00003974 <__aeabi_dsub>:
    3974:	e2233102 	eor	r3, r3, #-2147483648	; 0x80000000

00003978 <__adddf3>:
    3978:	e92d4030 	push	{r4, r5, lr}
    397c:	e1a04081 	lsl	r4, r1, #1
    3980:	e1a05083 	lsl	r5, r3, #1
    3984:	e1340005 	teq	r4, r5
    3988:	01300002 	teqeq	r0, r2
    398c:	1194c000 	orrsne	r12, r4, r0
    3990:	1195c002 	orrsne	r12, r5, r2
    3994:	11f0cac4 	mvnsne	r12, r4, asr #21
    3998:	11f0cac5 	mvnsne	r12, r5, asr #21
    399c:	0a00008c 	beq	3bd4 <__adddf3+0x25c>
    39a0:	e1a04aa4 	lsr	r4, r4, #21
    39a4:	e0745aa5 	rsbs	r5, r4, r5, lsr #21
    39a8:	b2655000 	rsblt	r5, r5, #0
    39ac:	da000006 	ble	39cc <__adddf3+0x54>
    39b0:	e0844005 	add	r4, r4, r5
    39b4:	e0202002 	eor	r2, r0, r2
    39b8:	e0213003 	eor	r3, r1, r3
    39bc:	e0220000 	eor	r0, r2, r0
    39c0:	e0231001 	eor	r1, r3, r1
    39c4:	e0202002 	eor	r2, r0, r2
    39c8:	e0213003 	eor	r3, r1, r3
    39cc:	e3550036 	cmp	r5, #54	; 0x36
    39d0:	88bd4030 	pophi	{r4, r5, lr}
    39d4:	812fff1e 	bxhi	lr
    39d8:	e3110102 	tst	r1, #-2147483648	; 0x80000000
    39dc:	e1a01601 	lsl	r1, r1, #12
    39e0:	e3a0c601 	mov	r12, #1048576	; 0x100000
    39e4:	e18c1621 	orr	r1, r12, r1, lsr #12
    39e8:	0a000001 	beq	39f4 <__adddf3+0x7c>
    39ec:	e2700000 	rsbs	r0, r0, #0
    39f0:	e2e11000 	rsc	r1, r1, #0
    39f4:	e3130102 	tst	r3, #-2147483648	; 0x80000000
    39f8:	e1a03603 	lsl	r3, r3, #12
    39fc:	e18c3623 	orr	r3, r12, r3, lsr #12
    3a00:	0a000001 	beq	3a0c <__adddf3+0x94>
    3a04:	e2722000 	rsbs	r2, r2, #0
    3a08:	e2e33000 	rsc	r3, r3, #0
    3a0c:	e1340005 	teq	r4, r5
    3a10:	0a000069 	beq	3bbc <__adddf3+0x244>
    3a14:	e2444001 	sub	r4, r4, #1
    3a18:	e275e020 	rsbs	lr, r5, #32
    3a1c:	ba000005 	blt	3a38 <__adddf3+0xc0>
    3a20:	e1a0ce12 	lsl	r12, r2, lr
    3a24:	e0900532 	adds	r0, r0, r2, lsr r5
    3a28:	e2a11000 	adc	r1, r1, #0
    3a2c:	e0900e13 	adds	r0, r0, r3, lsl lr
    3a30:	e0b11553 	adcs	r1, r1, r3, asr r5
    3a34:	ea000006 	b	3a54 <__adddf3+0xdc>
    3a38:	e2455020 	sub	r5, r5, #32
    3a3c:	e28ee020 	add	lr, lr, #32
    3a40:	e3520001 	cmp	r2, #1
    3a44:	e1a0ce13 	lsl	r12, r3, lr
    3a48:	238cc002 	orrcs	r12, r12, #2
    3a4c:	e0900553 	adds	r0, r0, r3, asr r5
    3a50:	e0b11fc3 	adcs	r1, r1, r3, asr #31
    3a54:	e2015102 	and	r5, r1, #-2147483648	; 0x80000000
    3a58:	5a000002 	bpl	3a68 <__adddf3+0xf0>
    3a5c:	e27cc000 	rsbs	r12, r12, #0
    3a60:	e2f00000 	rscs	r0, r0, #0
    3a64:	e2e11000 	rsc	r1, r1, #0
    3a68:	e3510601 	cmp	r1, #1048576	; 0x100000
    3a6c:	3a00000f 	bcc	3ab0 <__adddf3+0x138>
    3a70:	e3510602 	cmp	r1, #2097152	; 0x200000
    3a74:	3a000006 	bcc	3a94 <__adddf3+0x11c>
    3a78:	e1b010a1 	lsrs	r1, r1, #1
    3a7c:	e1b00060 	rrxs	r0, r0
    3a80:	e1a0c06c 	rrx	r12, r12
    3a84:	e2844001 	add	r4, r4, #1
    3a88:	e1a02a84 	lsl	r2, r4, #21
    3a8c:	e3720501 	cmn	r2, #4194304	; 0x400000
    3a90:	2a00006b 	bcs	3c44 <__adddf3+0x2cc>
    3a94:	e35c0102 	cmp	r12, #-2147483648	; 0x80000000
    3a98:	01b0c0a0 	lsrseq	r12, r0, #1
    3a9c:	e2b00000 	adcs	r0, r0, #0
    3aa0:	e0a11a04 	adc	r1, r1, r4, lsl #20
    3aa4:	e1811005 	orr	r1, r1, r5
    3aa8:	e8bd4030 	pop	{r4, r5, lr}
    3aac:	e12fff1e 	bx	lr
    3ab0:	e1b0c08c 	lsls	r12, r12, #1
    3ab4:	e0b00000 	adcs	r0, r0, r0
    3ab8:	e0a11001 	adc	r1, r1, r1
    3abc:	e3110601 	tst	r1, #1048576	; 0x100000
    3ac0:	e2444001 	sub	r4, r4, #1
    3ac4:	1afffff2 	bne	3a94 <__adddf3+0x11c>
    3ac8:	e3310000 	teq	r1, #0
    3acc:	13a03014 	movne	r3, #20
    3ad0:	03a03034 	moveq	r3, #52	; 0x34
    3ad4:	01a01000 	moveq	r1, r0
    3ad8:	03a00000 	moveq	r0, #0
    3adc:	e1a02001 	mov	r2, r1
    3ae0:	e3520801 	cmp	r2, #65536	; 0x10000
    3ae4:	21a02822 	lsrcs	r2, r2, #16
    3ae8:	22433010 	subcs	r3, r3, #16
    3aec:	e3520c01 	cmp	r2, #256	; 0x100
    3af0:	21a02422 	lsrcs	r2, r2, #8
    3af4:	22433008 	subcs	r3, r3, #8
    3af8:	e3520010 	cmp	r2, #16
    3afc:	21a02222 	lsrcs	r2, r2, #4
    3b00:	22433004 	subcs	r3, r3, #4
    3b04:	e3520004 	cmp	r2, #4
    3b08:	22433002 	subcs	r3, r3, #2
    3b0c:	304330a2 	subcc	r3, r3, r2, lsr #1
    3b10:	e04331a2 	sub	r3, r3, r2, lsr #3
    3b14:	e2532020 	subs	r2, r3, #32
    3b18:	aa000007 	bge	3b3c <__adddf3+0x1c4>
    3b1c:	e292200c 	adds	r2, r2, #12
    3b20:	da000004 	ble	3b38 <__adddf3+0x1c0>
    3b24:	e282c014 	add	r12, r2, #20
    3b28:	e262200c 	rsb	r2, r2, #12
    3b2c:	e1a00c11 	lsl	r0, r1, r12
    3b30:	e1a01231 	lsr	r1, r1, r2
    3b34:	ea000004 	b	3b4c <__adddf3+0x1d4>
    3b38:	e2822014 	add	r2, r2, #20
    3b3c:	d262c020 	rsble	r12, r2, #32
    3b40:	e1a01211 	lsl	r1, r1, r2
    3b44:	d1811c30 	orrle	r1, r1, r0, lsr r12
    3b48:	d1a00210 	lslle	r0, r0, r2
    3b4c:	e0544003 	subs	r4, r4, r3
    3b50:	a0811a04 	addge	r1, r1, r4, lsl #20
    3b54:	a1811005 	orrge	r1, r1, r5
    3b58:	a8bd4030 	popge	{r4, r5, lr}
    3b5c:	a12fff1e 	bxge	lr
    3b60:	e1e04004 	mvn	r4, r4
    3b64:	e254401f 	subs	r4, r4, #31
    3b68:	aa00000f 	bge	3bac <__adddf3+0x234>
    3b6c:	e294400c 	adds	r4, r4, #12
    3b70:	ca000006 	bgt	3b90 <__adddf3+0x218>
    3b74:	e2844014 	add	r4, r4, #20
    3b78:	e2642020 	rsb	r2, r4, #32
    3b7c:	e1a00430 	lsr	r0, r0, r4
    3b80:	e1800211 	orr	r0, r0, r1, lsl r2
    3b84:	e1851431 	orr	r1, r5, r1, lsr r4
    3b88:	e8bd4030 	pop	{r4, r5, lr}
    3b8c:	e12fff1e 	bx	lr
    3b90:	e264400c 	rsb	r4, r4, #12
    3b94:	e2642020 	rsb	r2, r4, #32
    3b98:	e1a00230 	lsr	r0, r0, r2
    3b9c:	e1800411 	orr	r0, r0, r1, lsl r4
    3ba0:	e1a01005 	mov	r1, r5
    3ba4:	e8bd4030 	pop	{r4, r5, lr}
    3ba8:	e12fff1e 	bx	lr
    3bac:	e1a00431 	lsr	r0, r1, r4
    3bb0:	e1a01005 	mov	r1, r5
    3bb4:	e8bd4030 	pop	{r4, r5, lr}
    3bb8:	e12fff1e 	bx	lr
    3bbc:	e3340000 	teq	r4, #0
    3bc0:	e2233601 	eor	r3, r3, #1048576	; 0x100000
    3bc4:	02211601 	eoreq	r1, r1, #1048576	; 0x100000
    3bc8:	02844001 	addeq	r4, r4, #1
    3bcc:	12455001 	subne	r5, r5, #1
    3bd0:	eaffff8f 	b	3a14 <__adddf3+0x9c>
    3bd4:	e1f0cac4 	mvns	r12, r4, asr #21
    3bd8:	11f0cac5 	mvnsne	r12, r5, asr #21
    3bdc:	0a00001d 	beq	3c58 <__adddf3+0x2e0>
    3be0:	e1340005 	teq	r4, r5
    3be4:	01300002 	teqeq	r0, r2
    3be8:	0a000004 	beq	3c00 <__adddf3+0x288>
    3bec:	e194c000 	orrs	r12, r4, r0
    3bf0:	01a01003 	moveq	r1, r3
    3bf4:	01a00002 	moveq	r0, r2
    3bf8:	e8bd4030 	pop	{r4, r5, lr}
    3bfc:	e12fff1e 	bx	lr
    3c00:	e1310003 	teq	r1, r3
    3c04:	13a01000 	movne	r1, #0
    3c08:	13a00000 	movne	r0, #0
    3c0c:	18bd4030 	popne	{r4, r5, lr}
    3c10:	112fff1e 	bxne	lr
    3c14:	e1b0caa4 	lsrs	r12, r4, #21
    3c18:	1a000004 	bne	3c30 <__adddf3+0x2b8>
    3c1c:	e1b00080 	lsls	r0, r0, #1
    3c20:	e0b11001 	adcs	r1, r1, r1
    3c24:	23811102 	orrcs	r1, r1, #-2147483648	; 0x80000000
    3c28:	e8bd4030 	pop	{r4, r5, lr}
    3c2c:	e12fff1e 	bx	lr
    3c30:	e2944501 	adds	r4, r4, #4194304	; 0x400000
    3c34:	32811601 	addcc	r1, r1, #1048576	; 0x100000
    3c38:	38bd4030 	popcc	{r4, r5, lr}
    3c3c:	312fff1e 	bxcc	lr
    3c40:	e2015102 	and	r5, r1, #-2147483648	; 0x80000000
    3c44:	e385147f 	orr	r1, r5, #2130706432	; 0x7f000000
    3c48:	e381160f 	orr	r1, r1, #15728640	; 0xf00000
    3c4c:	e3a00000 	mov	r0, #0
    3c50:	e8bd4030 	pop	{r4, r5, lr}
    3c54:	e12fff1e 	bx	lr
    3c58:	e1f0cac4 	mvns	r12, r4, asr #21
    3c5c:	11a01003 	movne	r1, r3
    3c60:	11a00002 	movne	r0, r2
    3c64:	01f0cac5 	mvnseq	r12, r5, asr #21
    3c68:	11a03001 	movne	r3, r1
    3c6c:	11a02000 	movne	r2, r0
    3c70:	e1904601 	orrs	r4, r0, r1, lsl #12
    3c74:	01925603 	orrseq	r5, r2, r3, lsl #12
    3c78:	01310003 	teqeq	r1, r3
    3c7c:	13811702 	orrne	r1, r1, #524288	; 0x80000
    3c80:	e8bd4030 	pop	{r4, r5, lr}
    3c84:	e12fff1e 	bx	lr

00003c88 <__aeabi_ui2d>:
    3c88:	e3300000 	teq	r0, #0
    3c8c:	03a01000 	moveq	r1, #0
    3c90:	012fff1e 	bxeq	lr
    3c94:	e92d4030 	push	{r4, r5, lr}
    3c98:	e3a04b01 	mov	r4, #1024	; 0x400
    3c9c:	e2844032 	add	r4, r4, #50	; 0x32
    3ca0:	e3a05000 	mov	r5, #0
    3ca4:	e3a01000 	mov	r1, #0
    3ca8:	eaffff86 	b	3ac8 <__adddf3+0x150>

00003cac <__aeabi_i2d>:
    3cac:	e3300000 	teq	r0, #0
    3cb0:	03a01000 	moveq	r1, #0
    3cb4:	012fff1e 	bxeq	lr
    3cb8:	e92d4030 	push	{r4, r5, lr}
    3cbc:	e3a04b01 	mov	r4, #1024	; 0x400
    3cc0:	e2844032 	add	r4, r4, #50	; 0x32
    3cc4:	e2105102 	ands	r5, r0, #-2147483648	; 0x80000000
    3cc8:	42600000 	rsbmi	r0, r0, #0
    3ccc:	e3a01000 	mov	r1, #0
    3cd0:	eaffff7c 	b	3ac8 <__adddf3+0x150>

00003cd4 <__aeabi_f2d>:
    3cd4:	e1b02080 	lsls	r2, r0, #1
    3cd8:	e1a011c2 	asr	r1, r2, #3
    3cdc:	e1a01061 	rrx	r1, r1
    3ce0:	e1a00e02 	lsl	r0, r2, #28
    3ce4:	121234ff 	andsne	r3, r2, #-16777216	; 0xff000000
    3ce8:	133304ff 	teqne	r3, #-16777216	; 0xff000000
    3cec:	1221130e 	eorne	r1, r1, #939524096	; 0x38000000
    3cf0:	112fff1e 	bxne	lr
    3cf4:	e3320000 	teq	r2, #0
    3cf8:	133304ff 	teqne	r3, #-16777216	; 0xff000000
    3cfc:	012fff1e 	bxeq	lr
    3d00:	e92d4030 	push	{r4, r5, lr}
    3d04:	e3a04d0e 	mov	r4, #896	; 0x380
    3d08:	e2015102 	and	r5, r1, #-2147483648	; 0x80000000
    3d0c:	e3c11102 	bic	r1, r1, #-2147483648	; 0x80000000
    3d10:	eaffff6c 	b	3ac8 <__adddf3+0x150>

00003d14 <__aeabi_ul2d>:
    3d14:	e1902001 	orrs	r2, r0, r1
    3d18:	012fff1e 	bxeq	lr
    3d1c:	e92d4030 	push	{r4, r5, lr}
    3d20:	e3a05000 	mov	r5, #0
    3d24:	ea000006 	b	3d44 <__aeabi_l2d+0x1c>

00003d28 <__aeabi_l2d>:
    3d28:	e1902001 	orrs	r2, r0, r1
    3d2c:	012fff1e 	bxeq	lr
    3d30:	e92d4030 	push	{r4, r5, lr}
    3d34:	e2115102 	ands	r5, r1, #-2147483648	; 0x80000000
    3d38:	5a000001 	bpl	3d44 <__aeabi_l2d+0x1c>
    3d3c:	e2700000 	rsbs	r0, r0, #0
    3d40:	e2e11000 	rsc	r1, r1, #0
    3d44:	e3a04b01 	mov	r4, #1024	; 0x400
    3d48:	e2844032 	add	r4, r4, #50	; 0x32
    3d4c:	e1b0cb21 	lsrs	r12, r1, #22
    3d50:	0affff44 	beq	3a68 <__adddf3+0xf0>
    3d54:	e3a02003 	mov	r2, #3
    3d58:	e1b0c1ac 	lsrs	r12, r12, #3
    3d5c:	12822003 	addne	r2, r2, #3
    3d60:	e1b0c1ac 	lsrs	r12, r12, #3
    3d64:	12822003 	addne	r2, r2, #3
    3d68:	e08221ac 	add	r2, r2, r12, lsr #3
    3d6c:	e2623020 	rsb	r3, r2, #32
    3d70:	e1a0c310 	lsl	r12, r0, r3
    3d74:	e1a00230 	lsr	r0, r0, r2
    3d78:	e1800311 	orr	r0, r0, r1, lsl r3
    3d7c:	e1a01231 	lsr	r1, r1, r2
    3d80:	e0844002 	add	r4, r4, r2
    3d84:	eaffff37 	b	3a68 <__adddf3+0xf0>

00003d88 <__aeabi_dmul>:
    3d88:	e92d4070 	push	{r4, r5, r6, lr}
    3d8c:	e3a0c0ff 	mov	r12, #255	; 0xff
    3d90:	e38ccc07 	orr	r12, r12, #1792	; 0x700
    3d94:	e01c4a21 	ands	r4, r12, r1, lsr #20
    3d98:	101c5a23 	andsne	r5, r12, r3, lsr #20
    3d9c:	1134000c 	teqne	r4, r12
    3da0:	1135000c 	teqne	r5, r12
    3da4:	0b000075 	bleq	3f80 <__aeabi_dmul+0x1f8>
    3da8:	e0844005 	add	r4, r4, r5
    3dac:	e0216003 	eor	r6, r1, r3
    3db0:	e1c11a8c 	bic	r1, r1, r12, lsl #21
    3db4:	e1c33a8c 	bic	r3, r3, r12, lsl #21
    3db8:	e1905601 	orrs	r5, r0, r1, lsl #12
    3dbc:	11925603 	orrsne	r5, r2, r3, lsl #12
    3dc0:	e3811601 	orr	r1, r1, #1048576	; 0x100000
    3dc4:	e3833601 	orr	r3, r3, #1048576	; 0x100000
    3dc8:	0a00001d 	beq	3e44 <__aeabi_dmul+0xbc>
    3dcc:	e08ec290 	umull	r12, lr, r0, r2
    3dd0:	e3a05000 	mov	r5, #0
    3dd4:	e0a5e291 	umlal	lr, r5, r1, r2
    3dd8:	e2062102 	and	r2, r6, #-2147483648	; 0x80000000
    3ddc:	e0a5e390 	umlal	lr, r5, r0, r3
    3de0:	e3a06000 	mov	r6, #0
    3de4:	e0a65391 	umlal	r5, r6, r1, r3
    3de8:	e33c0000 	teq	r12, #0
    3dec:	138ee001 	orrne	lr, lr, #1
    3df0:	e24440ff 	sub	r4, r4, #255	; 0xff
    3df4:	e3560c02 	cmp	r6, #512	; 0x200
    3df8:	e2c44c03 	sbc	r4, r4, #768	; 0x300
    3dfc:	2a000002 	bcs	3e0c <__aeabi_dmul+0x84>
    3e00:	e1b0e08e 	lsls	lr, lr, #1
    3e04:	e0b55005 	adcs	r5, r5, r5
    3e08:	e0a66006 	adc	r6, r6, r6
    3e0c:	e1821586 	orr	r1, r2, r6, lsl #11
    3e10:	e1811aa5 	orr	r1, r1, r5, lsr #21
    3e14:	e1a00585 	lsl	r0, r5, #11
    3e18:	e1800aae 	orr	r0, r0, lr, lsr #21
    3e1c:	e1a0e58e 	lsl	lr, lr, #11
    3e20:	e254c0fd 	subs	r12, r4, #253	; 0xfd
    3e24:	835c0c07 	cmphi	r12, #1792	; 0x700
    3e28:	8a000011 	bhi	3e74 <__aeabi_dmul+0xec>
    3e2c:	e35e0102 	cmp	lr, #-2147483648	; 0x80000000
    3e30:	01b0e0a0 	lsrseq	lr, r0, #1
    3e34:	e2b00000 	adcs	r0, r0, #0
    3e38:	e0a11a04 	adc	r1, r1, r4, lsl #20
    3e3c:	e8bd4070 	pop	{r4, r5, r6, lr}
    3e40:	e12fff1e 	bx	lr
    3e44:	e2066102 	and	r6, r6, #-2147483648	; 0x80000000
    3e48:	e1861001 	orr	r1, r6, r1
    3e4c:	e1800002 	orr	r0, r0, r2
    3e50:	e0211003 	eor	r1, r1, r3
    3e54:	e05440ac 	subs	r4, r4, r12, lsr #1
    3e58:	c074500c 	rsbsgt	r5, r4, r12
    3e5c:	c1811a04 	orrgt	r1, r1, r4, lsl #20
    3e60:	c8bd4070 	popgt	{r4, r5, r6, lr}
    3e64:	c12fff1e 	bxgt	lr
    3e68:	e3811601 	orr	r1, r1, #1048576	; 0x100000
    3e6c:	e3a0e000 	mov	lr, #0
    3e70:	e2544001 	subs	r4, r4, #1
    3e74:	ca00005d 	bgt	3ff0 <__aeabi_dmul+0x268>
    3e78:	e3740036 	cmn	r4, #54	; 0x36
    3e7c:	d3a00000 	movle	r0, #0
    3e80:	d2011102 	andle	r1, r1, #-2147483648	; 0x80000000
    3e84:	d8bd4070 	pople	{r4, r5, r6, lr}
    3e88:	d12fff1e 	bxle	lr
    3e8c:	e2644000 	rsb	r4, r4, #0
    3e90:	e2544020 	subs	r4, r4, #32
    3e94:	aa00001a 	bge	3f04 <__aeabi_dmul+0x17c>
    3e98:	e294400c 	adds	r4, r4, #12
    3e9c:	ca00000c 	bgt	3ed4 <__aeabi_dmul+0x14c>
    3ea0:	e2844014 	add	r4, r4, #20
    3ea4:	e2645020 	rsb	r5, r4, #32
    3ea8:	e1a03510 	lsl	r3, r0, r5
    3eac:	e1a00430 	lsr	r0, r0, r4
    3eb0:	e1800511 	orr	r0, r0, r1, lsl r5
    3eb4:	e2012102 	and	r2, r1, #-2147483648	; 0x80000000
    3eb8:	e3c11102 	bic	r1, r1, #-2147483648	; 0x80000000
    3ebc:	e0900fa3 	adds	r0, r0, r3, lsr #31
    3ec0:	e0a21431 	adc	r1, r2, r1, lsr r4
    3ec4:	e19ee083 	orrs	lr, lr, r3, lsl #1
    3ec8:	01c00fa3 	biceq	r0, r0, r3, lsr #31
    3ecc:	e8bd4070 	pop	{r4, r5, r6, lr}
    3ed0:	e12fff1e 	bx	lr
    3ed4:	e264400c 	rsb	r4, r4, #12
    3ed8:	e2645020 	rsb	r5, r4, #32
    3edc:	e1a03410 	lsl	r3, r0, r4
    3ee0:	e1a00530 	lsr	r0, r0, r5
    3ee4:	e1800411 	orr	r0, r0, r1, lsl r4
    3ee8:	e2011102 	and	r1, r1, #-2147483648	; 0x80000000
    3eec:	e0900fa3 	adds	r0, r0, r3, lsr #31
    3ef0:	e2a11000 	adc	r1, r1, #0
    3ef4:	e19ee083 	orrs	lr, lr, r3, lsl #1
    3ef8:	01c00fa3 	biceq	r0, r0, r3, lsr #31
    3efc:	e8bd4070 	pop	{r4, r5, r6, lr}
    3f00:	e12fff1e 	bx	lr
    3f04:	e2645020 	rsb	r5, r4, #32
    3f08:	e18ee510 	orr	lr, lr, r0, lsl r5
    3f0c:	e1a03430 	lsr	r3, r0, r4
    3f10:	e1833511 	orr	r3, r3, r1, lsl r5
    3f14:	e1a00431 	lsr	r0, r1, r4
    3f18:	e2011102 	and	r1, r1, #-2147483648	; 0x80000000
    3f1c:	e1c00431 	bic	r0, r0, r1, lsr r4
    3f20:	e0800fa3 	add	r0, r0, r3, lsr #31
    3f24:	e19ee083 	orrs	lr, lr, r3, lsl #1
    3f28:	01c00fa3 	biceq	r0, r0, r3, lsr #31
    3f2c:	e8bd4070 	pop	{r4, r5, r6, lr}
    3f30:	e12fff1e 	bx	lr
    3f34:	e3340000 	teq	r4, #0
    3f38:	1a000008 	bne	3f60 <__aeabi_dmul+0x1d8>
    3f3c:	e2016102 	and	r6, r1, #-2147483648	; 0x80000000
    3f40:	e1b00080 	lsls	r0, r0, #1
    3f44:	e0a11001 	adc	r1, r1, r1
    3f48:	e3110601 	tst	r1, #1048576	; 0x100000
    3f4c:	02444001 	subeq	r4, r4, #1
    3f50:	0afffffa 	beq	3f40 <__aeabi_dmul+0x1b8>
    3f54:	e1811006 	orr	r1, r1, r6
    3f58:	e3350000 	teq	r5, #0
    3f5c:	112fff1e 	bxne	lr
    3f60:	e2036102 	and	r6, r3, #-2147483648	; 0x80000000
    3f64:	e1b02082 	lsls	r2, r2, #1
    3f68:	e0a33003 	adc	r3, r3, r3
    3f6c:	e3130601 	tst	r3, #1048576	; 0x100000
    3f70:	02455001 	subeq	r5, r5, #1
    3f74:	0afffffa 	beq	3f64 <__aeabi_dmul+0x1dc>
    3f78:	e1833006 	orr	r3, r3, r6
    3f7c:	e12fff1e 	bx	lr
    3f80:	e134000c 	teq	r4, r12
    3f84:	e00c5a23 	and	r5, r12, r3, lsr #20
    3f88:	1135000c 	teqne	r5, r12
    3f8c:	0a000007 	beq	3fb0 <__aeabi_dmul+0x228>
    3f90:	e1906081 	orrs	r6, r0, r1, lsl #1
    3f94:	11926083 	orrsne	r6, r2, r3, lsl #1
    3f98:	1affffe5 	bne	3f34 <__aeabi_dmul+0x1ac>
    3f9c:	e0211003 	eor	r1, r1, r3
    3fa0:	e2011102 	and	r1, r1, #-2147483648	; 0x80000000
    3fa4:	e3a00000 	mov	r0, #0
    3fa8:	e8bd4070 	pop	{r4, r5, r6, lr}
    3fac:	e12fff1e 	bx	lr
    3fb0:	e1906081 	orrs	r6, r0, r1, lsl #1
    3fb4:	01a00002 	moveq	r0, r2
    3fb8:	01a01003 	moveq	r1, r3
    3fbc:	11926083 	orrsne	r6, r2, r3, lsl #1
    3fc0:	0a000010 	beq	4008 <__aeabi_dmul+0x280>
    3fc4:	e134000c 	teq	r4, r12
    3fc8:	1a000001 	bne	3fd4 <__aeabi_dmul+0x24c>
    3fcc:	e1906601 	orrs	r6, r0, r1, lsl #12
    3fd0:	1a00000c 	bne	4008 <__aeabi_dmul+0x280>
    3fd4:	e135000c 	teq	r5, r12
    3fd8:	1a000003 	bne	3fec <__aeabi_dmul+0x264>
    3fdc:	e1926603 	orrs	r6, r2, r3, lsl #12
    3fe0:	11a00002 	movne	r0, r2
    3fe4:	11a01003 	movne	r1, r3
    3fe8:	1a000006 	bne	4008 <__aeabi_dmul+0x280>
    3fec:	e0211003 	eor	r1, r1, r3
    3ff0:	e2011102 	and	r1, r1, #-2147483648	; 0x80000000
    3ff4:	e381147f 	orr	r1, r1, #2130706432	; 0x7f000000
    3ff8:	e381160f 	orr	r1, r1, #15728640	; 0xf00000
    3ffc:	e3a00000 	mov	r0, #0
    4000:	e8bd4070 	pop	{r4, r5, r6, lr}
    4004:	e12fff1e 	bx	lr
    4008:	e381147f 	orr	r1, r1, #2130706432	; 0x7f000000
    400c:	e381173e 	orr	r1, r1, #16252928	; 0xf80000
    4010:	e8bd4070 	pop	{r4, r5, r6, lr}
    4014:	e12fff1e 	bx	lr

00004018 <__aeabi_ddiv>:
    4018:	e92d4070 	push	{r4, r5, r6, lr}
    401c:	e3a0c0ff 	mov	r12, #255	; 0xff
    4020:	e38ccc07 	orr	r12, r12, #1792	; 0x700
    4024:	e01c4a21 	ands	r4, r12, r1, lsr #20
    4028:	101c5a23 	andsne	r5, r12, r3, lsr #20
    402c:	1134000c 	teqne	r4, r12
    4030:	1135000c 	teqne	r5, r12
    4034:	0b00005e 	bleq	41b4 <__aeabi_ddiv+0x19c>
    4038:	e0444005 	sub	r4, r4, r5
    403c:	e021e003 	eor	lr, r1, r3
    4040:	e1925603 	orrs	r5, r2, r3, lsl #12
    4044:	e1a01601 	lsl	r1, r1, #12
    4048:	0a00004c 	beq	4180 <__aeabi_ddiv+0x168>
    404c:	e1a03603 	lsl	r3, r3, #12
    4050:	e3a05201 	mov	r5, #268435456	; 0x10000000
    4054:	e1853223 	orr	r3, r5, r3, lsr #4
    4058:	e1833c22 	orr	r3, r3, r2, lsr #24
    405c:	e1a02402 	lsl	r2, r2, #8
    4060:	e1855221 	orr	r5, r5, r1, lsr #4
    4064:	e1855c20 	orr	r5, r5, r0, lsr #24
    4068:	e1a06400 	lsl	r6, r0, #8
    406c:	e20e1102 	and	r1, lr, #-2147483648	; 0x80000000
    4070:	e1550003 	cmp	r5, r3
    4074:	01560002 	cmpeq	r6, r2
    4078:	e2a440fd 	adc	r4, r4, #253	; 0xfd
    407c:	e2844c03 	add	r4, r4, #768	; 0x300
    4080:	2a000001 	bcs	408c <__aeabi_ddiv+0x74>
    4084:	e1b030a3 	lsrs	r3, r3, #1
    4088:	e1a02062 	rrx	r2, r2
    408c:	e0566002 	subs	r6, r6, r2
    4090:	e0c55003 	sbc	r5, r5, r3
    4094:	e1b030a3 	lsrs	r3, r3, #1
    4098:	e1a02062 	rrx	r2, r2
    409c:	e3a00601 	mov	r0, #1048576	; 0x100000
    40a0:	e3a0c702 	mov	r12, #524288	; 0x80000
    40a4:	e056e002 	subs	lr, r6, r2
    40a8:	e0d5e003 	sbcs	lr, r5, r3
    40ac:	20466002 	subcs	r6, r6, r2
    40b0:	21a0500e 	movcs	r5, lr
    40b4:	2180000c 	orrcs	r0, r0, r12
    40b8:	e1b030a3 	lsrs	r3, r3, #1
    40bc:	e1a02062 	rrx	r2, r2
    40c0:	e056e002 	subs	lr, r6, r2
    40c4:	e0d5e003 	sbcs	lr, r5, r3
    40c8:	20466002 	subcs	r6, r6, r2
    40cc:	21a0500e 	movcs	r5, lr
    40d0:	218000ac 	orrcs	r0, r0, r12, lsr #1
    40d4:	e1b030a3 	lsrs	r3, r3, #1
    40d8:	e1a02062 	rrx	r2, r2
    40dc:	e056e002 	subs	lr, r6, r2
    40e0:	e0d5e003 	sbcs	lr, r5, r3
    40e4:	20466002 	subcs	r6, r6, r2
    40e8:	21a0500e 	movcs	r5, lr
    40ec:	2180012c 	orrcs	r0, r0, r12, lsr #2
    40f0:	e1b030a3 	lsrs	r3, r3, #1
    40f4:	e1a02062 	rrx	r2, r2
    40f8:	e056e002 	subs	lr, r6, r2
    40fc:	e0d5e003 	sbcs	lr, r5, r3
    4100:	20466002 	subcs	r6, r6, r2
    4104:	21a0500e 	movcs	r5, lr
    4108:	218001ac 	orrcs	r0, r0, r12, lsr #3
    410c:	e195e006 	orrs	lr, r5, r6
    4110:	0a00000d 	beq	414c <__aeabi_ddiv+0x134>
    4114:	e1a05205 	lsl	r5, r5, #4
    4118:	e1855e26 	orr	r5, r5, r6, lsr #28
    411c:	e1a06206 	lsl	r6, r6, #4
    4120:	e1a03183 	lsl	r3, r3, #3
    4124:	e1833ea2 	orr	r3, r3, r2, lsr #29
    4128:	e1a02182 	lsl	r2, r2, #3
    412c:	e1b0c22c 	lsrs	r12, r12, #4
    4130:	1affffdb 	bne	40a4 <__aeabi_ddiv+0x8c>
    4134:	e3110601 	tst	r1, #1048576	; 0x100000
    4138:	1a000006 	bne	4158 <__aeabi_ddiv+0x140>
    413c:	e1811000 	orr	r1, r1, r0
    4140:	e3a00000 	mov	r0, #0
    4144:	e3a0c102 	mov	r12, #-2147483648	; 0x80000000
    4148:	eaffffd5 	b	40a4 <__aeabi_ddiv+0x8c>
    414c:	e3110601 	tst	r1, #1048576	; 0x100000
    4150:	01811000 	orreq	r1, r1, r0
    4154:	03a00000 	moveq	r0, #0
    4158:	e254c0fd 	subs	r12, r4, #253	; 0xfd
    415c:	835c0c07 	cmphi	r12, #1792	; 0x700
    4160:	8affff43 	bhi	3e74 <__aeabi_dmul+0xec>
    4164:	e055c003 	subs	r12, r5, r3
    4168:	0056c002 	subseq	r12, r6, r2
    416c:	01b0c0a0 	lsrseq	r12, r0, #1
    4170:	e2b00000 	adcs	r0, r0, #0
    4174:	e0a11a04 	adc	r1, r1, r4, lsl #20
    4178:	e8bd4070 	pop	{r4, r5, r6, lr}
    417c:	e12fff1e 	bx	lr
    4180:	e20ee102 	and	lr, lr, #-2147483648	; 0x80000000
    4184:	e18e1621 	orr	r1, lr, r1, lsr #12
    4188:	e09440ac 	adds	r4, r4, r12, lsr #1
    418c:	c074500c 	rsbsgt	r5, r4, r12
    4190:	c1811a04 	orrgt	r1, r1, r4, lsl #20
    4194:	c8bd4070 	popgt	{r4, r5, r6, lr}
    4198:	c12fff1e 	bxgt	lr
    419c:	e3811601 	orr	r1, r1, #1048576	; 0x100000
    41a0:	e3a0e000 	mov	lr, #0
    41a4:	e2544001 	subs	r4, r4, #1
    41a8:	eaffff31 	b	3e74 <__aeabi_dmul+0xec>
    41ac:	e185e006 	orr	lr, r5, r6
    41b0:	eaffff2f 	b	3e74 <__aeabi_dmul+0xec>
    41b4:	e00c5a23 	and	r5, r12, r3, lsr #20
    41b8:	e134000c 	teq	r4, r12
    41bc:	0135000c 	teqeq	r5, r12
    41c0:	0affff90 	beq	4008 <__aeabi_dmul+0x280>
    41c4:	e134000c 	teq	r4, r12
    41c8:	1a000006 	bne	41e8 <__aeabi_ddiv+0x1d0>
    41cc:	e1904601 	orrs	r4, r0, r1, lsl #12
    41d0:	1affff8c 	bne	4008 <__aeabi_dmul+0x280>
    41d4:	e135000c 	teq	r5, r12
    41d8:	1affff83 	bne	3fec <__aeabi_dmul+0x264>
    41dc:	e1a00002 	mov	r0, r2
    41e0:	e1a01003 	mov	r1, r3
    41e4:	eaffff87 	b	4008 <__aeabi_dmul+0x280>
    41e8:	e135000c 	teq	r5, r12
    41ec:	1a000004 	bne	4204 <__aeabi_ddiv+0x1ec>
    41f0:	e1925603 	orrs	r5, r2, r3, lsl #12
    41f4:	0affff68 	beq	3f9c <__aeabi_dmul+0x214>
    41f8:	e1a00002 	mov	r0, r2
    41fc:	e1a01003 	mov	r1, r3
    4200:	eaffff80 	b	4008 <__aeabi_dmul+0x280>
    4204:	e1906081 	orrs	r6, r0, r1, lsl #1
    4208:	11926083 	orrsne	r6, r2, r3, lsl #1
    420c:	1affff48 	bne	3f34 <__aeabi_dmul+0x1ac>
    4210:	e1904081 	orrs	r4, r0, r1, lsl #1
    4214:	1affff74 	bne	3fec <__aeabi_dmul+0x264>
    4218:	e1925083 	orrs	r5, r2, r3, lsl #1
    421c:	1affff5e 	bne	3f9c <__aeabi_dmul+0x214>
    4220:	eaffff78 	b	4008 <__aeabi_dmul+0x280>

00004224 <__gedf2>:
    4224:	e3e0c000 	mvn	r12, #0
    4228:	ea000002 	b	4238 <__cmpdf2+0x4>

0000422c <__ledf2>:
    422c:	e3a0c001 	mov	r12, #1
    4230:	ea000000 	b	4238 <__cmpdf2+0x4>

00004234 <__cmpdf2>:
    4234:	e3a0c001 	mov	r12, #1
    4238:	e52dc004 	push	{r12}		; (str r12, [sp, #-4]!)
    423c:	e1a0c081 	lsl	r12, r1, #1
    4240:	e1f0cacc 	mvns	r12, r12, asr #21
    4244:	e1a0c083 	lsl	r12, r3, #1
    4248:	11f0cacc 	mvnsne	r12, r12, asr #21
    424c:	0a00000e 	beq	428c <__cmpdf2+0x58>
    4250:	e28dd004 	add	sp, sp, #4
    4254:	e190c081 	orrs	r12, r0, r1, lsl #1
    4258:	0192c083 	orrseq	r12, r2, r3, lsl #1
    425c:	11310003 	teqne	r1, r3
    4260:	01300002 	teqeq	r0, r2
    4264:	03a00000 	moveq	r0, #0
    4268:	012fff1e 	bxeq	lr
    426c:	e3700000 	cmn	r0, #0
    4270:	e1310003 	teq	r1, r3
    4274:	51510003 	cmppl	r1, r3
    4278:	01500002 	cmpeq	r0, r2
    427c:	21a00fc3 	asrcs	r0, r3, #31
    4280:	31e00fc3 	mvncc	r0, r3, asr #31
    4284:	e3800001 	orr	r0, r0, #1
    4288:	e12fff1e 	bx	lr
    428c:	e1a0c081 	lsl	r12, r1, #1
    4290:	e1f0cacc 	mvns	r12, r12, asr #21
    4294:	1a000001 	bne	42a0 <__cmpdf2+0x6c>
    4298:	e190c601 	orrs	r12, r0, r1, lsl #12
    429c:	1a000004 	bne	42b4 <__cmpdf2+0x80>
    42a0:	e1a0c083 	lsl	r12, r3, #1
    42a4:	e1f0cacc 	mvns	r12, r12, asr #21
    42a8:	1affffe8 	bne	4250 <__cmpdf2+0x1c>
    42ac:	e192c603 	orrs	r12, r2, r3, lsl #12
    42b0:	0affffe6 	beq	4250 <__cmpdf2+0x1c>
    42b4:	e49d0004 	pop	{r0}		; (ldr r0, [sp], #4)
    42b8:	e12fff1e 	bx	lr

000042bc <__aeabi_cdrcmple>:
    42bc:	e1a0c000 	mov	r12, r0
    42c0:	e1a00002 	mov	r0, r2
    42c4:	e1a0200c 	mov	r2, r12
    42c8:	e1a0c001 	mov	r12, r1
    42cc:	e1a01003 	mov	r1, r3
    42d0:	e1a0300c 	mov	r3, r12
    42d4:	eaffffff 	b	42d8 <__aeabi_cdcmpeq>

000042d8 <__aeabi_cdcmpeq>:
    42d8:	e92d4001 	push	{r0, lr}
    42dc:	ebffffd4 	bl	4234 <__cmpdf2>
    42e0:	e3500000 	cmp	r0, #0
    42e4:	43700000 	cmnmi	r0, #0
    42e8:	e8bd4001 	pop	{r0, lr}
    42ec:	e12fff1e 	bx	lr

000042f0 <__aeabi_dcmpeq>:
    42f0:	e52de008 	str	lr, [sp, #-8]!
    42f4:	ebfffff7 	bl	42d8 <__aeabi_cdcmpeq>
    42f8:	03a00001 	moveq	r0, #1
    42fc:	13a00000 	movne	r0, #0
    4300:	e49de008 	ldr	lr, [sp], #8
    4304:	e12fff1e 	bx	lr

00004308 <__aeabi_dcmplt>:
    4308:	e52de008 	str	lr, [sp, #-8]!
    430c:	ebfffff1 	bl	42d8 <__aeabi_cdcmpeq>
    4310:	33a00001 	movcc	r0, #1
    4314:	23a00000 	movcs	r0, #0
    4318:	e49de008 	ldr	lr, [sp], #8
    431c:	e12fff1e 	bx	lr

00004320 <__aeabi_dcmple>:
    4320:	e52de008 	str	lr, [sp, #-8]!
    4324:	ebffffeb 	bl	42d8 <__aeabi_cdcmpeq>
    4328:	93a00001 	movls	r0, #1
    432c:	83a00000 	movhi	r0, #0
    4330:	e49de008 	ldr	lr, [sp], #8
    4334:	e12fff1e 	bx	lr

00004338 <__aeabi_dcmpge>:
    4338:	e52de008 	str	lr, [sp, #-8]!
    433c:	ebffffde 	bl	42bc <__aeabi_cdrcmple>
    4340:	93a00001 	movls	r0, #1
    4344:	83a00000 	movhi	r0, #0
    4348:	e49de008 	ldr	lr, [sp], #8
    434c:	e12fff1e 	bx	lr

00004350 <__aeabi_dcmpgt>:
    4350:	e52de008 	str	lr, [sp, #-8]!
    4354:	ebffffd8 	bl	42bc <__aeabi_cdrcmple>
    4358:	33a00001 	movcc	r0, #1
    435c:	23a00000 	movcs	r0, #0
    4360:	e49de008 	ldr	lr, [sp], #8
    4364:	e12fff1e 	bx	lr

00004368 <__aeabi_d2iz>:
    4368:	e1a02081 	lsl	r2, r1, #1
    436c:	e2922602 	adds	r2, r2, #2097152	; 0x200000
    4370:	2a00000c 	bcs	43a8 <__aeabi_d2iz+0x40>
    4374:	5a000009 	bpl	43a0 <__aeabi_d2iz+0x38>
    4378:	e3e03e3e 	mvn	r3, #992	; 0x3e0
    437c:	e0532ac2 	subs	r2, r3, r2, asr #21
    4380:	9a00000a 	bls	43b0 <__aeabi_d2iz+0x48>
    4384:	e1a03581 	lsl	r3, r1, #11
    4388:	e3833102 	orr	r3, r3, #-2147483648	; 0x80000000
    438c:	e1833aa0 	orr	r3, r3, r0, lsr #21
    4390:	e3110102 	tst	r1, #-2147483648	; 0x80000000
    4394:	e1a00233 	lsr	r0, r3, r2
    4398:	12600000 	rsbne	r0, r0, #0
    439c:	e12fff1e 	bx	lr
    43a0:	e3a00000 	mov	r0, #0
    43a4:	e12fff1e 	bx	lr
    43a8:	e1900601 	orrs	r0, r0, r1, lsl #12
    43ac:	1a000002 	bne	43bc <__aeabi_d2iz+0x54>
    43b0:	e2110102 	ands	r0, r1, #-2147483648	; 0x80000000
    43b4:	03e00102 	mvneq	r0, #-2147483648	; 0x80000000
    43b8:	e12fff1e 	bx	lr
    43bc:	e3a00000 	mov	r0, #0
    43c0:	e12fff1e 	bx	lr

000043c4 <__aeabi_d2f>:
    43c4:	e1a02081 	lsl	r2, r1, #1
    43c8:	e2523207 	subs	r3, r2, #1879048192	; 0x70000000
    43cc:	2253c602 	subscs	r12, r3, #2097152	; 0x200000
    43d0:	227cc57f 	rsbscs	r12, r12, #532676608	; 0x1fc00000
    43d4:	9a000006 	bls	43f4 <__aeabi_d2f+0x30>
    43d8:	e201c102 	and	r12, r1, #-2147483648	; 0x80000000
    43dc:	e1a02180 	lsl	r2, r0, #3
    43e0:	e18c0ea0 	orr	r0, r12, r0, lsr #29
    43e4:	e3520102 	cmp	r2, #-2147483648	; 0x80000000
    43e8:	e0a00103 	adc	r0, r0, r3, lsl #2
    43ec:	03c00001 	biceq	r0, r0, #1
    43f0:	e12fff1e 	bx	lr
    43f4:	e3110101 	tst	r1, #1073741824	; 0x40000000
    43f8:	1a00000f 	bne	443c <__aeabi_d2f+0x78>
    43fc:	e293262e 	adds	r2, r3, #48234496	; 0x2e00000
    4400:	b2010102 	andlt	r0, r1, #-2147483648	; 0x80000000
    4404:	b12fff1e 	bxlt	lr
    4408:	e3811601 	orr	r1, r1, #1048576	; 0x100000
    440c:	e1a02aa2 	lsr	r2, r2, #21
    4410:	e2622018 	rsb	r2, r2, #24
    4414:	e262c020 	rsb	r12, r2, #32
    4418:	e1b03c10 	lsls	r3, r0, r12
    441c:	e1a00230 	lsr	r0, r0, r2
    4420:	13800001 	orrne	r0, r0, #1
    4424:	e1a03581 	lsl	r3, r1, #11
    4428:	e1a035a3 	lsr	r3, r3, #11
    442c:	e1800c13 	orr	r0, r0, r3, lsl r12
    4430:	e1a03233 	lsr	r3, r3, r2
    4434:	e1a03083 	lsl	r3, r3, #1
    4438:	eaffffe6 	b	43d8 <__aeabi_d2f+0x14>
    443c:	e1f03ac2 	mvns	r3, r2, asr #21
    4440:	1a000003 	bne	4454 <__aeabi_d2f+0x90>
    4444:	e1903601 	orrs	r3, r0, r1, lsl #12
    4448:	13a0047f 	movne	r0, #2130706432	; 0x7f000000
    444c:	13800503 	orrne	r0, r0, #12582912	; 0xc00000
    4450:	112fff1e 	bxne	lr
    4454:	e2010102 	and	r0, r1, #-2147483648	; 0x80000000
    4458:	e380047f 	orr	r0, r0, #2130706432	; 0x7f000000
    445c:	e3800502 	orr	r0, r0, #8388608	; 0x800000
    4460:	e12fff1e 	bx	lr

00004464 <__aeabi_frsub>:
    4464:	e2200102 	eor	r0, r0, #-2147483648	; 0x80000000
    4468:	ea000000 	b	4470 <__addsf3>

0000446c <__aeabi_fsub>:
    446c:	e2211102 	eor	r1, r1, #-2147483648	; 0x80000000

00004470 <__addsf3>:
    4470:	e1b02080 	lsls	r2, r0, #1
    4474:	11b03081 	lslsne	r3, r1, #1
    4478:	11320003 	teqne	r2, r3
    447c:	11f0cc42 	mvnsne	r12, r2, asr #24
    4480:	11f0cc43 	mvnsne	r12, r3, asr #24
    4484:	0a000047 	beq	45a8 <__addsf3+0x138>
    4488:	e1a02c22 	lsr	r2, r2, #24
    448c:	e0723c23 	rsbs	r3, r2, r3, lsr #24
    4490:	c0822003 	addgt	r2, r2, r3
    4494:	c0201001 	eorgt	r1, r0, r1
    4498:	c0210000 	eorgt	r0, r1, r0
    449c:	c0201001 	eorgt	r1, r0, r1
    44a0:	b2633000 	rsblt	r3, r3, #0
    44a4:	e3530019 	cmp	r3, #25
    44a8:	812fff1e 	bxhi	lr
    44ac:	e3100102 	tst	r0, #-2147483648	; 0x80000000
    44b0:	e3800502 	orr	r0, r0, #8388608	; 0x800000
    44b4:	e3c004ff 	bic	r0, r0, #-16777216	; 0xff000000
    44b8:	12600000 	rsbne	r0, r0, #0
    44bc:	e3110102 	tst	r1, #-2147483648	; 0x80000000
    44c0:	e3811502 	orr	r1, r1, #8388608	; 0x800000
    44c4:	e3c114ff 	bic	r1, r1, #-16777216	; 0xff000000
    44c8:	12611000 	rsbne	r1, r1, #0
    44cc:	e1320003 	teq	r2, r3
    44d0:	0a00002e 	beq	4590 <__addsf3+0x120>
    44d4:	e2422001 	sub	r2, r2, #1
    44d8:	e0900351 	adds	r0, r0, r1, asr r3
    44dc:	e2633020 	rsb	r3, r3, #32
    44e0:	e1a01311 	lsl	r1, r1, r3
    44e4:	e2003102 	and	r3, r0, #-2147483648	; 0x80000000
    44e8:	5a000001 	bpl	44f4 <__addsf3+0x84>
    44ec:	e2711000 	rsbs	r1, r1, #0
    44f0:	e2e00000 	rsc	r0, r0, #0
    44f4:	e3500502 	cmp	r0, #8388608	; 0x800000
    44f8:	3a00000b 	bcc	452c <__addsf3+0xbc>
    44fc:	e3500401 	cmp	r0, #16777216	; 0x1000000
    4500:	3a000004 	bcc	4518 <__addsf3+0xa8>
    4504:	e1b000a0 	lsrs	r0, r0, #1
    4508:	e1a01061 	rrx	r1, r1
    450c:	e2822001 	add	r2, r2, #1
    4510:	e35200fe 	cmp	r2, #254	; 0xfe
    4514:	2a000038 	bcs	45fc <__addsf3+0x18c>
    4518:	e3510102 	cmp	r1, #-2147483648	; 0x80000000
    451c:	e0a00b82 	adc	r0, r0, r2, lsl #23
    4520:	03c00001 	biceq	r0, r0, #1
    4524:	e1800003 	orr	r0, r0, r3
    4528:	e12fff1e 	bx	lr
    452c:	e1b01081 	lsls	r1, r1, #1
    4530:	e0a00000 	adc	r0, r0, r0
    4534:	e3100502 	tst	r0, #8388608	; 0x800000
    4538:	e2422001 	sub	r2, r2, #1
    453c:	1afffff5 	bne	4518 <__addsf3+0xa8>
    4540:	e1b0c620 	lsrs	r12, r0, #12
    4544:	01a00600 	lsleq	r0, r0, #12
    4548:	0242200c 	subeq	r2, r2, #12
    454c:	e31008ff 	tst	r0, #16711680	; 0xff0000
    4550:	01a00400 	lsleq	r0, r0, #8
    4554:	02422008 	subeq	r2, r2, #8
    4558:	e310060f 	tst	r0, #15728640	; 0xf00000
    455c:	01a00200 	lsleq	r0, r0, #4
    4560:	02422004 	subeq	r2, r2, #4
    4564:	e3100503 	tst	r0, #12582912	; 0xc00000
    4568:	01a00100 	lsleq	r0, r0, #2
    456c:	02422002 	subeq	r2, r2, #2
    4570:	e3500502 	cmp	r0, #8388608	; 0x800000
    4574:	31a00080 	lslcc	r0, r0, #1
    4578:	e2d22000 	sbcs	r2, r2, #0
    457c:	a0800b82 	addge	r0, r0, r2, lsl #23
    4580:	b2622000 	rsblt	r2, r2, #0
    4584:	a1800003 	orrge	r0, r0, r3
    4588:	b1830230 	orrlt	r0, r3, r0, lsr r2
    458c:	e12fff1e 	bx	lr
    4590:	e3320000 	teq	r2, #0
    4594:	e2211502 	eor	r1, r1, #8388608	; 0x800000
    4598:	02200502 	eoreq	r0, r0, #8388608	; 0x800000
    459c:	02822001 	addeq	r2, r2, #1
    45a0:	12433001 	subne	r3, r3, #1
    45a4:	eaffffca 	b	44d4 <__addsf3+0x64>
    45a8:	e1a03081 	lsl	r3, r1, #1
    45ac:	e1f0cc42 	mvns	r12, r2, asr #24
    45b0:	11f0cc43 	mvnsne	r12, r3, asr #24
    45b4:	0a000013 	beq	4608 <__addsf3+0x198>
    45b8:	e1320003 	teq	r2, r3
    45bc:	0a000002 	beq	45cc <__addsf3+0x15c>
    45c0:	e3320000 	teq	r2, #0
    45c4:	01a00001 	moveq	r0, r1
    45c8:	e12fff1e 	bx	lr
    45cc:	e1300001 	teq	r0, r1
    45d0:	13a00000 	movne	r0, #0
    45d4:	112fff1e 	bxne	lr
    45d8:	e31204ff 	tst	r2, #-16777216	; 0xff000000
    45dc:	1a000002 	bne	45ec <__addsf3+0x17c>
    45e0:	e1b00080 	lsls	r0, r0, #1
    45e4:	23800102 	orrcs	r0, r0, #-2147483648	; 0x80000000
    45e8:	e12fff1e 	bx	lr
    45ec:	e2922402 	adds	r2, r2, #33554432	; 0x2000000
    45f0:	32800502 	addcc	r0, r0, #8388608	; 0x800000
    45f4:	312fff1e 	bxcc	lr
    45f8:	e2003102 	and	r3, r0, #-2147483648	; 0x80000000
    45fc:	e383047f 	orr	r0, r3, #2130706432	; 0x7f000000
    4600:	e3800502 	orr	r0, r0, #8388608	; 0x800000
    4604:	e12fff1e 	bx	lr
    4608:	e1f02c42 	mvns	r2, r2, asr #24
    460c:	11a00001 	movne	r0, r1
    4610:	01f03c43 	mvnseq	r3, r3, asr #24
    4614:	11a01000 	movne	r1, r0
    4618:	e1b02480 	lsls	r2, r0, #9
    461c:	01b03481 	lslseq	r3, r1, #9
    4620:	01300001 	teqeq	r0, r1
    4624:	13800501 	orrne	r0, r0, #4194304	; 0x400000
    4628:	e12fff1e 	bx	lr

0000462c <__aeabi_ui2f>:
    462c:	e3a03000 	mov	r3, #0
    4630:	ea000001 	b	463c <__aeabi_i2f+0x8>

00004634 <__aeabi_i2f>:
    4634:	e2103102 	ands	r3, r0, #-2147483648	; 0x80000000
    4638:	42600000 	rsbmi	r0, r0, #0
    463c:	e1b0c000 	movs	r12, r0
    4640:	012fff1e 	bxeq	lr
    4644:	e383344b 	orr	r3, r3, #1258291200	; 0x4b000000
    4648:	e1a01000 	mov	r1, r0
    464c:	e3a00000 	mov	r0, #0
    4650:	ea00000f 	b	4694 <__aeabi_l2f+0x30>

00004654 <__aeabi_ul2f>:
    4654:	e1902001 	orrs	r2, r0, r1
    4658:	012fff1e 	bxeq	lr
    465c:	e3a03000 	mov	r3, #0
    4660:	ea000005 	b	467c <__aeabi_l2f+0x18>

00004664 <__aeabi_l2f>:
    4664:	e1902001 	orrs	r2, r0, r1
    4668:	012fff1e 	bxeq	lr
    466c:	e2113102 	ands	r3, r1, #-2147483648	; 0x80000000
    4670:	5a000001 	bpl	467c <__aeabi_l2f+0x18>
    4674:	e2700000 	rsbs	r0, r0, #0
    4678:	e2e11000 	rsc	r1, r1, #0
    467c:	e1b0c001 	movs	r12, r1
    4680:	01a0c000 	moveq	r12, r0
    4684:	01a01000 	moveq	r1, r0
    4688:	03a00000 	moveq	r0, #0
    468c:	e383345b 	orr	r3, r3, #1526726656	; 0x5b000000
    4690:	02433201 	subeq	r3, r3, #268435456	; 0x10000000
    4694:	e2433502 	sub	r3, r3, #8388608	; 0x800000
    4698:	e3a02017 	mov	r2, #23
    469c:	e35c0801 	cmp	r12, #65536	; 0x10000
    46a0:	21a0c82c 	lsrcs	r12, r12, #16
    46a4:	22422010 	subcs	r2, r2, #16
    46a8:	e35c0c01 	cmp	r12, #256	; 0x100
    46ac:	21a0c42c 	lsrcs	r12, r12, #8
    46b0:	22422008 	subcs	r2, r2, #8
    46b4:	e35c0010 	cmp	r12, #16
    46b8:	21a0c22c 	lsrcs	r12, r12, #4
    46bc:	22422004 	subcs	r2, r2, #4
    46c0:	e35c0004 	cmp	r12, #4
    46c4:	22422002 	subcs	r2, r2, #2
    46c8:	304220ac 	subcc	r2, r2, r12, lsr #1
    46cc:	e05221ac 	subs	r2, r2, r12, lsr #3
    46d0:	e0433b82 	sub	r3, r3, r2, lsl #23
    46d4:	ba000006 	blt	46f4 <__aeabi_l2f+0x90>
    46d8:	e0833211 	add	r3, r3, r1, lsl r2
    46dc:	e1a0c210 	lsl	r12, r0, r2
    46e0:	e2622020 	rsb	r2, r2, #32
    46e4:	e35c0102 	cmp	r12, #-2147483648	; 0x80000000
    46e8:	e0a30230 	adc	r0, r3, r0, lsr r2
    46ec:	03c00001 	biceq	r0, r0, #1
    46f0:	e12fff1e 	bx	lr
    46f4:	e2822020 	add	r2, r2, #32
    46f8:	e1a0c211 	lsl	r12, r1, r2
    46fc:	e2622020 	rsb	r2, r2, #32
    4700:	e190008c 	orrs	r0, r0, r12, lsl #1
    4704:	e0a30231 	adc	r0, r3, r1, lsr r2
    4708:	01c00fac 	biceq	r0, r0, r12, lsr #31
    470c:	e12fff1e 	bx	lr

00004710 <__aeabi_fmul>:
    4710:	e3a0c0ff 	mov	r12, #255	; 0xff
    4714:	e01c2ba0 	ands	r2, r12, r0, lsr #23
    4718:	101c3ba1 	andsne	r3, r12, r1, lsr #23
    471c:	1132000c 	teqne	r2, r12
    4720:	1133000c 	teqne	r3, r12
    4724:	0a00003e 	beq	4824 <__aeabi_fmul+0x114>
    4728:	e0822003 	add	r2, r2, r3
    472c:	e020c001 	eor	r12, r0, r1
    4730:	e1b00480 	lsls	r0, r0, #9
    4734:	11b01481 	lslsne	r1, r1, #9
    4738:	0a000010 	beq	4780 <__aeabi_fmul+0x70>
    473c:	e3a03302 	mov	r3, #134217728	; 0x8000000
    4740:	e18302a0 	orr	r0, r3, r0, lsr #5
    4744:	e18312a1 	orr	r1, r3, r1, lsr #5
    4748:	e0813190 	umull	r3, r1, r0, r1
    474c:	e20c0102 	and	r0, r12, #-2147483648	; 0x80000000
    4750:	e3510502 	cmp	r1, #8388608	; 0x800000
    4754:	31a01081 	lslcc	r1, r1, #1
    4758:	31811fa3 	orrcc	r1, r1, r3, lsr #31
    475c:	31a03083 	lslcc	r3, r3, #1
    4760:	e1800001 	orr	r0, r0, r1
    4764:	e2c2207f 	sbc	r2, r2, #127	; 0x7f
    4768:	e35200fd 	cmp	r2, #253	; 0xfd
    476c:	8a00000f 	bhi	47b0 <__aeabi_fmul+0xa0>
    4770:	e3530102 	cmp	r3, #-2147483648	; 0x80000000
    4774:	e0a00b82 	adc	r0, r0, r2, lsl #23
    4778:	03c00001 	biceq	r0, r0, #1
    477c:	e12fff1e 	bx	lr
    4780:	e3300000 	teq	r0, #0
    4784:	e20cc102 	and	r12, r12, #-2147483648	; 0x80000000
    4788:	01a01481 	lsleq	r1, r1, #9
    478c:	e18c04a0 	orr	r0, r12, r0, lsr #9
    4790:	e18004a1 	orr	r0, r0, r1, lsr #9
    4794:	e252207f 	subs	r2, r2, #127	; 0x7f
    4798:	c27230ff 	rsbsgt	r3, r2, #255	; 0xff
    479c:	c1800b82 	orrgt	r0, r0, r2, lsl #23
    47a0:	c12fff1e 	bxgt	lr
    47a4:	e3800502 	orr	r0, r0, #8388608	; 0x800000
    47a8:	e3a03000 	mov	r3, #0
    47ac:	e2522001 	subs	r2, r2, #1
    47b0:	ca000035 	bgt	488c <__aeabi_fmul+0x17c>
    47b4:	e3720019 	cmn	r2, #25
    47b8:	d2000102 	andle	r0, r0, #-2147483648	; 0x80000000
    47bc:	d12fff1e 	bxle	lr
    47c0:	e2622000 	rsb	r2, r2, #0
    47c4:	e1b01080 	lsls	r1, r0, #1
    47c8:	e1a01231 	lsr	r1, r1, r2
    47cc:	e2622020 	rsb	r2, r2, #32
    47d0:	e1a0c210 	lsl	r12, r0, r2
    47d4:	e1b00061 	rrxs	r0, r1
    47d8:	e2a00000 	adc	r0, r0, #0
    47dc:	e193308c 	orrs	r3, r3, r12, lsl #1
    47e0:	01c00fac 	biceq	r0, r0, r12, lsr #31
    47e4:	e12fff1e 	bx	lr
    47e8:	e3320000 	teq	r2, #0
    47ec:	e200c102 	and	r12, r0, #-2147483648	; 0x80000000
    47f0:	01a00080 	lsleq	r0, r0, #1
    47f4:	03100502 	tsteq	r0, #8388608	; 0x800000
    47f8:	02422001 	subeq	r2, r2, #1
    47fc:	0afffffb 	beq	47f0 <__aeabi_fmul+0xe0>
    4800:	e180000c 	orr	r0, r0, r12
    4804:	e3330000 	teq	r3, #0
    4808:	e201c102 	and	r12, r1, #-2147483648	; 0x80000000
    480c:	01a01081 	lsleq	r1, r1, #1
    4810:	03110502 	tsteq	r1, #8388608	; 0x800000
    4814:	02433001 	subeq	r3, r3, #1
    4818:	0afffffb 	beq	480c <__aeabi_fmul+0xfc>
    481c:	e181100c 	orr	r1, r1, r12
    4820:	eaffffc0 	b	4728 <__aeabi_fmul+0x18>
    4824:	e00c3ba1 	and	r3, r12, r1, lsr #23
    4828:	e132000c 	teq	r2, r12
    482c:	1133000c 	teqne	r3, r12
    4830:	0a000005 	beq	484c <__aeabi_fmul+0x13c>
    4834:	e3d0c102 	bics	r12, r0, #-2147483648	; 0x80000000
    4838:	13d1c102 	bicsne	r12, r1, #-2147483648	; 0x80000000
    483c:	1affffe9 	bne	47e8 <__aeabi_fmul+0xd8>
    4840:	e0200001 	eor	r0, r0, r1
    4844:	e2000102 	and	r0, r0, #-2147483648	; 0x80000000
    4848:	e12fff1e 	bx	lr
    484c:	e3300000 	teq	r0, #0
    4850:	13300102 	teqne	r0, #-2147483648	; 0x80000000
    4854:	01a00001 	moveq	r0, r1
    4858:	13310000 	teqne	r1, #0
    485c:	13310102 	teqne	r1, #-2147483648	; 0x80000000
    4860:	0a00000d 	beq	489c <__aeabi_fmul+0x18c>
    4864:	e132000c 	teq	r2, r12
    4868:	1a000001 	bne	4874 <__aeabi_fmul+0x164>
    486c:	e1b02480 	lsls	r2, r0, #9
    4870:	1a000009 	bne	489c <__aeabi_fmul+0x18c>
    4874:	e133000c 	teq	r3, r12
    4878:	1a000002 	bne	4888 <__aeabi_fmul+0x178>
    487c:	e1b03481 	lsls	r3, r1, #9
    4880:	11a00001 	movne	r0, r1
    4884:	1a000004 	bne	489c <__aeabi_fmul+0x18c>
    4888:	e0200001 	eor	r0, r0, r1
    488c:	e2000102 	and	r0, r0, #-2147483648	; 0x80000000
    4890:	e380047f 	orr	r0, r0, #2130706432	; 0x7f000000
    4894:	e3800502 	orr	r0, r0, #8388608	; 0x800000
    4898:	e12fff1e 	bx	lr
    489c:	e380047f 	orr	r0, r0, #2130706432	; 0x7f000000
    48a0:	e3800503 	orr	r0, r0, #12582912	; 0xc00000
    48a4:	e12fff1e 	bx	lr

000048a8 <__aeabi_fdiv>:
    48a8:	e3a0c0ff 	mov	r12, #255	; 0xff
    48ac:	e01c2ba0 	ands	r2, r12, r0, lsr #23
    48b0:	101c3ba1 	andsne	r3, r12, r1, lsr #23
    48b4:	1132000c 	teqne	r2, r12
    48b8:	1133000c 	teqne	r3, r12
    48bc:	0a00003a 	beq	49ac <__aeabi_fdiv+0x104>
    48c0:	e0422003 	sub	r2, r2, r3
    48c4:	e020c001 	eor	r12, r0, r1
    48c8:	e1b01481 	lsls	r1, r1, #9
    48cc:	e1a00480 	lsl	r0, r0, #9
    48d0:	0a00001c 	beq	4948 <__aeabi_fdiv+0xa0>
    48d4:	e3a03201 	mov	r3, #268435456	; 0x10000000
    48d8:	e1831221 	orr	r1, r3, r1, lsr #4
    48dc:	e1833220 	orr	r3, r3, r0, lsr #4
    48e0:	e20c0102 	and	r0, r12, #-2147483648	; 0x80000000
    48e4:	e1530001 	cmp	r3, r1
    48e8:	31a03083 	lslcc	r3, r3, #1
    48ec:	e2a2207d 	adc	r2, r2, #125	; 0x7d
    48f0:	e3a0c502 	mov	r12, #8388608	; 0x800000
    48f4:	e1530001 	cmp	r3, r1
    48f8:	20433001 	subcs	r3, r3, r1
    48fc:	2180000c 	orrcs	r0, r0, r12
    4900:	e15300a1 	cmp	r3, r1, lsr #1
    4904:	204330a1 	subcs	r3, r3, r1, lsr #1
    4908:	218000ac 	orrcs	r0, r0, r12, lsr #1
    490c:	e1530121 	cmp	r3, r1, lsr #2
    4910:	20433121 	subcs	r3, r3, r1, lsr #2
    4914:	2180012c 	orrcs	r0, r0, r12, lsr #2
    4918:	e15301a1 	cmp	r3, r1, lsr #3
    491c:	204331a1 	subcs	r3, r3, r1, lsr #3
    4920:	218001ac 	orrcs	r0, r0, r12, lsr #3
    4924:	e1b03203 	lsls	r3, r3, #4
    4928:	11b0c22c 	lsrsne	r12, r12, #4
    492c:	1afffff0 	bne	48f4 <__aeabi_fdiv+0x4c>
    4930:	e35200fd 	cmp	r2, #253	; 0xfd
    4934:	8affff9d 	bhi	47b0 <__aeabi_fmul+0xa0>
    4938:	e1530001 	cmp	r3, r1
    493c:	e0a00b82 	adc	r0, r0, r2, lsl #23
    4940:	03c00001 	biceq	r0, r0, #1
    4944:	e12fff1e 	bx	lr
    4948:	e20cc102 	and	r12, r12, #-2147483648	; 0x80000000
    494c:	e18c04a0 	orr	r0, r12, r0, lsr #9
    4950:	e292207f 	adds	r2, r2, #127	; 0x7f
    4954:	c27230ff 	rsbsgt	r3, r2, #255	; 0xff
    4958:	c1800b82 	orrgt	r0, r0, r2, lsl #23
    495c:	c12fff1e 	bxgt	lr
    4960:	e3800502 	orr	r0, r0, #8388608	; 0x800000
    4964:	e3a03000 	mov	r3, #0
    4968:	e2522001 	subs	r2, r2, #1
    496c:	eaffff8f 	b	47b0 <__aeabi_fmul+0xa0>
    4970:	e3320000 	teq	r2, #0
    4974:	e200c102 	and	r12, r0, #-2147483648	; 0x80000000
    4978:	01a00080 	lsleq	r0, r0, #1
    497c:	03100502 	tsteq	r0, #8388608	; 0x800000
    4980:	02422001 	subeq	r2, r2, #1
    4984:	0afffffb 	beq	4978 <__aeabi_fdiv+0xd0>
    4988:	e180000c 	orr	r0, r0, r12
    498c:	e3330000 	teq	r3, #0
    4990:	e201c102 	and	r12, r1, #-2147483648	; 0x80000000
    4994:	01a01081 	lsleq	r1, r1, #1
    4998:	03110502 	tsteq	r1, #8388608	; 0x800000
    499c:	02433001 	subeq	r3, r3, #1
    49a0:	0afffffb 	beq	4994 <__aeabi_fdiv+0xec>
    49a4:	e181100c 	orr	r1, r1, r12
    49a8:	eaffffc4 	b	48c0 <__aeabi_fdiv+0x18>
    49ac:	e00c3ba1 	and	r3, r12, r1, lsr #23
    49b0:	e132000c 	teq	r2, r12
    49b4:	1a000005 	bne	49d0 <__aeabi_fdiv+0x128>
    49b8:	e1b02480 	lsls	r2, r0, #9
    49bc:	1affffb6 	bne	489c <__aeabi_fmul+0x18c>
    49c0:	e133000c 	teq	r3, r12
    49c4:	1affffaf 	bne	4888 <__aeabi_fmul+0x178>
    49c8:	e1a00001 	mov	r0, r1
    49cc:	eaffffb2 	b	489c <__aeabi_fmul+0x18c>
    49d0:	e133000c 	teq	r3, r12
    49d4:	1a000003 	bne	49e8 <__aeabi_fdiv+0x140>
    49d8:	e1b03481 	lsls	r3, r1, #9
    49dc:	0affff97 	beq	4840 <__aeabi_fmul+0x130>
    49e0:	e1a00001 	mov	r0, r1
    49e4:	eaffffac 	b	489c <__aeabi_fmul+0x18c>
    49e8:	e3d0c102 	bics	r12, r0, #-2147483648	; 0x80000000
    49ec:	13d1c102 	bicsne	r12, r1, #-2147483648	; 0x80000000
    49f0:	1affffde 	bne	4970 <__aeabi_fdiv+0xc8>
    49f4:	e3d02102 	bics	r2, r0, #-2147483648	; 0x80000000
    49f8:	1affffa2 	bne	4888 <__aeabi_fmul+0x178>
    49fc:	e3d13102 	bics	r3, r1, #-2147483648	; 0x80000000
    4a00:	1affff8e 	bne	4840 <__aeabi_fmul+0x130>
    4a04:	eaffffa4 	b	489c <__aeabi_fmul+0x18c>

00004a08 <__gesf2>:
    4a08:	e3e0c000 	mvn	r12, #0
    4a0c:	ea000002 	b	4a1c <__cmpsf2+0x4>

00004a10 <__lesf2>:
    4a10:	e3a0c001 	mov	r12, #1
    4a14:	ea000000 	b	4a1c <__cmpsf2+0x4>

00004a18 <__cmpsf2>:
    4a18:	e3a0c001 	mov	r12, #1
    4a1c:	e52dc004 	push	{r12}		; (str r12, [sp, #-4]!)
    4a20:	e1a02080 	lsl	r2, r0, #1
    4a24:	e1a03081 	lsl	r3, r1, #1
    4a28:	e1f0cc42 	mvns	r12, r2, asr #24
    4a2c:	11f0cc43 	mvnsne	r12, r3, asr #24
    4a30:	0a000007 	beq	4a54 <__cmpsf2+0x3c>
    4a34:	e28dd004 	add	sp, sp, #4
    4a38:	e192c0a3 	orrs	r12, r2, r3, lsr #1
    4a3c:	11300001 	teqne	r0, r1
    4a40:	50520003 	subspl	r0, r2, r3
    4a44:	81a00fc1 	asrhi	r0, r1, #31
    4a48:	31e00fc1 	mvncc	r0, r1, asr #31
    4a4c:	13800001 	orrne	r0, r0, #1
    4a50:	e12fff1e 	bx	lr
    4a54:	e1f0cc42 	mvns	r12, r2, asr #24
    4a58:	1a000001 	bne	4a64 <__cmpsf2+0x4c>
    4a5c:	e1b0c480 	lsls	r12, r0, #9
    4a60:	1a000003 	bne	4a74 <__cmpsf2+0x5c>
    4a64:	e1f0cc43 	mvns	r12, r3, asr #24
    4a68:	1afffff1 	bne	4a34 <__cmpsf2+0x1c>
    4a6c:	e1b0c481 	lsls	r12, r1, #9
    4a70:	0affffef 	beq	4a34 <__cmpsf2+0x1c>
    4a74:	e49d0004 	pop	{r0}		; (ldr r0, [sp], #4)
    4a78:	e12fff1e 	bx	lr

00004a7c <__aeabi_cfrcmple>:
    4a7c:	e1a0c000 	mov	r12, r0
    4a80:	e1a00001 	mov	r0, r1
    4a84:	e1a0100c 	mov	r1, r12
    4a88:	eaffffff 	b	4a8c <__aeabi_cfcmpeq>

00004a8c <__aeabi_cfcmpeq>:
    4a8c:	e92d400f 	push	{r0, r1, r2, r3, lr}
    4a90:	ebffffe0 	bl	4a18 <__cmpsf2>
    4a94:	e3500000 	cmp	r0, #0
    4a98:	43700000 	cmnmi	r0, #0
    4a9c:	e8bd400f 	pop	{r0, r1, r2, r3, lr}
    4aa0:	e12fff1e 	bx	lr

00004aa4 <__aeabi_fcmpeq>:
    4aa4:	e52de008 	str	lr, [sp, #-8]!
    4aa8:	ebfffff7 	bl	4a8c <__aeabi_cfcmpeq>
    4aac:	03a00001 	moveq	r0, #1
    4ab0:	13a00000 	movne	r0, #0
    4ab4:	e49de008 	ldr	lr, [sp], #8
    4ab8:	e12fff1e 	bx	lr

00004abc <__aeabi_fcmplt>:
    4abc:	e52de008 	str	lr, [sp, #-8]!
    4ac0:	ebfffff1 	bl	4a8c <__aeabi_cfcmpeq>
    4ac4:	33a00001 	movcc	r0, #1
    4ac8:	23a00000 	movcs	r0, #0
    4acc:	e49de008 	ldr	lr, [sp], #8
    4ad0:	e12fff1e 	bx	lr

00004ad4 <__aeabi_fcmple>:
    4ad4:	e52de008 	str	lr, [sp, #-8]!
    4ad8:	ebffffeb 	bl	4a8c <__aeabi_cfcmpeq>
    4adc:	93a00001 	movls	r0, #1
    4ae0:	83a00000 	movhi	r0, #0
    4ae4:	e49de008 	ldr	lr, [sp], #8
    4ae8:	e12fff1e 	bx	lr

00004aec <__aeabi_fcmpge>:
    4aec:	e52de008 	str	lr, [sp, #-8]!
    4af0:	ebffffe1 	bl	4a7c <__aeabi_cfrcmple>
    4af4:	93a00001 	movls	r0, #1
    4af8:	83a00000 	movhi	r0, #0
    4afc:	e49de008 	ldr	lr, [sp], #8
    4b00:	e12fff1e 	bx	lr

00004b04 <__aeabi_fcmpgt>:
    4b04:	e52de008 	str	lr, [sp, #-8]!
    4b08:	ebffffdb 	bl	4a7c <__aeabi_cfrcmple>
    4b0c:	33a00001 	movcc	r0, #1
    4b10:	23a00000 	movcs	r0, #0
    4b14:	e49de008 	ldr	lr, [sp], #8
    4b18:	e12fff1e 	bx	lr

00004b1c <__aeabi_f2iz>:
    4b1c:	e1a02080 	lsl	r2, r0, #1
    4b20:	e352047f 	cmp	r2, #2130706432	; 0x7f000000
    4b24:	3a000008 	bcc	4b4c <__aeabi_f2iz+0x30>
    4b28:	e3a0309e 	mov	r3, #158	; 0x9e
    4b2c:	e0532c22 	subs	r2, r3, r2, lsr #24
    4b30:	9a000007 	bls	4b54 <__aeabi_f2iz+0x38>
    4b34:	e1a03400 	lsl	r3, r0, #8
    4b38:	e3833102 	orr	r3, r3, #-2147483648	; 0x80000000
    4b3c:	e3100102 	tst	r0, #-2147483648	; 0x80000000
    4b40:	e1a00233 	lsr	r0, r3, r2
    4b44:	12600000 	rsbne	r0, r0, #0
    4b48:	e12fff1e 	bx	lr
    4b4c:	e3a00000 	mov	r0, #0
    4b50:	e12fff1e 	bx	lr
    4b54:	e3720061 	cmn	r2, #97	; 0x61
    4b58:	1a000001 	bne	4b64 <__aeabi_f2iz+0x48>
    4b5c:	e1b02480 	lsls	r2, r0, #9
    4b60:	1a000002 	bne	4b70 <__aeabi_f2iz+0x54>
    4b64:	e2100102 	ands	r0, r0, #-2147483648	; 0x80000000
    4b68:	03e00102 	mvneq	r0, #-2147483648	; 0x80000000
    4b6c:	e12fff1e 	bx	lr
    4b70:	e3a00000 	mov	r0, #0
    4b74:	e12fff1e 	bx	lr

00004b78 <atexit>:
    4b78:	e1a01000 	mov	r1, r0
    4b7c:	e3a00000 	mov	r0, #0
    4b80:	e92d4008 	push	{r3, lr}
    4b84:	e1a02000 	mov	r2, r0
    4b88:	e1a03000 	mov	r3, r0
    4b8c:	eb000012 	bl	4bdc <__register_exitproc>
    4b90:	e8bd4008 	pop	{r3, lr}
    4b94:	e12fff1e 	bx	lr

00004b98 <__errno>:
    4b98:	e59f3004 	ldr	r3, [pc, #4]	; 4ba4 <__errno+0xc>
    4b9c:	e5930000 	ldr	r0, [r3]
    4ba0:	e12fff1e 	bx	lr
    4ba4:	00005238 	.word	0x00005238

00004ba8 <exit>:
    4ba8:	e92d4008 	push	{r3, lr}
    4bac:	e3a01000 	mov	r1, #0
    4bb0:	e1a04000 	mov	r4, r0
    4bb4:	eb000045 	bl	4cd0 <__call_exitprocs>
    4bb8:	e59f3018 	ldr	r3, [pc, #24]	; 4bd8 <exit+0x30>
    4bbc:	e5930000 	ldr	r0, [r3]
    4bc0:	e590303c 	ldr	r3, [r0, #60]	; 0x3c
    4bc4:	e3530000 	cmp	r3, #0
    4bc8:	11a0e00f 	movne	lr, pc
    4bcc:	112fff13 	bxne	r3
    4bd0:	e1a00004 	mov	r0, r4
    4bd4:	eb0000c9 	bl	4f00 <_exit>
    4bd8:	000051d0 	.word	0x000051d0

00004bdc <__register_exitproc>:
    4bdc:	e59fc0e4 	ldr	r12, [pc, #228]	; 4cc8 <__register_exitproc+0xec>
    4be0:	e92d41f0 	push	{r4, r5, r6, r7, r8, lr}
    4be4:	e59c4000 	ldr	r4, [r12]
    4be8:	e594c148 	ldr	r12, [r4, #328]	; 0x148
    4bec:	e35c0000 	cmp	r12, #0
    4bf0:	0284cf53 	addeq	r12, r4, #332	; 0x14c
    4bf4:	e59c5004 	ldr	r5, [r12, #4]
    4bf8:	0584c148 	streq	r12, [r4, #328]	; 0x148
    4bfc:	e355001f 	cmp	r5, #31
    4c00:	e24dd010 	sub	sp, sp, #16
    4c04:	e1a06000 	mov	r6, r0
    4c08:	da000015 	ble	4c64 <__register_exitproc+0x88>
    4c0c:	e59f00b8 	ldr	r0, [pc, #184]	; 4ccc <__register_exitproc+0xf0>
    4c10:	e3500000 	cmp	r0, #0
    4c14:	1a000001 	bne	4c20 <__register_exitproc+0x44>
    4c18:	e3e00000 	mvn	r0, #0
    4c1c:	ea000018 	b	4c84 <__register_exitproc+0xa8>
    4c20:	e3a00e19 	mov	r0, #400	; 0x190
    4c24:	e58d100c 	str	r1, [sp, #12]
    4c28:	e58d2008 	str	r2, [sp, #8]
    4c2c:	e58d3004 	str	r3, [sp, #4]
    4c30:	e320f000 	nop	{0}
    4c34:	e250c000 	subs	r12, r0, #0
    4c38:	e59d100c 	ldr	r1, [sp, #12]
    4c3c:	e59d2008 	ldr	r2, [sp, #8]
    4c40:	e59d3004 	ldr	r3, [sp, #4]
    4c44:	0afffff3 	beq	4c18 <__register_exitproc+0x3c>
    4c48:	e5945148 	ldr	r5, [r4, #328]	; 0x148
    4c4c:	e3a00000 	mov	r0, #0
    4c50:	e58c0004 	str	r0, [r12, #4]
    4c54:	e58c5000 	str	r5, [r12]
    4c58:	e584c148 	str	r12, [r4, #328]	; 0x148
    4c5c:	e58c0188 	str	r0, [r12, #392]	; 0x188
    4c60:	e58c018c 	str	r0, [r12, #396]	; 0x18c
    4c64:	e3560000 	cmp	r6, #0
    4c68:	e59c4004 	ldr	r4, [r12, #4]
    4c6c:	1a000007 	bne	4c90 <__register_exitproc+0xb4>
    4c70:	e2843002 	add	r3, r4, #2
    4c74:	e2844001 	add	r4, r4, #1
    4c78:	e78c1103 	str	r1, [r12, r3, lsl #2]
    4c7c:	e58c4004 	str	r4, [r12, #4]
    4c80:	e3a00000 	mov	r0, #0
    4c84:	e28dd010 	add	sp, sp, #16
    4c88:	e8bd41f0 	pop	{r4, r5, r6, r7, r8, lr}
    4c8c:	e12fff1e 	bx	lr
    4c90:	e3a00001 	mov	r0, #1
    4c94:	e1a00410 	lsl	r0, r0, r4
    4c98:	e08c8104 	add	r8, r12, r4, lsl #2
    4c9c:	e3560002 	cmp	r6, #2
    4ca0:	e59c7188 	ldr	r7, [r12, #392]	; 0x188
    4ca4:	e5883108 	str	r3, [r8, #264]	; 0x108
    4ca8:	059c318c 	ldreq	r3, [r12, #396]	; 0x18c
    4cac:	e1877000 	orr	r7, r7, r0
    4cb0:	01830000 	orreq	r0, r3, r0
    4cb4:	e1a05008 	mov	r5, r8
    4cb8:	e5882088 	str	r2, [r8, #136]	; 0x88
    4cbc:	e58c7188 	str	r7, [r12, #392]	; 0x188
    4cc0:	058c018c 	streq	r0, [r12, #396]	; 0x18c
    4cc4:	eaffffe9 	b	4c70 <__register_exitproc+0x94>
    4cc8:	000051d0 	.word	0x000051d0
    4ccc:	00000000 	.word	0x00000000

00004cd0 <__call_exitprocs>:
    4cd0:	e92d4ff0 	push	{r4, r5, r6, r7, r8, r9, r10, r11, lr}
    4cd4:	e59f3168 	ldr	r3, [pc, #360]	; 4e44 <__call_exitprocs+0x174>
    4cd8:	e5933000 	ldr	r3, [r3]
    4cdc:	e24dd014 	sub	sp, sp, #20
    4ce0:	e58d3004 	str	r3, [sp, #4]
    4ce4:	e2833f52 	add	r3, r3, #328	; 0x148
    4ce8:	e58d0008 	str	r0, [sp, #8]
    4cec:	e58d300c 	str	r3, [sp, #12]
    4cf0:	e1a07001 	mov	r7, r1
    4cf4:	e3a08001 	mov	r8, #1
    4cf8:	e59d3004 	ldr	r3, [sp, #4]
    4cfc:	e5936148 	ldr	r6, [r3, #328]	; 0x148
    4d00:	e3560000 	cmp	r6, #0
    4d04:	e59db00c 	ldr	r11, [sp, #12]
    4d08:	0a000033 	beq	4ddc <__call_exitprocs+0x10c>
    4d0c:	e5965004 	ldr	r5, [r6, #4]
    4d10:	e2554001 	subs	r4, r5, #1
    4d14:	5286a088 	addpl	r10, r6, #136	; 0x88
    4d18:	5285501f 	addpl	r5, r5, #31
    4d1c:	508a5105 	addpl	r5, r10, r5, lsl #2
    4d20:	5a000007 	bpl	4d44 <__call_exitprocs+0x74>
    4d24:	ea000029 	b	4dd0 <__call_exitprocs+0x100>
    4d28:	e5953000 	ldr	r3, [r5]
    4d2c:	e1530007 	cmp	r3, r7
    4d30:	0a000005 	beq	4d4c <__call_exitprocs+0x7c>
    4d34:	e2444001 	sub	r4, r4, #1
    4d38:	e3740001 	cmn	r4, #1
    4d3c:	e2455004 	sub	r5, r5, #4
    4d40:	0a000022 	beq	4dd0 <__call_exitprocs+0x100>
    4d44:	e3570000 	cmp	r7, #0
    4d48:	1afffff6 	bne	4d28 <__call_exitprocs+0x58>
    4d4c:	e5963004 	ldr	r3, [r6, #4]
    4d50:	e06a2005 	rsb	r2, r10, r5
    4d54:	e2433001 	sub	r3, r3, #1
    4d58:	e0862002 	add	r2, r6, r2
    4d5c:	e1530004 	cmp	r3, r4
    4d60:	e5123078 	ldr	r3, [r2, #-120]	; 0xffffff88
    4d64:	13a01000 	movne	r1, #0
    4d68:	05864004 	streq	r4, [r6, #4]
    4d6c:	15021078 	strne	r1, [r2, #-120]	; 0xffffff88
    4d70:	e3530000 	cmp	r3, #0
    4d74:	0affffee 	beq	4d34 <__call_exitprocs+0x64>
    4d78:	e1a02418 	lsl	r2, r8, r4
    4d7c:	e5961188 	ldr	r1, [r6, #392]	; 0x188
    4d80:	e1120001 	tst	r2, r1
    4d84:	e5969004 	ldr	r9, [r6, #4]
    4d88:	0a000016 	beq	4de8 <__call_exitprocs+0x118>
    4d8c:	e596118c 	ldr	r1, [r6, #396]	; 0x18c
    4d90:	e1120001 	tst	r2, r1
    4d94:	1a000016 	bne	4df4 <__call_exitprocs+0x124>
    4d98:	e59d0008 	ldr	r0, [sp, #8]
    4d9c:	e5151080 	ldr	r1, [r5, #-128]	; 0xffffff80
    4da0:	e1a0e00f 	mov	lr, pc
    4da4:	e12fff13 	bx	r3
    4da8:	e5963004 	ldr	r3, [r6, #4]
    4dac:	e1530009 	cmp	r3, r9
    4db0:	1affffd0 	bne	4cf8 <__call_exitprocs+0x28>
    4db4:	e59b3000 	ldr	r3, [r11]
    4db8:	e1530006 	cmp	r3, r6
    4dbc:	1affffcd 	bne	4cf8 <__call_exitprocs+0x28>
    4dc0:	e2444001 	sub	r4, r4, #1
    4dc4:	e3740001 	cmn	r4, #1
    4dc8:	e2455004 	sub	r5, r5, #4
    4dcc:	1affffdc 	bne	4d44 <__call_exitprocs+0x74>
    4dd0:	e59f1070 	ldr	r1, [pc, #112]	; 4e48 <__call_exitprocs+0x178>
    4dd4:	e3510000 	cmp	r1, #0
    4dd8:	1a000009 	bne	4e04 <__call_exitprocs+0x134>
    4ddc:	e28dd014 	add	sp, sp, #20
    4de0:	e8bd4ff0 	pop	{r4, r5, r6, r7, r8, r9, r10, r11, lr}
    4de4:	e12fff1e 	bx	lr
    4de8:	e1a0e00f 	mov	lr, pc
    4dec:	e12fff13 	bx	r3
    4df0:	eaffffec 	b	4da8 <__call_exitprocs+0xd8>
    4df4:	e5150080 	ldr	r0, [r5, #-128]	; 0xffffff80
    4df8:	e1a0e00f 	mov	lr, pc
    4dfc:	e12fff13 	bx	r3
    4e00:	eaffffe8 	b	4da8 <__call_exitprocs+0xd8>
    4e04:	e5963004 	ldr	r3, [r6, #4]
    4e08:	e3530000 	cmp	r3, #0
    4e0c:	e5963000 	ldr	r3, [r6]
    4e10:	1a000008 	bne	4e38 <__call_exitprocs+0x168>
    4e14:	e3530000 	cmp	r3, #0
    4e18:	0a000006 	beq	4e38 <__call_exitprocs+0x168>
    4e1c:	e1a00006 	mov	r0, r6
    4e20:	e58b3000 	str	r3, [r11]
    4e24:	e320f000 	nop	{0}
    4e28:	e59b6000 	ldr	r6, [r11]
    4e2c:	e3560000 	cmp	r6, #0
    4e30:	1affffb5 	bne	4d0c <__call_exitprocs+0x3c>
    4e34:	eaffffe8 	b	4ddc <__call_exitprocs+0x10c>
    4e38:	e1a0b006 	mov	r11, r6
    4e3c:	e1a06003 	mov	r6, r3
    4e40:	eafffff9 	b	4e2c <__call_exitprocs+0x15c>
    4e44:	000051d0 	.word	0x000051d0
    4e48:	00000000 	.word	0x00000000

00004e4c <register_fini>:
    4e4c:	e92d4008 	push	{r3, lr}
    4e50:	e59f3010 	ldr	r3, [pc, #16]	; 4e68 <register_fini+0x1c>
    4e54:	e3530000 	cmp	r3, #0
    4e58:	159f000c 	ldrne	r0, [pc, #12]	; 4e6c <register_fini+0x20>
    4e5c:	1bffff45 	blne	4b78 <atexit>
    4e60:	e8bd4008 	pop	{r3, lr}
    4e64:	e12fff1e 	bx	lr
    4e68:	000051f8 	.word	0x000051f8
    4e6c:	00004e70 	.word	0x00004e70

00004e70 <__libc_fini_array>:
    4e70:	e92d4038 	push	{r3, r4, r5, lr}
    4e74:	e59f5030 	ldr	r5, [pc, #48]	; 4eac <__libc_fini_array+0x3c>
    4e78:	e59f4030 	ldr	r4, [pc, #48]	; 4eb0 <__libc_fini_array+0x40>
    4e7c:	e0654004 	rsb	r4, r5, r4
    4e80:	e1b04144 	asrs	r4, r4, #2
    4e84:	10855104 	addne	r5, r5, r4, lsl #2
    4e88:	0a000004 	beq	4ea0 <__libc_fini_array+0x30>
    4e8c:	e5353004 	ldr	r3, [r5, #-4]!
    4e90:	e1a0e00f 	mov	lr, pc
    4e94:	e12fff13 	bx	r3
    4e98:	e2544001 	subs	r4, r4, #1
    4e9c:	1afffffa 	bne	4e8c <__libc_fini_array+0x1c>
    4ea0:	eb0000d4 	bl	51f8 <__libc_fini>
    4ea4:	e8bd4038 	pop	{r3, r4, r5, lr}
    4ea8:	e12fff1e 	bx	lr
    4eac:	00005210 	.word	0x00005210
    4eb0:	00005214 	.word	0x00005214

00004eb4 <__cs3_premain>:
    4eb4:	e92d4008 	push	{r3, lr}
    4eb8:	eb00001d 	bl	4f34 <__libc_init_array>
    4ebc:	e59f3030 	ldr	r3, [pc, #48]	; 4ef4 <__cs3_premain+0x40>
    4ec0:	e3530000 	cmp	r3, #0
    4ec4:	15930000 	ldrne	r0, [r3]
    4ec8:	01a00003 	moveq	r0, r3
    4ecc:	e59f3024 	ldr	r3, [pc, #36]	; 4ef8 <__cs3_premain+0x44>
    4ed0:	e3530000 	cmp	r3, #0
    4ed4:	15931000 	ldrne	r1, [r3]
    4ed8:	01a01003 	moveq	r1, r3
    4edc:	e3a02000 	mov	r2, #0
    4ee0:	ebfff12d 	bl	139c <main>
    4ee4:	e59f3010 	ldr	r3, [pc, #16]	; 4efc <__cs3_premain+0x48>
    4ee8:	e3530000 	cmp	r3, #0
    4eec:	1bffff2d 	blne	4ba8 <exit>
    4ef0:	eafffffe 	b	4ef0 <__cs3_premain+0x3c>
	...
    4efc:	00004ba8 	.word	0x00004ba8

00004f00 <_exit>:
    4f00:	e52de004 	push	{lr}		; (str lr, [sp, #-4]!)
    4f04:	e3a00018 	mov	r0, #24
    4f08:	e59f1004 	ldr	r1, [pc, #4]	; 4f14 <_exit+0x14>
    4f0c:	ef123456 	svc	0x00123456
    4f10:	eafffffe 	b	4f10 <_exit+0x10>
    4f14:	00020026 	.word	0x00020026

00004f18 <__cs3_isr_interrupt>:
    4f18:	eafffffe 	b	4f18 <__cs3_isr_interrupt>

00004f1c <__cs3_isr_undef>:
    4f1c:	eafffffe 	b	4f1c <__cs3_isr_undef>

00004f20 <__cs3_isr_swi>:
    4f20:	eafffffe 	b	4f20 <__cs3_isr_swi>

00004f24 <__cs3_isr_pabort>:
    4f24:	eafffffe 	b	4f24 <__cs3_isr_pabort>

00004f28 <__cs3_isr_dabort>:
    4f28:	eafffffe 	b	4f28 <__cs3_isr_dabort>

00004f2c <__cs3_isr_irq>:
    4f2c:	eafffffe 	b	4f2c <__cs3_isr_irq>

00004f30 <__cs3_isr_fiq>:
    4f30:	eafffffe 	b	4f30 <__cs3_isr_fiq>

00004f34 <__libc_init_array>:
    4f34:	e92d4070 	push	{r4, r5, r6, lr}
    4f38:	e59f506c 	ldr	r5, [pc, #108]	; 4fac <__libc_init_array+0x78>
    4f3c:	e59f606c 	ldr	r6, [pc, #108]	; 4fb0 <__libc_init_array+0x7c>
    4f40:	e0656006 	rsb	r6, r5, r6
    4f44:	e1b06146 	asrs	r6, r6, #2
    4f48:	12455004 	subne	r5, r5, #4
    4f4c:	13a04000 	movne	r4, #0
    4f50:	0a000005 	beq	4f6c <__libc_init_array+0x38>
    4f54:	e5b53004 	ldr	r3, [r5, #4]!
    4f58:	e2844001 	add	r4, r4, #1
    4f5c:	e1a0e00f 	mov	lr, pc
    4f60:	e12fff13 	bx	r3
    4f64:	e1560004 	cmp	r6, r4
    4f68:	1afffff9 	bne	4f54 <__libc_init_array+0x20>
    4f6c:	e59f5040 	ldr	r5, [pc, #64]	; 4fb4 <__libc_init_array+0x80>
    4f70:	e59f6040 	ldr	r6, [pc, #64]	; 4fb8 <__libc_init_array+0x84>
    4f74:	e0656006 	rsb	r6, r5, r6
    4f78:	eb000096 	bl	51d8 <_init>
    4f7c:	e1b06146 	asrs	r6, r6, #2
    4f80:	12455004 	subne	r5, r5, #4
    4f84:	13a04000 	movne	r4, #0
    4f88:	0a000005 	beq	4fa4 <__libc_init_array+0x70>
    4f8c:	e5b53004 	ldr	r3, [r5, #4]!
    4f90:	e2844001 	add	r4, r4, #1
    4f94:	e1a0e00f 	mov	lr, pc
    4f98:	e12fff13 	bx	r3
    4f9c:	e1560004 	cmp	r6, r4
    4fa0:	1afffff9 	bne	4f8c <__libc_init_array+0x58>
    4fa4:	e8bd4070 	pop	{r4, r5, r6, lr}
    4fa8:	e12fff1e 	bx	lr
    4fac:	000051f0 	.word	0x000051f0
    4fb0:	000051f0 	.word	0x000051f0
    4fb4:	000051f0 	.word	0x000051f0
    4fb8:	000051f8 	.word	0x000051f8

Disassembly of section .rodata:

00004fc0 <ln2HI-0x8>:
    4fc0:	00707865 	.word	0x00707865
    4fc4:	00000000 	.word	0x00000000

00004fc8 <ln2HI>:
    4fc8:	fee00000 3fe62e42 fee00000 bfe62e42     ....B..?....B...

00004fd8 <ln2LO>:
    4fd8:	35793c76 3dea39ef 35793c76 bdea39ef     v<y5.9.=v<y5.9..

00004fe8 <halF>:
    4fe8:	00000000 3fe00000 00000000 bfe00000     .......?........

00004ff8 <npio2_hw>:
    4ff8:	3ff921fb 400921fb 4012d97c 401921fb     .!.?.!.@|..@.!.@
    5008:	401f6a7a 4022d97c 4025fdbb 402921fb     zj.@|."@..%@.!)@
    5018:	402c463a 402f6a7a 4031475c 4032d97c     :F,@zj/@\G1@|.2@
    5028:	40346b9c 4035fdbb 40378fdb 403921fb     .k4@..5@..7@.!9@
    5038:	403ab41b 403c463a 403dd85a 403f6a7a     ..:@:F<@Z.=@zj?@
    5048:	40407e4c 4041475c 4042106c 4042d97c     L~@@\GA@l.B@|.B@
    5058:	4043a28c 40446b9c 404534ac 4045fdbb     ..C@.kD@.4E@..E@
    5068:	4046c6cb 40478fdb 404858eb 404921fb     ..F@..G@.XH@.!I@

00005078 <two_over_pi>:
    5078:	00a2f983 006e4e44 001529fc 002757d1     ....DNn..)...W'.
    5088:	00f534dd 00c0db62 0095993c 00439041     .4..b...<...A.C.
    5098:	00fe5163 00abdebb 00c561b7 00246e3a     cQ.......a..:n$.
    50a8:	00424dd2 00e00649 002eea09 00d1921c     .MB.I...........
    50b8:	00fe1deb 001cb129 00a73ee8 008235f5     ....)....>...5..
    50c8:	002ebb44 0084e99c 007026b4 005f7e41     D........&p.A~_.
    50d8:	003991d6 00398353 0039f49c 00845f8b     ..9.S.9...9.._..
    50e8:	00bdf928 003b1ff8 0097ffde 0005980f     (.....;.........
    50f8:	00ef2f11 008b5a0a 006d1f6d 00367ecf     ./...Z..m.m..~6.
    5108:	0027cb09 00b74f46 003f669e 005fea2d     ..'.FO...f?.-._.
    5118:	007527ba 00c7ebe5 00f17b3d 000739f7     .'u.....={...9..
    5128:	008a5292 00ea6bfb 005fb11f 008d5d08     .R...k...._..]..
    5138:	00560330 0046fc7b 006babf0 00cfbc20     0.V.{.F...k. ...
    5148:	009af436 001da9e3 0091615e 00e61b08     6.......^a......
    5158:	00659985 005f14a0 0068408d 00ffd880     ..e..._..@h.....
    5168:	004d7327 00310606 001556ca 0073a8c9     'sM...1..V....s.
    5178:	0060e27b 00c08c6b                       {.`.k...

00005180 <init_jk>:
    5180:	00000002 00000003 00000004 00000006     ................

00005190 <PIo2>:
    5190:	40000000 3ff921fb 00000000 3e74442d     ...@.!.?....-Dt>
    51a0:	80000000 3cf84698 60000000 3b78cc51     .....F.<...`Q.x;
    51b0:	80000000 39f01b83 40000000 387a2520     .......9...@ %z8
    51c0:	80000000 36e38222 00000000 3569f31d     ...."..6......i5

000051d0 <_global_impure_ptr>:
    51d0:	00005240 00000043                       @R..C...

000051d8 <_init>:
    51d8:	e1a0c00d 	mov	r12, sp
    51dc:	e92ddff8 	push	{r3, r4, r5, r6, r7, r8, r9, r10, r11, r12, lr, pc}
    51e0:	e24cb004 	sub	r11, r12, #4
    51e4:	e24bd028 	sub	sp, r11, #40	; 0x28
    51e8:	e89d6ff0 	ldm	sp, {r4, r5, r6, r7, r8, r9, r10, r11, sp, lr}
    51ec:	e12fff1e 	bx	lr

000051f0 <__init_array_start>:
    51f0:	00004e4c 	.word	0x00004e4c

000051f4 <__frame_dummy_init_array_entry>:
    51f4:	00000208                                ....

000051f8 <__libc_fini>:
    51f8:	e1a0c00d 	mov	r12, sp
    51fc:	e92ddff8 	push	{r3, r4, r5, r6, r7, r8, r9, r10, r11, r12, lr, pc}
    5200:	e24cb004 	sub	r11, r12, #4
    5204:	e24bd028 	sub	sp, r11, #40	; 0x28
    5208:	e89d6ff0 	ldm	sp, {r4, r5, r6, r7, r8, r9, r10, r11, sp, lr}
    520c:	e12fff1e 	bx	lr

00005210 <__fini_array_start>:
    5210:	000001c4 	.word	0x000001c4

00005214 <__cs3_regions>:
    5214:	00000000 	.word	0x00000000
    5218:	00000040 	.word	0x00000040
    521c:	00000040 	.word	0x00000040
    5220:	00005630 	.word	0x00005630
    5224:	00000020 	.word	0x00000020
