
C:/Users/Joseph/Documents/2nd_Year/ECE243/243-project/monitor_program/main.axf:     file format elf32-littlearm


Disassembly of section .vectors:

00000000 <__cs3_interrupt_vector>:
   0:	18 f0 9f e5 18 f0 9f e5 18 f0 9f e5 18 f0 9f e5     ................
  10:	18 f0 9f e5 18 f0 9f e5 18 f0 9f e5 18 f0 9f e5     ................
  20:	40 00 00 00 44 6c 00 00 48 6c 00 00 4c 6c 00 00     @...Dl..Hl..Ll..
  30:	50 6c 00 00 40 6c 00 00 54 6c 00 00 58 6c 00 00     Pl..@l..Tl..Xl..

Disassembly of section .text:

00000040 <__cs3_reset>:
      40:	ea000026 	b	e0 <__cs3_start_asm_sim>

00000044 <__cs3_start_c>:
      44:	e59f608c 	ldr	r6, [pc, #140]	; d8 <__cs3_start_c+0x94>
      48:	e3560000 	cmp	r6, #0
      4c:	e92d4080 	push	{r7, lr}
      50:	e2466001 	sub	r6, r6, #1
      54:	0a00001e 	beq	d4 <__cs3_start_c+0x90>
      58:	e59f507c 	ldr	r5, [pc, #124]	; dc <__cs3_start_c+0x98>
      5c:	e3a00000 	mov	r0, #0
      60:	e3a01000 	mov	r1, #0
      64:	e515200c 	ldr	r2, [r5, #-12]
      68:	e515e010 	ldr	lr, [r5, #-16]
      6c:	e5154008 	ldr	r4, [r5, #-8]
      70:	e15e0002 	cmp	lr, r2
      74:	00822004 	addeq	r2, r2, r4
      78:	0a000009 	beq	a4 <__cs3_start_c+0x60>
      7c:	e3540000 	cmp	r4, #0
      80:	0a000007 	beq	a4 <__cs3_start_c+0x60>
      84:	e1a07002 	mov	r7, r2
      88:	e1a0c002 	mov	r12, r2
      8c:	e8be000c 	ldm	lr!, {r2, r3}
      90:	e8ac000c 	stmia	r12!, {r2, r3}
      94:	e067300c 	rsb	r3, r7, r12
      98:	e1540003 	cmp	r4, r3
      9c:	e1a0200c 	mov	r2, r12
      a0:	1afffff9 	bne	8c <__cs3_start_c+0x48>
      a4:	e515e004 	ldr	lr, [r5, #-4]
      a8:	e35e0000 	cmp	lr, #0
      ac:	11a03002 	movne	r3, r2
      b0:	0a000003 	beq	c4 <__cs3_start_c+0x80>
      b4:	e8a30003 	stmia	r3!, {r0, r1}
      b8:	e062c003 	rsb	r12, r2, r3
      bc:	e15e000c 	cmp	lr, r12
      c0:	1afffffb 	bne	b4 <__cs3_start_c+0x70>
      c4:	e2466001 	sub	r6, r6, #1
      c8:	e3760001 	cmn	r6, #1
      cc:	e2855014 	add	r5, r5, #20
      d0:	1affffe3 	bne	64 <__cs3_start_c+0x20>
      d4:	eb001ac0 	bl	6bdc <__cs3_premain>
      d8:	00000001 	.word	0x00000001
      dc:	00006f98 	.word	0x00006f98

000000e0 <__cs3_start_asm_sim>:
      e0:	e28f103c 	add	r1, pc, #60	; 0x3c
      e4:	e3a00016 	mov	r0, #22
      e8:	ef123456 	svc	0x00123456
      ec:	e3500000 	cmp	r0, #0
      f0:	ba000008 	blt	118 <__cs3_start_asm_sim+0x38>
      f4:	e59f2028 	ldr	r2, [pc, #40]	; 124 <__cs3_heap_start_ptr>
      f8:	e59fd01c 	ldr	sp, [pc, #28]	; 11c <__cs3_start_asm_sim+0x3c>
      fc:	e5920008 	ldr	r0, [r2, #8]
     100:	e3500000 	cmp	r0, #0
     104:	11a0d000 	movne	sp, r0
     108:	e59f1010 	ldr	r1, [pc, #16]	; 120 <__cs3_start_asm_sim+0x40>
     10c:	e5920004 	ldr	r0, [r2, #4]
     110:	e3500000 	cmp	r0, #0
     114:	15810000 	strne	r0, [r1]
     118:	eaffffc9 	b	44 <__cs3_start_c>
     11c:	3ffffff8 	.word	0x3ffffff8
     120:	000073d8 	.word	0x000073d8

00000124 <__cs3_heap_start_ptr>:
     124:	00007400 	.word	0x00007400

00000128 <_start>:
     128:	e51fd000 	ldr	sp, [pc, #-0]	; 130 <_start+0x8>
     12c:	eaffffc4 	b	44 <__cs3_start_c>
     130:	3ffffff8 	.word	0x3ffffff8

00000134 <deregister_tm_clones>:
     134:	e92d4008 	push	{r3, lr}
     138:	e59f002c 	ldr	r0, [pc, #44]	; 16c <deregister_tm_clones+0x38>
     13c:	e59f302c 	ldr	r3, [pc, #44]	; 170 <deregister_tm_clones+0x3c>
     140:	e0603003 	rsb	r3, r0, r3
     144:	e3530006 	cmp	r3, #6
     148:	8a000001 	bhi	154 <deregister_tm_clones+0x20>
     14c:	e8bd4008 	pop	{r3, lr}
     150:	e12fff1e 	bx	lr
     154:	e59f3018 	ldr	r3, [pc, #24]	; 174 <deregister_tm_clones+0x40>
     158:	e3530000 	cmp	r3, #0
     15c:	0afffffa 	beq	14c <deregister_tm_clones+0x18>
     160:	e1a0e00f 	mov	lr, pc
     164:	e12fff13 	bx	r3
     168:	eafffff7 	b	14c <deregister_tm_clones+0x18>
     16c:	000073e0 	.word	0x000073e0
     170:	000073e3 	.word	0x000073e3
     174:	00000000 	.word	0x00000000

00000178 <register_tm_clones>:
     178:	e92d4008 	push	{r3, lr}
     17c:	e59f0034 	ldr	r0, [pc, #52]	; 1b8 <register_tm_clones+0x40>
     180:	e59f3034 	ldr	r3, [pc, #52]	; 1bc <register_tm_clones+0x44>
     184:	e0603003 	rsb	r3, r0, r3
     188:	e1a03143 	asr	r3, r3, #2
     18c:	e0833fa3 	add	r3, r3, r3, lsr #31
     190:	e1b010c3 	asrs	r1, r3, #1
     194:	1a000001 	bne	1a0 <register_tm_clones+0x28>
     198:	e8bd4008 	pop	{r3, lr}
     19c:	e12fff1e 	bx	lr
     1a0:	e59f2018 	ldr	r2, [pc, #24]	; 1c0 <register_tm_clones+0x48>
     1a4:	e3520000 	cmp	r2, #0
     1a8:	0afffffa 	beq	198 <register_tm_clones+0x20>
     1ac:	e1a0e00f 	mov	lr, pc
     1b0:	e12fff12 	bx	r2
     1b4:	eafffff7 	b	198 <register_tm_clones+0x20>
     1b8:	000073e0 	.word	0x000073e0
     1bc:	000073e0 	.word	0x000073e0
     1c0:	00000000 	.word	0x00000000

000001c4 <__do_global_dtors_aux>:
     1c4:	e92d4010 	push	{r4, lr}
     1c8:	e59f402c 	ldr	r4, [pc, #44]	; 1fc <__do_global_dtors_aux+0x38>
     1cc:	e5d43000 	ldrb	r3, [r4]
     1d0:	e3530000 	cmp	r3, #0
     1d4:	1a000006 	bne	1f4 <__do_global_dtors_aux+0x30>
     1d8:	ebffffd5 	bl	134 <deregister_tm_clones>
     1dc:	e59f301c 	ldr	r3, [pc, #28]	; 200 <__do_global_dtors_aux+0x3c>
     1e0:	e3530000 	cmp	r3, #0
     1e4:	159f0018 	ldrne	r0, [pc, #24]	; 204 <__do_global_dtors_aux+0x40>
     1e8:	1320f000 	nopne	{0}
     1ec:	e3a03001 	mov	r3, #1
     1f0:	e5c43000 	strb	r3, [r4]
     1f4:	e8bd4010 	pop	{r4, lr}
     1f8:	e12fff1e 	bx	lr
     1fc:	000073e0 	.word	0x000073e0
     200:	00000000 	.word	0x00000000
     204:	00006ce4 	.word	0x00006ce4

00000208 <frame_dummy>:
     208:	e92d4008 	push	{r3, lr}
     20c:	e59f3034 	ldr	r3, [pc, #52]	; 248 <frame_dummy+0x40>
     210:	e3530000 	cmp	r3, #0
     214:	159f0030 	ldrne	r0, [pc, #48]	; 24c <frame_dummy+0x44>
     218:	159f1030 	ldrne	r1, [pc, #48]	; 250 <frame_dummy+0x48>
     21c:	1320f000 	nopne	{0}
     220:	e59f002c 	ldr	r0, [pc, #44]	; 254 <frame_dummy+0x4c>
     224:	e5903000 	ldr	r3, [r0]
     228:	e3530000 	cmp	r3, #0
     22c:	0a000003 	beq	240 <frame_dummy+0x38>
     230:	e59f3020 	ldr	r3, [pc, #32]	; 258 <frame_dummy+0x50>
     234:	e3530000 	cmp	r3, #0
     238:	11a0e00f 	movne	lr, pc
     23c:	112fff13 	bxne	r3
     240:	e8bd4008 	pop	{r3, lr}
     244:	eaffffcb 	b	178 <register_tm_clones>
     248:	00000000 	.word	0x00000000
     24c:	00006ce4 	.word	0x00006ce4
     250:	000073e4 	.word	0x000073e4
     254:	00006f98 	.word	0x00006f98
     258:	00000000 	.word	0x00000000

0000025c <write_char>:
    }
}

void write_char(int x, int y, char c) {
  // VGA character buffer
  volatile char * character_buffer = (char *) (0xC9000000 + (y<<7) + x);
     25c:	e28004c9 	add	r0, r0, #-922746880	; 0xc9000000
  *character_buffer = c;
     260:	e7c02381 	strb	r2, [r0, r1, lsl #7]
     264:	e12fff1e 	bx	lr

00000268 <write_string>:
}

void write_string(int x, int y, int size, char string[size]){
     268:	e92d40f8 	push	{r3, r4, r5, r6, r7, lr}
     26c:	e1a06001 	mov	r6, r1
    if(y<60){
     270:	e351003b 	cmp	r1, #59	; 0x3b
     274:	c8bd80f8 	popgt	{r3, r4, r5, r6, r7, pc}
        for (int i = 0; i < size; i++) {
     278:	e3520000 	cmp	r2, #0
     27c:	d8bd80f8 	pople	{r3, r4, r5, r6, r7, pc}
  // VGA character buffer
  volatile char * character_buffer = (char *) (0xC9000000 + (y<<7) + x);
  *character_buffer = c;
}

void write_string(int x, int y, int size, char string[size]){
     280:	e0825000 	add	r5, r2, r0
     284:	e1a04000 	mov	r4, r0
     288:	e0607003 	rsb	r7, r0, r3
    if(y<60){
        for (int i = 0; i < size; i++) {
            if((x+i)<79)
     28c:	e354004e 	cmp	r4, #78	; 0x4e
     290:	ca000003 	bgt	2a4 <write_string+0x3c>
                write_char(x + i, y, string[i]);
     294:	e1a00004 	mov	r0, r4
     298:	e1a01006 	mov	r1, r6
     29c:	e7d72004 	ldrb	r2, [r7, r4]
     2a0:	ebffffed 	bl	25c <write_char>
     2a4:	e2844001 	add	r4, r4, #1
  *character_buffer = c;
}

void write_string(int x, int y, int size, char string[size]){
    if(y<60){
        for (int i = 0; i < size; i++) {
     2a8:	e1540005 	cmp	r4, r5
     2ac:	1afffff6 	bne	28c <write_string+0x24>
     2b0:	e8bd80f8 	pop	{r3, r4, r5, r6, r7, pc}

000002b4 <clear_chars>:
                write_char(x + i, y, string[i]);
        }
    }
}

void clear_chars(){
     2b4:	e92d4070 	push	{r4, r5, r6, lr}
    for (int x = 0; x < 79; x++)
     2b8:	e3a05000 	mov	r5, #0
                write_char(x + i, y, string[i]);
        }
    }
}

void clear_chars(){
     2bc:	e1a06005 	mov	r6, r5
     2c0:	ea000009 	b	2ec <clear_chars+0x38>
    for (int x = 0; x < 79; x++)
        for(int y = 0; y < 59; y++)
            write_char(x, y, '\0');
     2c4:	e1a00005 	mov	r0, r5
     2c8:	e1a01004 	mov	r1, r4
     2cc:	e1a02006 	mov	r2, r6
     2d0:	ebffffe1 	bl	25c <write_char>
    }
}

void clear_chars(){
    for (int x = 0; x < 79; x++)
        for(int y = 0; y < 59; y++)
     2d4:	e2844001 	add	r4, r4, #1
     2d8:	e354003b 	cmp	r4, #59	; 0x3b
     2dc:	1afffff8 	bne	2c4 <clear_chars+0x10>
        }
    }
}

void clear_chars(){
    for (int x = 0; x < 79; x++)
     2e0:	e2855001 	add	r5, r5, #1
     2e4:	e355004f 	cmp	r5, #79	; 0x4f
     2e8:	08bd8070 	popeq	{r4, r5, r6, pc}
                write_char(x + i, y, string[i]);
        }
    }
}

void clear_chars(){
     2ec:	e1a04006 	mov	r4, r6
     2f0:	eafffff3 	b	2c4 <clear_chars+0x10>

000002f4 <plot_pixel>:
        }
    }
}

void plot_pixel(int x, int y, short int line_color){
    if(x<X_DIM && x>=0 && y<Y_DIM && y>=0)
     2f4:	e35100ef 	cmp	r1, #239	; 0xef
     2f8:	c3a03000 	movgt	r3, #0
     2fc:	d3a03001 	movle	r3, #1
     300:	e3500d05 	cmp	r0, #320	; 0x140
     304:	23a03000 	movcs	r3, #0
     308:	e3530000 	cmp	r3, #0
     30c:	012fff1e 	bxeq	lr
     310:	e3510000 	cmp	r1, #0
     314:	b12fff1e 	bxlt	lr
        *(short int *)(pixel_buffer_start + (y << 10) + (x << 1)) = line_color;
     318:	e30733fc 	movw	r3, #29692	; 0x73fc
     31c:	e3403000 	movt	r3, #0
     320:	e5933000 	ldr	r3, [r3]
     324:	e1a00080 	lsl	r0, r0, #1
     328:	e0831501 	add	r1, r3, r1, lsl #10
     32c:	e18120b0 	strh	r2, [r1, r0]
     330:	e12fff1e 	bx	lr

00000334 <draw_line>:
    for(int deg=0; deg<360; deg++){
        draw_line(x, y, x + r*cos(deg), y + r*sin(deg), colour);
    }
}

void draw_line(int x0, int y0, int x1, int y1, short int line_colour){
     334:	e92d4ff0 	push	{r4, r5, r6, r7, r8, r9, r10, r11, lr}
     338:	e24dd00c 	sub	sp, sp, #12
     33c:	e1a08002 	mov	r8, r2
     340:	e1dd93f0 	ldrsh	r9, [sp, #48]	; 0x30
    int is_steep = abs(y1 - y0) > abs(x1 - x0);
     344:	e061a003 	rsb	r10, r1, r3
     348:	e35a0000 	cmp	r10, #0
     34c:	b26aa000 	rsblt	r10, r10, #0
     350:	e0602002 	rsb	r2, r0, r2
     354:	e3520000 	cmp	r2, #0
     358:	b2622000 	rsblt	r2, r2, #0
     35c:	e15a0002 	cmp	r10, r2
     360:	d3a0a000 	movle	r10, #0
     364:	c3a0a001 	movgt	r10, #1
    int temp = 0;
    if (is_steep){
     368:	e35a0000 	cmp	r10, #0
     36c:	0a000005 	beq	388 <draw_line+0x54>
     370:	e1a02008 	mov	r2, r8
		temp = x0;
		x0 = y0;
		y0 = temp;
		temp = x1;
		x1 = y1;
     374:	e1a08003 	mov	r8, r3
		y1 = temp;
     378:	e1a03002 	mov	r3, r2
}

void draw_line(int x0, int y0, int x1, int y1, short int line_colour){
    int is_steep = abs(y1 - y0) > abs(x1 - x0);
    int temp = 0;
    if (is_steep){
     37c:	e1a02000 	mov	r2, r0
		temp = x0;
		x0 = y0;
     380:	e1a00001 	mov	r0, r1
		y0 = temp;
     384:	e1a01002 	mov	r1, r2
		temp = x1;
		x1 = y1;
		y1 = temp;
    }
    if (x0 > x1){
     388:	e1500008 	cmp	r0, r8
     38c:	da000005 	ble	3a8 <draw_line+0x74>
     390:	e1a02001 	mov	r2, r1
    	temp = x0;
		x0 = x1;
		x1 = temp;
		temp = y0;
		y0 = y1;
     394:	e1a01003 	mov	r1, r3
		y1 = temp;
     398:	e1a03002 	mov	r3, r2
		y0 = temp;
		temp = x1;
		x1 = y1;
		y1 = temp;
    }
    if (x0 > x1){
     39c:	e1a02000 	mov	r2, r0
    	temp = x0;
		x0 = x1;
     3a0:	e1a00008 	mov	r0, r8
		x1 = temp;
     3a4:	e1a08002 	mov	r8, r2
		temp = y0;
		y0 = y1;
		y1 = temp;
    }

    int deltax = x1 - x0;
     3a8:	e060b008 	rsb	r11, r0, r8
    int deltay = abs(y1 - y0);
     3ac:	e0617003 	rsb	r7, r1, r3
     3b0:	e3570000 	cmp	r7, #0
     3b4:	b2677000 	rsblt	r7, r7, #0
    int error = -(deltax / 2);
     3b8:	e08b4fab 	add	r4, r11, r11, lsr #31
     3bc:	e1a040c4 	asr	r4, r4, #1
     3c0:	e2644000 	rsb	r4, r4, #0
    int y = y0;
    int y_step = -1;
     3c4:	e1510003 	cmp	r1, r3
     3c8:	b3a03001 	movlt	r3, #1
     3cc:	a3e03000 	mvnge	r3, #0
     3d0:	e58d3004 	str	r3, [sp, #4]
    if (y0 < y1){
		y_step = 1;
    }
    int i;
    for (i = x0; i < x1; i++){
     3d4:	e1500008 	cmp	r0, r8
     3d8:	aa00000f 	bge	41c <draw_line+0xe8>
     3dc:	e1a05000 	mov	r5, r0
    }

    int deltax = x1 - x0;
    int deltay = abs(y1 - y0);
    int error = -(deltax / 2);
    int y = y0;
     3e0:	e1a06001 	mov	r6, r1
    if (y0 < y1){
		y_step = 1;
    }
    int i;
    for (i = x0; i < x1; i++){
        if (is_steep){
     3e4:	e35a0000 	cmp	r10, #0
            plot_pixel(y, i, line_colour);
     3e8:	11a00006 	movne	r0, r6
     3ec:	11a01005 	movne	r1, r5
        }
        else{
            plot_pixel(i, y, line_colour);
     3f0:	01a00005 	moveq	r0, r5
     3f4:	01a01006 	moveq	r1, r6
     3f8:	e1a02009 	mov	r2, r9
     3fc:	ebffffbc 	bl	2f4 <plot_pixel>
        }
        error = error + deltay;
        if (error >= 0){
     400:	e0944007 	adds	r4, r4, r7
            y = y + y_step;
     404:	559d3004 	ldrpl	r3, [sp, #4]
     408:	50866003 	addpl	r6, r6, r3
            error = error - deltax;
     40c:	506b4004 	rsbpl	r4, r11, r4
    int y_step = -1;
    if (y0 < y1){
		y_step = 1;
    }
    int i;
    for (i = x0; i < x1; i++){
     410:	e2855001 	add	r5, r5, #1
     414:	e1580005 	cmp	r8, r5
     418:	cafffff1 	bgt	3e4 <draw_line+0xb0>
        if (error >= 0){
            y = y + y_step;
            error = error - deltax;
        }
    }
}
     41c:	e28dd00c 	add	sp, sp, #12
     420:	e8bd8ff0 	pop	{r4, r5, r6, r7, r8, r9, r10, r11, pc}

00000424 <draw_circle>:
            plot_pixel(x, y, colour);
        }
    }
}

void draw_circle(int x, int y, int r, short int colour){
     424:	e92d4ff0 	push	{r4, r5, r6, r7, r8, r9, r10, r11, lr}
     428:	e24dd024 	sub	sp, sp, #36	; 0x24
     42c:	e1a09000 	mov	r9, r0
     430:	e1a0b001 	mov	r11, r1
     434:	e58d201c 	str	r2, [sp, #28]
     438:	e1a08003 	mov	r8, r3
    for(int deg=0; deg<360; deg++){
     43c:	e3a0a000 	mov	r10, #0
        draw_line(x, y, x + r*cos(deg), y + r*sin(deg), colour);
     440:	e59d001c 	ldr	r0, [sp, #28]
     444:	eb001562 	bl	59d4 <__aeabi_i2d>
     448:	e1cd00f8 	strd	r0, [sp, #8]
     44c:	e1a0000a 	mov	r0, r10
     450:	eb00155f 	bl	59d4 <__aeabi_i2d>
     454:	e1a04000 	mov	r4, r0
     458:	e1a05001 	mov	r5, r1
     45c:	eb000504 	bl	1874 <cos>
     460:	e1a06000 	mov	r6, r0
     464:	e1a07001 	mov	r7, r1
     468:	e1a00004 	mov	r0, r4
     46c:	e1a01005 	mov	r1, r5
     470:	eb000578 	bl	1a58 <sin>
     474:	e1cd01f0 	strd	r0, [sp, #16]
     478:	e1a00009 	mov	r0, r9
     47c:	eb001554 	bl	59d4 <__aeabi_i2d>
     480:	e1a04000 	mov	r4, r0
     484:	e1a05001 	mov	r5, r1
     488:	e1cd00d8 	ldrd	r0, [sp, #8]
     48c:	e1a02006 	mov	r2, r6
     490:	e1a03007 	mov	r3, r7
     494:	eb001585 	bl	5ab0 <__aeabi_dmul>
     498:	e1a02000 	mov	r2, r0
     49c:	e1a03001 	mov	r3, r1
     4a0:	e1a00004 	mov	r0, r4
     4a4:	e1a01005 	mov	r1, r5
     4a8:	eb00147c 	bl	56a0 <__adddf3>
     4ac:	eb0016f7 	bl	6090 <__aeabi_d2iz>
     4b0:	e1a06000 	mov	r6, r0
     4b4:	e1a0000b 	mov	r0, r11
     4b8:	eb001545 	bl	59d4 <__aeabi_i2d>
     4bc:	e1a04000 	mov	r4, r0
     4c0:	e1a05001 	mov	r5, r1
     4c4:	e1cd00d8 	ldrd	r0, [sp, #8]
     4c8:	e1cd21d0 	ldrd	r2, [sp, #16]
     4cc:	eb001577 	bl	5ab0 <__aeabi_dmul>
     4d0:	e1a02000 	mov	r2, r0
     4d4:	e1a03001 	mov	r3, r1
     4d8:	e1a00004 	mov	r0, r4
     4dc:	e1a01005 	mov	r1, r5
     4e0:	eb00146e 	bl	56a0 <__adddf3>
     4e4:	eb0016e9 	bl	6090 <__aeabi_d2iz>
     4e8:	e1a03000 	mov	r3, r0
     4ec:	e58d8000 	str	r8, [sp]
     4f0:	e1a00009 	mov	r0, r9
     4f4:	e1a0100b 	mov	r1, r11
     4f8:	e1a02006 	mov	r2, r6
     4fc:	ebffff8c 	bl	334 <draw_line>
        }
    }
}

void draw_circle(int x, int y, int r, short int colour){
    for(int deg=0; deg<360; deg++){
     500:	e28aa001 	add	r10, r10, #1
     504:	e35a0f5a 	cmp	r10, #360	; 0x168
     508:	1affffcc 	bne	440 <draw_circle+0x1c>
        draw_line(x, y, x + r*cos(deg), y + r*sin(deg), colour);
    }
}
     50c:	e28dd024 	add	sp, sp, #36	; 0x24
     510:	e8bd8ff0 	pop	{r4, r5, r6, r7, r8, r9, r10, r11, pc}

00000514 <draw_frame>:
    draw_circle(x1, y1, radius-width, BLACK);
    draw_circle(x0+len, y0, radius, colour);//right
    draw_circle(x0+len, y0, radius-width, BLACK);
}

void draw_frame(int x0, int y0, int x1, int y1, short int colour){
     514:	e92d41f0 	push	{r4, r5, r6, r7, r8, lr}
     518:	e24dd008 	sub	sp, sp, #8
     51c:	e1a07000 	mov	r7, r0
     520:	e1a06001 	mov	r6, r1
     524:	e1a04002 	mov	r4, r2
     528:	e1a08003 	mov	r8, r3
     52c:	e1dd52f0 	ldrsh	r5, [sp, #32]
    draw_line(x0, y0, x0, y1, colour);//down
     530:	e58d5000 	str	r5, [sp]
     534:	e1a02000 	mov	r2, r0
     538:	ebffff7d 	bl	334 <draw_line>
    draw_line(x0, y1, x1, y1, colour);//right
     53c:	e58d5000 	str	r5, [sp]
     540:	e1a00007 	mov	r0, r7
     544:	e1a01008 	mov	r1, r8
     548:	e1a02004 	mov	r2, r4
     54c:	e1a03008 	mov	r3, r8
     550:	ebffff77 	bl	334 <draw_line>
    draw_line(x1, y1, x1, y0, colour);//up
     554:	e58d5000 	str	r5, [sp]
     558:	e1a00004 	mov	r0, r4
     55c:	e1a01008 	mov	r1, r8
     560:	e1a02004 	mov	r2, r4
     564:	e1a03006 	mov	r3, r6
     568:	ebffff71 	bl	334 <draw_line>
    draw_line(x1, y0, x0, y0, colour);//left
     56c:	e58d5000 	str	r5, [sp]
     570:	e1a00004 	mov	r0, r4
     574:	e1a01006 	mov	r1, r6
     578:	e1a02007 	mov	r2, r7
     57c:	e1a03006 	mov	r3, r6
     580:	ebffff6b 	bl	334 <draw_line>
}
     584:	e28dd008 	add	sp, sp, #8
     588:	e8bd81f0 	pop	{r4, r5, r6, r7, r8, pc}

0000058c <draw_switches>:
    for (int x = 0; x < 79; x++)
        for(int y = 0; y < 59; y++)
            write_char(x, y, '\0');
}

void draw_switches(int len, int x0, int y0, int x1, int y1, bool sw1, bool sw2, int colour){
     58c:	e92d45f0 	push	{r4, r5, r6, r7, r8, r10, lr}
     590:	e24dd00c 	sub	sp, sp, #12
     594:	e1a05000 	mov	r5, r0
     598:	e1a06001 	mov	r6, r1
     59c:	e1a04002 	mov	r4, r2
     5a0:	e1a0a003 	mov	r10, r3
     5a4:	e59d8028 	ldr	r8, [sp, #40]	; 0x28
     5a8:	e59d7034 	ldr	r7, [sp, #52]	; 0x34
    if(sw1){
     5ac:	e5dd302c 	ldrb	r3, [sp, #44]	; 0x2c
     5b0:	e3530000 	cmp	r3, #0
     5b4:	0a000007 	beq	5d8 <draw_switches+0x4c>
        draw_line(x0, y0, x0 + len, y0, colour);
     5b8:	e6bf3077 	sxth	r3, r7
     5bc:	e58d3000 	str	r3, [sp]
     5c0:	e1a00001 	mov	r0, r1
     5c4:	e1a01002 	mov	r1, r2
     5c8:	e0862005 	add	r2, r6, r5
     5cc:	e1a03004 	mov	r3, r4
     5d0:	ebffff57 	bl	334 <draw_line>
     5d4:	ea000010 	b	61c <draw_switches+0x90>
    }else{
        draw_line(x0, y0, (x0 + len)*4/5, y0 + len/3, colour);
     5d8:	e0813000 	add	r3, r1, r0
     5dc:	e1a03103 	lsl	r3, r3, #2
     5e0:	e3062667 	movw	r2, #26215	; 0x6667
     5e4:	e3462666 	movt	r2, #26214	; 0x6666
     5e8:	e0c21392 	smull	r1, r2, r2, r3
     5ec:	e1a0cfc3 	asr	r12, r3, #31
     5f0:	e3053556 	movw	r3, #21846	; 0x5556
     5f4:	e3453555 	movt	r3, #21845	; 0x5555
     5f8:	e0c31093 	smull	r1, r3, r3, r0
     5fc:	e0433fc0 	sub	r3, r3, r0, asr #31
     600:	e6bf1077 	sxth	r1, r7
     604:	e58d1000 	str	r1, [sp]
     608:	e1a00006 	mov	r0, r6
     60c:	e1a01004 	mov	r1, r4
     610:	e06c20c2 	rsb	r2, r12, r2, asr #1
     614:	e0833004 	add	r3, r3, r4
     618:	ebffff45 	bl	334 <draw_line>
    }

    if(sw2){
     61c:	e5dd3030 	ldrb	r3, [sp, #48]	; 0x30
     620:	e3530000 	cmp	r3, #0
     624:	0a000007 	beq	648 <draw_switches+0xbc>
        draw_line(x1, y1, x1 + len, y1, colour);
     628:	e6bf3077 	sxth	r3, r7
     62c:	e58d3000 	str	r3, [sp]
     630:	e1a0000a 	mov	r0, r10
     634:	e1a01008 	mov	r1, r8
     638:	e08a2005 	add	r2, r10, r5
     63c:	e1a03008 	mov	r3, r8
     640:	ebffff3b 	bl	334 <draw_line>
     644:	ea000010 	b	68c <draw_switches+0x100>
    }else{
        draw_line(x1, y1, (x1 + len)*4/5, y1 + len/3, colour);
     648:	e08a3005 	add	r3, r10, r5
     64c:	e1a03103 	lsl	r3, r3, #2
     650:	e3062667 	movw	r2, #26215	; 0x6667
     654:	e3462666 	movt	r2, #26214	; 0x6666
     658:	e0c21392 	smull	r1, r2, r2, r3
     65c:	e1a0cfc3 	asr	r12, r3, #31
     660:	e3053556 	movw	r3, #21846	; 0x5556
     664:	e3453555 	movt	r3, #21845	; 0x5555
     668:	e0c31593 	smull	r1, r3, r3, r5
     66c:	e0433fc5 	sub	r3, r3, r5, asr #31
     670:	e6bf1077 	sxth	r1, r7
     674:	e58d1000 	str	r1, [sp]
     678:	e1a0000a 	mov	r0, r10
     67c:	e1a01008 	mov	r1, r8
     680:	e06c20c2 	rsb	r2, r12, r2, asr #1
     684:	e0833008 	add	r3, r3, r8
     688:	ebffff29 	bl	334 <draw_line>
    }

    //circle bois 1
    int radius = 5;
    int width = 2;
    draw_circle(x0, y0, radius, colour);//left
     68c:	e6bf7077 	sxth	r7, r7
     690:	e1a00006 	mov	r0, r6
     694:	e1a01004 	mov	r1, r4
     698:	e3a02005 	mov	r2, #5
     69c:	e1a03007 	mov	r3, r7
     6a0:	ebffff5f 	bl	424 <draw_circle>
    draw_circle(x0, y0, radius-width, BLACK);
     6a4:	e1a00006 	mov	r0, r6
     6a8:	e1a01004 	mov	r1, r4
     6ac:	e3a02003 	mov	r2, #3
     6b0:	e3a03000 	mov	r3, #0
     6b4:	ebffff5a 	bl	424 <draw_circle>
    draw_circle(x0+len, y0, radius, colour);//right
     6b8:	e0865005 	add	r5, r6, r5
     6bc:	e1a00005 	mov	r0, r5
     6c0:	e1a01004 	mov	r1, r4
     6c4:	e3a02005 	mov	r2, #5
     6c8:	e1a03007 	mov	r3, r7
     6cc:	ebffff54 	bl	424 <draw_circle>
    draw_circle(x0+len, y0, radius-width, BLACK);
     6d0:	e1a00005 	mov	r0, r5
     6d4:	e1a01004 	mov	r1, r4
     6d8:	e3a02003 	mov	r2, #3
     6dc:	e3a03000 	mov	r3, #0
     6e0:	ebffff4f 	bl	424 <draw_circle>

    //circle bois 2
    draw_circle(x1, y1, radius, colour);//left
     6e4:	e1a0000a 	mov	r0, r10
     6e8:	e1a01008 	mov	r1, r8
     6ec:	e3a02005 	mov	r2, #5
     6f0:	e1a03007 	mov	r3, r7
     6f4:	ebffff4a 	bl	424 <draw_circle>
    draw_circle(x1, y1, radius-width, BLACK);
     6f8:	e1a0000a 	mov	r0, r10
     6fc:	e1a01008 	mov	r1, r8
     700:	e3a02003 	mov	r2, #3
     704:	e3a03000 	mov	r3, #0
     708:	ebffff45 	bl	424 <draw_circle>
    draw_circle(x0+len, y0, radius, colour);//right
     70c:	e1a00005 	mov	r0, r5
     710:	e1a01004 	mov	r1, r4
     714:	e3a02005 	mov	r2, #5
     718:	e1a03007 	mov	r3, r7
     71c:	ebffff40 	bl	424 <draw_circle>
    draw_circle(x0+len, y0, radius-width, BLACK);
     720:	e1a00005 	mov	r0, r5
     724:	e1a01004 	mov	r1, r4
     728:	e3a02003 	mov	r2, #3
     72c:	e3a03000 	mov	r3, #0
     730:	ebffff3b 	bl	424 <draw_circle>
}
     734:	e28dd00c 	add	sp, sp, #12
     738:	e8bd85f0 	pop	{r4, r5, r6, r7, r8, r10, pc}

0000073c <draw_graph>:
    }
    plot_pixel(5, 5, RED);
    return;
}

void draw_graph(int x, int y, int size, float values[size], short int colour){
     73c:	e92d4ff0 	push	{r4, r5, r6, r7, r8, r9, r10, r11, lr}
     740:	e24dd024 	sub	sp, sp, #36	; 0x24
     744:	e1a09000 	mov	r9, r0
     748:	e58d1010 	str	r1, [sp, #16]
     74c:	e1a0b002 	mov	r11, r2
     750:	e1a07003 	mov	r7, r3
     754:	e1dd44f8 	ldrsh	r4, [sp, #72]	; 0x48
    //bars of the graph
    draw_line(x, y + GRAPH_LEN, x, y - GRAPH_LEN, colour);//up-down
     758:	e2815032 	add	r5, r1, #50	; 0x32
     75c:	e2418032 	sub	r8, r1, #50	; 0x32
     760:	e58d4000 	str	r4, [sp]
     764:	e1a01005 	mov	r1, r5
     768:	e1a02000 	mov	r2, r0
     76c:	e1a03008 	mov	r3, r8
     770:	ebfffeef 	bl	334 <draw_line>
    draw_line(x, y, x + GRAPH_LEN, y, colour);//horizontal
     774:	e2896032 	add	r6, r9, #50	; 0x32
     778:	e58d4000 	str	r4, [sp]
     77c:	e1a00009 	mov	r0, r9
     780:	e59d1010 	ldr	r1, [sp, #16]
     784:	e1a02006 	mov	r2, r6
     788:	e1a03001 	mov	r3, r1
     78c:	ebfffee8 	bl	334 <draw_line>

    //arrows of the graph
    //top arrow
    draw_line(x, y - GRAPH_LEN, x-ARROW_LEN, y-GRAPH_LEN+ARROW_LEN, colour);
     790:	e2492002 	sub	r2, r9, #2
     794:	e58d2008 	str	r2, [sp, #8]
     798:	e59d3010 	ldr	r3, [sp, #16]
     79c:	e2433030 	sub	r3, r3, #48	; 0x30
     7a0:	e58d300c 	str	r3, [sp, #12]
     7a4:	e58d4000 	str	r4, [sp]
     7a8:	e1a00009 	mov	r0, r9
     7ac:	e1a01008 	mov	r1, r8
     7b0:	ebfffedf 	bl	334 <draw_line>
    draw_line(x, y - GRAPH_LEN, x+ARROW_LEN, y-GRAPH_LEN+ARROW_LEN, colour);
     7b4:	e289a002 	add	r10, r9, #2
     7b8:	e58d4000 	str	r4, [sp]
     7bc:	e1a00009 	mov	r0, r9
     7c0:	e1a01008 	mov	r1, r8
     7c4:	e1a0200a 	mov	r2, r10
     7c8:	e59d300c 	ldr	r3, [sp, #12]
     7cc:	ebfffed8 	bl	334 <draw_line>
    //right arrow
    draw_line(x + GRAPH_LEN, y, x+GRAPH_LEN-ARROW_LEN, y-ARROW_LEN, colour);
     7d0:	e2898030 	add	r8, r9, #48	; 0x30
     7d4:	e58d4000 	str	r4, [sp]
     7d8:	e1a00006 	mov	r0, r6
     7dc:	e59d1010 	ldr	r1, [sp, #16]
     7e0:	e1a02008 	mov	r2, r8
     7e4:	e2413002 	sub	r3, r1, #2
     7e8:	ebfffed1 	bl	334 <draw_line>
    draw_line(x + GRAPH_LEN, y, x+GRAPH_LEN-ARROW_LEN, y+ARROW_LEN, colour);
     7ec:	e58d4000 	str	r4, [sp]
     7f0:	e1a00006 	mov	r0, r6
     7f4:	e59d1010 	ldr	r1, [sp, #16]
     7f8:	e1a02008 	mov	r2, r8
     7fc:	e2813002 	add	r3, r1, #2
     800:	ebfffecb 	bl	334 <draw_line>
    //bottom arrow
    draw_line(x, y + GRAPH_LEN, x-ARROW_LEN, y+GRAPH_LEN-ARROW_LEN, colour);
     804:	e59dc010 	ldr	r12, [sp, #16]
     808:	e28c6030 	add	r6, r12, #48	; 0x30
     80c:	e58d4000 	str	r4, [sp]
     810:	e1a00009 	mov	r0, r9
     814:	e1a01005 	mov	r1, r5
     818:	e59d2008 	ldr	r2, [sp, #8]
     81c:	e1a03006 	mov	r3, r6
     820:	ebfffec3 	bl	334 <draw_line>
    draw_line(x, y + GRAPH_LEN, x+ARROW_LEN, y+GRAPH_LEN-ARROW_LEN, colour);
     824:	e58d4000 	str	r4, [sp]
     828:	e1a00009 	mov	r0, r9
     82c:	e1a01005 	mov	r1, r5
     830:	e1a0200a 	mov	r2, r10
     834:	e1a03006 	mov	r3, r6
     838:	ebfffebd 	bl	334 <draw_line>

    float max = 0.000001;
    //find the max in the array
    for(int i = 0; i < size-1; i++){
     83c:	e24b3001 	sub	r3, r11, #1
     840:	e3530000 	cmp	r3, #0
     844:	da000013 	ble	898 <draw_graph+0x15c>
    }
    plot_pixel(5, 5, RED);
    return;
}

void draw_graph(int x, int y, int size, float values[size], short int colour){
     848:	e1a0a103 	lsl	r10, r3, #2
     84c:	e3a04000 	mov	r4, #0
    draw_line(x + GRAPH_LEN, y, x+GRAPH_LEN-ARROW_LEN, y+ARROW_LEN, colour);
    //bottom arrow
    draw_line(x, y + GRAPH_LEN, x-ARROW_LEN, y+GRAPH_LEN-ARROW_LEN, colour);
    draw_line(x, y + GRAPH_LEN, x+ARROW_LEN, y+GRAPH_LEN-ARROW_LEN, colour);

    float max = 0.000001;
     850:	e30357bd 	movw	r5, #14269	; 0x37bd
     854:	e3435586 	movt	r5, #13702	; 0x3586
    //find the max in the array
    for(int i = 0; i < size-1; i++){
        float check = values[i];
        if(check < 0) check = -check;
     858:	e3a08000 	mov	r8, #0
    draw_line(x, y + GRAPH_LEN, x+ARROW_LEN, y+GRAPH_LEN-ARROW_LEN, colour);

    float max = 0.000001;
    //find the max in the array
    for(int i = 0; i < size-1; i++){
        float check = values[i];
     85c:	e7976004 	ldr	r6, [r7, r4]
        if(check < 0) check = -check;
     860:	e1a00006 	mov	r0, r6
     864:	e1a01008 	mov	r1, r8
     868:	eb0017dd 	bl	67e4 <__aeabi_fcmplt>
     86c:	e3500000 	cmp	r0, #0
     870:	12866102 	addne	r6, r6, #-2147483648	; 0x80000000
        if(max < check) max = check;
     874:	e1a00006 	mov	r0, r6
     878:	e1a01005 	mov	r1, r5
     87c:	eb0017ea 	bl	682c <__aeabi_fcmpgt>
     880:	e3500000 	cmp	r0, #0
     884:	11a05006 	movne	r5, r6
     888:	e2844004 	add	r4, r4, #4
    draw_line(x, y + GRAPH_LEN, x-ARROW_LEN, y+GRAPH_LEN-ARROW_LEN, colour);
    draw_line(x, y + GRAPH_LEN, x+ARROW_LEN, y+GRAPH_LEN-ARROW_LEN, colour);

    float max = 0.000001;
    //find the max in the array
    for(int i = 0; i < size-1; i++){
     88c:	e154000a 	cmp	r4, r10
     890:	1afffff1 	bne	85c <draw_graph+0x120>
     894:	ea000001 	b	8a0 <draw_graph+0x164>
    draw_line(x + GRAPH_LEN, y, x+GRAPH_LEN-ARROW_LEN, y+ARROW_LEN, colour);
    //bottom arrow
    draw_line(x, y + GRAPH_LEN, x-ARROW_LEN, y+GRAPH_LEN-ARROW_LEN, colour);
    draw_line(x, y + GRAPH_LEN, x+ARROW_LEN, y+GRAPH_LEN-ARROW_LEN, colour);

    float max = 0.000001;
     898:	e30357bd 	movw	r5, #14269	; 0x37bd
     89c:	e3435586 	movt	r5, #13702	; 0x3586
        if(check < 0) check = -check;
        if(max < check) max = check;
    }

    //graph the values
    for(int i = 0; i < size-2; i++){
     8a0:	e24b2002 	sub	r2, r11, #2
     8a4:	e58d2018 	str	r2, [sp, #24]
     8a8:	e3520000 	cmp	r2, #0
     8ac:	da000034 	ble	984 <draw_graph+0x248>
    }
    plot_pixel(5, 5, RED);
    return;
}

void draw_graph(int x, int y, int size, float values[size], short int colour){
     8b0:	e2477004 	sub	r7, r7, #4
     8b4:	e3a04000 	mov	r4, #0
     8b8:	e1a06004 	mov	r6, r4
        if(max < check) max = check;
    }

    //graph the values
    for(int i = 0; i < size-2; i++){
        draw_line((int)(x+i*(GRAPH_LEN-ARROW_LEN)/size), (int)(y-(GRAPH_LEN-ARROW_LEN)*(values[i]/max)),
     8bc:	e3a0a000 	mov	r10, #0
     8c0:	e344a240 	movt	r10, #16960	; 0x4240
     8c4:	e3a03b3e 	mov	r3, #63488	; 0xf800
     8c8:	e34f3fff 	movt	r3, #65535	; 0xffff
     8cc:	e58d301c 	str	r3, [sp, #28]
     8d0:	e1a08005 	mov	r8, r5
     8d4:	e1a00004 	mov	r0, r4
     8d8:	e1a0100b 	mov	r1, r11
     8dc:	eb001319 	bl	5548 <__aeabi_idiv>
     8e0:	e0800009 	add	r0, r0, r9
     8e4:	e58d0008 	str	r0, [sp, #8]
     8e8:	e59d0010 	ldr	r0, [sp, #16]
     8ec:	eb00169a 	bl	635c <__aeabi_i2f>
     8f0:	e1a05000 	mov	r5, r0
                (int)(x+(i+1)*(GRAPH_LEN-ARROW_LEN)/size), (int)(y-(GRAPH_LEN-ARROW_LEN)*(values[i+1]/max)), RED);
     8f4:	e2866001 	add	r6, r6, #1
    }
    plot_pixel(5, 5, RED);
    return;
}

void draw_graph(int x, int y, int size, float values[size], short int colour){
     8f8:	e2844030 	add	r4, r4, #48	; 0x30
        if(max < check) max = check;
    }

    //graph the values
    for(int i = 0; i < size-2; i++){
        draw_line((int)(x+i*(GRAPH_LEN-ARROW_LEN)/size), (int)(y-(GRAPH_LEN-ARROW_LEN)*(values[i]/max)),
     8fc:	e5b70004 	ldr	r0, [r7, #4]!
     900:	e1a01008 	mov	r1, r8
     904:	eb001731 	bl	65d0 <__aeabi_fdiv>
     908:	e1a0100a 	mov	r1, r10
     90c:	eb0016c9 	bl	6438 <__aeabi_fmul>
     910:	e1a01000 	mov	r1, r0
     914:	e1a00005 	mov	r0, r5
     918:	eb00161d 	bl	6194 <__aeabi_fsub>
     91c:	eb0017c8 	bl	6844 <__aeabi_f2iz>
     920:	e58d000c 	str	r0, [sp, #12]
                (int)(x+(i+1)*(GRAPH_LEN-ARROW_LEN)/size), (int)(y-(GRAPH_LEN-ARROW_LEN)*(values[i+1]/max)), RED);
     924:	e1a00004 	mov	r0, r4
     928:	e1a0100b 	mov	r1, r11
     92c:	eb001305 	bl	5548 <__aeabi_idiv>
        if(max < check) max = check;
    }

    //graph the values
    for(int i = 0; i < size-2; i++){
        draw_line((int)(x+i*(GRAPH_LEN-ARROW_LEN)/size), (int)(y-(GRAPH_LEN-ARROW_LEN)*(values[i]/max)),
     930:	e0800009 	add	r0, r0, r9
     934:	e58d0014 	str	r0, [sp, #20]
                (int)(x+(i+1)*(GRAPH_LEN-ARROW_LEN)/size), (int)(y-(GRAPH_LEN-ARROW_LEN)*(values[i+1]/max)), RED);
     938:	e5970004 	ldr	r0, [r7, #4]
     93c:	e1a01008 	mov	r1, r8
     940:	eb001722 	bl	65d0 <__aeabi_fdiv>
     944:	e1a0100a 	mov	r1, r10
     948:	eb0016ba 	bl	6438 <__aeabi_fmul>
     94c:	e1a01000 	mov	r1, r0
     950:	e1a00005 	mov	r0, r5
     954:	eb00160e 	bl	6194 <__aeabi_fsub>
        if(max < check) max = check;
    }

    //graph the values
    for(int i = 0; i < size-2; i++){
        draw_line((int)(x+i*(GRAPH_LEN-ARROW_LEN)/size), (int)(y-(GRAPH_LEN-ARROW_LEN)*(values[i]/max)),
     958:	eb0017b9 	bl	6844 <__aeabi_f2iz>
     95c:	e1a03000 	mov	r3, r0
     960:	e59dc01c 	ldr	r12, [sp, #28]
     964:	e58dc000 	str	r12, [sp]
     968:	e59d0008 	ldr	r0, [sp, #8]
     96c:	e59d100c 	ldr	r1, [sp, #12]
     970:	e59d2014 	ldr	r2, [sp, #20]
     974:	ebfffe6e 	bl	334 <draw_line>
        if(check < 0) check = -check;
        if(max < check) max = check;
    }

    //graph the values
    for(int i = 0; i < size-2; i++){
     978:	e59d2018 	ldr	r2, [sp, #24]
     97c:	e1560002 	cmp	r6, r2
     980:	1affffd3 	bne	8d4 <draw_graph+0x198>
        draw_line((int)(x+i*(GRAPH_LEN-ARROW_LEN)/size), (int)(y-(GRAPH_LEN-ARROW_LEN)*(values[i]/max)),
                (int)(x+(i+1)*(GRAPH_LEN-ARROW_LEN)/size), (int)(y-(GRAPH_LEN-ARROW_LEN)*(values[i+1]/max)), RED);
    }
}
     984:	e28dd024 	add	sp, sp, #36	; 0x24
     988:	e8bd8ff0 	pop	{r4, r5, r6, r7, r8, r9, r10, r11, pc}

0000098c <draw_rect>:
    draw_line(x0, y1, x1, y1, colour);//right
    draw_line(x1, y1, x1, y0, colour);//up
    draw_line(x1, y0, x0, y0, colour);//left
}

void draw_rect(int x0, int y0, int x1, int y1, short int colour){
     98c:	e92d45f8 	push	{r3, r4, r5, r6, r7, r8, r10, lr}
     990:	e1a08001 	mov	r8, r1
     994:	e1a0a002 	mov	r10, r2
     998:	e1a06003 	mov	r6, r3
     99c:	e1dd72f0 	ldrsh	r7, [sp, #32]
    for(int x = x0; x<=x1; x++){
     9a0:	e1500002 	cmp	r0, r2
     9a4:	c8bd85f8 	popgt	{r3, r4, r5, r6, r7, r8, r10, pc}
     9a8:	ea00000a 	b	9d8 <draw_rect+0x4c>
        for (int y = y0; y<=y1; y++) {
            plot_pixel(x, y, colour);
     9ac:	e1a00005 	mov	r0, r5
     9b0:	e1a01004 	mov	r1, r4
     9b4:	e1a02007 	mov	r2, r7
     9b8:	ebfffe4d 	bl	2f4 <plot_pixel>
    draw_line(x1, y0, x0, y0, colour);//left
}

void draw_rect(int x0, int y0, int x1, int y1, short int colour){
    for(int x = x0; x<=x1; x++){
        for (int y = y0; y<=y1; y++) {
     9bc:	e2844001 	add	r4, r4, #1
     9c0:	e1560004 	cmp	r6, r4
     9c4:	aafffff8 	bge	9ac <draw_rect+0x20>
    draw_line(x1, y1, x1, y0, colour);//up
    draw_line(x1, y0, x0, y0, colour);//left
}

void draw_rect(int x0, int y0, int x1, int y1, short int colour){
    for(int x = x0; x<=x1; x++){
     9c8:	e2855001 	add	r5, r5, #1
     9cc:	e15a0005 	cmp	r10, r5
     9d0:	aa000001 	bge	9dc <draw_rect+0x50>
     9d4:	e8bd85f8 	pop	{r3, r4, r5, r6, r7, r8, r10, pc}
     9d8:	e1a05000 	mov	r5, r0
        for (int y = y0; y<=y1; y++) {
     9dc:	e1580006 	cmp	r8, r6
     9e0:	d1a04008 	movle	r4, r8
     9e4:	dafffff0 	ble	9ac <draw_rect+0x20>
     9e8:	eafffff6 	b	9c8 <draw_rect+0x3c>

000009ec <draw_circuit>:
        wait_for_vsync(); // swap front and back buffers on VGA vertical sync
        pixel_buffer_start = *(pixel_ctrl_ptr + 1); // new back buffer
    }
}

void draw_circuit(int x, int y, short int colour, bool sw1, bool sw2){
     9ec:	e92d4ff0 	push	{r4, r5, r6, r7, r8, r9, r10, r11, lr}
     9f0:	e24dd024 	sub	sp, sp, #36	; 0x24
     9f4:	e1a06000 	mov	r6, r0
     9f8:	e1a05001 	mov	r5, r1
     9fc:	e58d3018 	str	r3, [sp, #24]

    int width = 5;
    int ctr = 80;
    //source
    int radius = 30;
    draw_circle(x, y, radius, WHITE);
     a00:	e3a0201e 	mov	r2, #30
     a04:	e3e03000 	mvn	r3, #0
     a08:	ebfffe85 	bl	424 <draw_circle>
    draw_circle(x, y, radius-width, BLACK);
     a0c:	e1a00006 	mov	r0, r6
     a10:	e1a01005 	mov	r1, r5
     a14:	e3a02019 	mov	r2, #25
     a18:	e3a03000 	mov	r3, #0
     a1c:	ebfffe80 	bl	424 <draw_circle>
    //plus
    draw_rect(x-3, y-20, x+3, y, RED);
     a20:	e3a04b3e 	mov	r4, #63488	; 0xf800
     a24:	e34f4fff 	movt	r4, #65535	; 0xffff
     a28:	e58d4000 	str	r4, [sp]
     a2c:	e2460003 	sub	r0, r6, #3
     a30:	e2451014 	sub	r1, r5, #20
     a34:	e2862003 	add	r2, r6, #3
     a38:	e1a03005 	mov	r3, r5
     a3c:	ebffffd2 	bl	98c <draw_rect>
    draw_rect(x-14, y-13, x+14, y-7, RED);
     a40:	e246800e 	sub	r8, r6, #14
     a44:	e286700e 	add	r7, r6, #14
     a48:	e58d4000 	str	r4, [sp]
     a4c:	e1a00008 	mov	r0, r8
     a50:	e245100d 	sub	r1, r5, #13
     a54:	e1a02007 	mov	r2, r7
     a58:	e2453007 	sub	r3, r5, #7
     a5c:	ebffffca 	bl	98c <draw_rect>
    //minus
    draw_rect(x-14, y+10, x+14, y+16, BLUE);
     a60:	e285400a 	add	r4, r5, #10
     a64:	e3a0301f 	mov	r3, #31
     a68:	e58d3000 	str	r3, [sp]
     a6c:	e1a00008 	mov	r0, r8
     a70:	e1a01004 	mov	r1, r4
     a74:	e1a02007 	mov	r2, r7
     a78:	e2853010 	add	r3, r5, #16
     a7c:	ebffffc2 	bl	98c <draw_rect>

    //capacitor
    int cap_x = (x+ctr -5*width);
     a80:	e2868037 	add	r8, r6, #55	; 0x37
    draw_rect(cap_x, y-2*width, cap_x + 10*width, y-width, WHITE);
     a84:	e2867069 	add	r7, r6, #105	; 0x69
     a88:	e3e0a000 	mvn	r10, #0
     a8c:	e58da000 	str	r10, [sp]
     a90:	e1a00008 	mov	r0, r8
     a94:	e245100a 	sub	r1, r5, #10
     a98:	e1a02007 	mov	r2, r7
     a9c:	e2453005 	sub	r3, r5, #5
     aa0:	ebffffb9 	bl	98c <draw_rect>
    draw_rect(cap_x, y+width, cap_x + 10*width, y+2*width, WHITE);
     aa4:	e58da000 	str	r10, [sp]
     aa8:	e1a00008 	mov	r0, r8
     aac:	e2851005 	add	r1, r5, #5
     ab0:	e1a02007 	mov	r2, r7
     ab4:	e1a03004 	mov	r3, r4
     ab8:	ebffffb3 	bl	98c <draw_rect>

    //resistor
    int diag_x = 15;
    int diag_y = 10;
    int res_x = (x+2*ctr);
     abc:	e28630a0 	add	r3, r6, #160	; 0xa0
    int res_y = y-diag_x;//resistor goes down 40 pixels from here
     ac0:	e245400f 	sub	r4, r5, #15
        wait_for_vsync(); // swap front and back buffers on VGA vertical sync
        pixel_buffer_start = *(pixel_ctrl_ptr + 1); // new back buffer
    }
}

void draw_circuit(int x, int y, short int colour, bool sw1, bool sw2){
     ac4:	e245900c 	sub	r9, r5, #12
    int diag_y = 10;
    int res_x = (x+2*ctr);
    int res_y = y-diag_x;//resistor goes down 40 pixels from here

    for(int dec = 0; dec<5; dec++){//make the resistor lines thicker
        draw_line(res_x, res_y, res_x-diag_x, res_y+diag_y, WHITE);//from the line out: x- y+
     ac8:	e286a091 	add	r10, r6, #145	; 0x91
     acc:	e3e07000 	mvn	r7, #0
        draw_line(res_x-diag_x, res_y+diag_y, res_x+diag_x, res_y+2*diag_y, WHITE);//x+ y+
     ad0:	e28680af 	add	r8, r6, #175	; 0xaf
     ad4:	e1a0b003 	mov	r11, r3
     ad8:	e58d6014 	str	r6, [sp, #20]
     adc:	e58d501c 	str	r5, [sp, #28]
     ae0:	e1a05009 	mov	r5, r9
        wait_for_vsync(); // swap front and back buffers on VGA vertical sync
        pixel_buffer_start = *(pixel_ctrl_ptr + 1); // new back buffer
    }
}

void draw_circuit(int x, int y, short int colour, bool sw1, bool sw2){
     ae4:	e284900a 	add	r9, r4, #10
    int diag_y = 10;
    int res_x = (x+2*ctr);
    int res_y = y-diag_x;//resistor goes down 40 pixels from here

    for(int dec = 0; dec<5; dec++){//make the resistor lines thicker
        draw_line(res_x, res_y, res_x-diag_x, res_y+diag_y, WHITE);//from the line out: x- y+
     ae8:	e58d7000 	str	r7, [sp]
     aec:	e1a0000b 	mov	r0, r11
     af0:	e1a01004 	mov	r1, r4
     af4:	e1a0200a 	mov	r2, r10
     af8:	e1a03009 	mov	r3, r9
     afc:	ebfffe0c 	bl	334 <draw_line>
        wait_for_vsync(); // swap front and back buffers on VGA vertical sync
        pixel_buffer_start = *(pixel_ctrl_ptr + 1); // new back buffer
    }
}

void draw_circuit(int x, int y, short int colour, bool sw1, bool sw2){
     b00:	e2846014 	add	r6, r4, #20
    int res_x = (x+2*ctr);
    int res_y = y-diag_x;//resistor goes down 40 pixels from here

    for(int dec = 0; dec<5; dec++){//make the resistor lines thicker
        draw_line(res_x, res_y, res_x-diag_x, res_y+diag_y, WHITE);//from the line out: x- y+
        draw_line(res_x-diag_x, res_y+diag_y, res_x+diag_x, res_y+2*diag_y, WHITE);//x+ y+
     b04:	e58d7000 	str	r7, [sp]
     b08:	e1a0000a 	mov	r0, r10
     b0c:	e1a01009 	mov	r1, r9
     b10:	e1a02008 	mov	r2, r8
     b14:	e1a03006 	mov	r3, r6
     b18:	ebfffe05 	bl	334 <draw_line>
        wait_for_vsync(); // swap front and back buffers on VGA vertical sync
        pixel_buffer_start = *(pixel_ctrl_ptr + 1); // new back buffer
    }
}

void draw_circuit(int x, int y, short int colour, bool sw1, bool sw2){
     b1c:	e284901e 	add	r9, r4, #30
    int res_y = y-diag_x;//resistor goes down 40 pixels from here

    for(int dec = 0; dec<5; dec++){//make the resistor lines thicker
        draw_line(res_x, res_y, res_x-diag_x, res_y+diag_y, WHITE);//from the line out: x- y+
        draw_line(res_x-diag_x, res_y+diag_y, res_x+diag_x, res_y+2*diag_y, WHITE);//x+ y+
        draw_line(res_x+diag_x, res_y+2*diag_y, res_x-diag_x, res_y+3*diag_y, WHITE);//x- y+
     b20:	e58d7000 	str	r7, [sp]
     b24:	e1a00008 	mov	r0, r8
     b28:	e1a01006 	mov	r1, r6
     b2c:	e1a0200a 	mov	r2, r10
     b30:	e1a03009 	mov	r3, r9
     b34:	ebfffdfe 	bl	334 <draw_line>
        wait_for_vsync(); // swap front and back buffers on VGA vertical sync
        pixel_buffer_start = *(pixel_ctrl_ptr + 1); // new back buffer
    }
}

void draw_circuit(int x, int y, short int colour, bool sw1, bool sw2){
     b38:	e2846028 	add	r6, r4, #40	; 0x28

    for(int dec = 0; dec<5; dec++){//make the resistor lines thicker
        draw_line(res_x, res_y, res_x-diag_x, res_y+diag_y, WHITE);//from the line out: x- y+
        draw_line(res_x-diag_x, res_y+diag_y, res_x+diag_x, res_y+2*diag_y, WHITE);//x+ y+
        draw_line(res_x+diag_x, res_y+2*diag_y, res_x-diag_x, res_y+3*diag_y, WHITE);//x- y+
        draw_line(res_x-diag_x, res_y+3*diag_y, res_x+diag_x, res_y+4*diag_y, WHITE);//x+ y+
     b3c:	e58d7000 	str	r7, [sp]
     b40:	e1a0000a 	mov	r0, r10
     b44:	e1a01009 	mov	r1, r9
     b48:	e1a02008 	mov	r2, r8
     b4c:	e1a03006 	mov	r3, r6
     b50:	ebfffdf7 	bl	334 <draw_line>
        draw_line(res_x+diag_x, res_y+4*diag_y, res_x, res_y+5*diag_y, WHITE);//back into the line: x- y+
     b54:	e58d7000 	str	r7, [sp]
     b58:	e1a00008 	mov	r0, r8
     b5c:	e1a01006 	mov	r1, r6
     b60:	e1a0200b 	mov	r2, r11
     b64:	e2843032 	add	r3, r4, #50	; 0x32
     b68:	ebfffdf1 	bl	334 <draw_line>
        dec++;
        res_y++;
     b6c:	e2844001 	add	r4, r4, #1
    int diag_x = 15;
    int diag_y = 10;
    int res_x = (x+2*ctr);
    int res_y = y-diag_x;//resistor goes down 40 pixels from here

    for(int dec = 0; dec<5; dec++){//make the resistor lines thicker
     b70:	e1540005 	cmp	r4, r5
     b74:	1affffda 	bne	ae4 <draw_circuit+0xf8>
     b78:	e59d6014 	ldr	r6, [sp, #20]
     b7c:	e59d501c 	ldr	r5, [sp, #28]
        draw_line(res_x+diag_x, res_y+4*diag_y, res_x, res_y+5*diag_y, WHITE);//back into the line: x- y+
        dec++;
        res_y++;
    }
    //switches
    draw_switches(30, x + 10, y-ctr, x + 10 + ctr, y - ctr, sw1, sw2, WHITE);
     b80:	e286705a 	add	r7, r6, #90	; 0x5a
     b84:	e2452050 	sub	r2, r5, #80	; 0x50
     b88:	e58d2000 	str	r2, [sp]
     b8c:	e59d3018 	ldr	r3, [sp, #24]
     b90:	e58d3004 	str	r3, [sp, #4]
     b94:	e5dd3048 	ldrb	r3, [sp, #72]	; 0x48
     b98:	e58d3008 	str	r3, [sp, #8]
     b9c:	e30f3fff 	movw	r3, #65535	; 0xffff
     ba0:	e58d300c 	str	r3, [sp, #12]
     ba4:	e3a0001e 	mov	r0, #30
     ba8:	e286100a 	add	r1, r6, #10
     bac:	e1a03007 	mov	r3, r7
     bb0:	ebfffe75 	bl	58c <draw_switches>

    //ground
    int gnd_ctr = x + ctr;
    int gnd_y = y+ctr-20;
    draw_rect(gnd_ctr-width/2, gnd_y, gnd_ctr+width/2, gnd_y+2*width, WHITE);//stem
     bb4:	e2858046 	add	r8, r5, #70	; 0x46
     bb8:	e3e04000 	mvn	r4, #0
     bbc:	e58d4000 	str	r4, [sp]
     bc0:	e286004e 	add	r0, r6, #78	; 0x4e
     bc4:	e285103c 	add	r1, r5, #60	; 0x3c
     bc8:	e2862052 	add	r2, r6, #82	; 0x52
     bcc:	e1a03008 	mov	r3, r8
     bd0:	ebffff6d 	bl	98c <draw_rect>
    draw_rect(gnd_ctr-4*width, gnd_y+2*width, gnd_ctr+4*width, gnd_y+3*width, WHITE);//1st layer
     bd4:	e58d4000 	str	r4, [sp]
     bd8:	e286003c 	add	r0, r6, #60	; 0x3c
     bdc:	e1a01008 	mov	r1, r8
     be0:	e2862064 	add	r2, r6, #100	; 0x64
     be4:	e285304b 	add	r3, r5, #75	; 0x4b
     be8:	ebffff67 	bl	98c <draw_rect>
    draw_rect(gnd_ctr-2*width, gnd_y+4*width, gnd_ctr+2*width, gnd_y+5*width, WHITE);//2nd
     bec:	e58d4000 	str	r4, [sp]
     bf0:	e2860046 	add	r0, r6, #70	; 0x46
     bf4:	e2851050 	add	r1, r5, #80	; 0x50
     bf8:	e1a02007 	mov	r2, r7
     bfc:	e2853055 	add	r3, r5, #85	; 0x55
     c00:	ebffff61 	bl	98c <draw_rect>
    draw_rect(gnd_ctr-width, gnd_y+6*width, gnd_ctr+width, gnd_y+7*width, WHITE);//3rd
     c04:	e58d4000 	str	r4, [sp]
     c08:	e286004b 	add	r0, r6, #75	; 0x4b
     c0c:	e285105a 	add	r1, r5, #90	; 0x5a
     c10:	e2862055 	add	r2, r6, #85	; 0x55
     c14:	e285305f 	add	r3, r5, #95	; 0x5f
     c18:	ebffff5b 	bl	98c <draw_rect>

    //wires

    //text add-ons
}
     c1c:	e28dd024 	add	sp, sp, #36	; 0x24
     c20:	e8bd8ff0 	pop	{r4, r5, r6, r7, r8, r9, r10, r11, pc}

00000c24 <clear_screen>:

void clear_screen(){
     c24:	e92d4070 	push	{r4, r5, r6, lr}
    short int line_colour = BLACK;
    for (int x = 0; x < X_DIM; x++ ){
     c28:	e3a05000 	mov	r5, #0
    //wires

    //text add-ons
}

void clear_screen(){
     c2c:	e1a06005 	mov	r6, r5
     c30:	ea000009 	b	c5c <clear_screen+0x38>
    short int line_colour = BLACK;
    for (int x = 0; x < X_DIM; x++ ){
    	for (int y = 0; y < Y_DIM ; y++ ){
        	plot_pixel(x, y, line_colour);
     c34:	e1a00005 	mov	r0, r5
     c38:	e1a01004 	mov	r1, r4
     c3c:	e1a02006 	mov	r2, r6
     c40:	ebfffdab 	bl	2f4 <plot_pixel>
}

void clear_screen(){
    short int line_colour = BLACK;
    for (int x = 0; x < X_DIM; x++ ){
    	for (int y = 0; y < Y_DIM ; y++ ){
     c44:	e2844001 	add	r4, r4, #1
     c48:	e35400f0 	cmp	r4, #240	; 0xf0
     c4c:	1afffff8 	bne	c34 <clear_screen+0x10>
    //text add-ons
}

void clear_screen(){
    short int line_colour = BLACK;
    for (int x = 0; x < X_DIM; x++ ){
     c50:	e2855001 	add	r5, r5, #1
     c54:	e3550d05 	cmp	r5, #320	; 0x140
     c58:	0a000001 	beq	c64 <clear_screen+0x40>
    //wires

    //text add-ons
}

void clear_screen(){
     c5c:	e1a04006 	mov	r4, r6
     c60:	eafffff3 	b	c34 <clear_screen+0x10>
    for (int x = 0; x < X_DIM; x++ ){
    	for (int y = 0; y < Y_DIM ; y++ ){
        	plot_pixel(x, y, line_colour);
        }
    }
    plot_pixel(5, 5, RED);
     c64:	e3a00005 	mov	r0, #5
     c68:	e1a01000 	mov	r1, r0
     c6c:	e3a02b3e 	mov	r2, #63488	; 0xf800
     c70:	e34f2fff 	movt	r2, #65535	; 0xffff
     c74:	ebfffd9e 	bl	2f4 <plot_pixel>
     c78:	e8bd8070 	pop	{r4, r5, r6, pc}

00000c7c <swap>:
    if(x<X_DIM && x>=0 && y<Y_DIM && y>=0)
        *(short int *)(pixel_buffer_start + (y << 10) + (x << 1)) = line_color;
}

void swap (int* x, int* y){
    int temp = *x;
     c7c:	e5903000 	ldr	r3, [r0]
    *x = *y;
     c80:	e5912000 	ldr	r2, [r1]
     c84:	e5802000 	str	r2, [r0]
    *y = temp;
     c88:	e5813000 	str	r3, [r1]
     c8c:	e12fff1e 	bx	lr

00000c90 <wait_for_vsync>:
}

void wait_for_vsync(){
    volatile int * pixel_ctrl_ptr = (int *)PIXEL_BUFF_REG;
    register int status;
    *pixel_ctrl_ptr = 1;    //start synchronization
     c90:	e3033fff 	movw	r3, #16383	; 0x3fff
     c94:	e34f3f20 	movt	r3, #65312	; 0xff20
     c98:	e3a02001 	mov	r2, #1
     c9c:	e5032fdf 	str	r2, [r3, #-4063]	; 0xfffff021
    status = *(pixel_ctrl_ptr + 3); //read s vlaue
     ca0:	e5133fd3 	ldr	r3, [r3, #-4051]	; 0xfffff02d
    while ((status & 0x01) != 0){
     ca4:	e3130001 	tst	r3, #1
     ca8:	012fff1e 	bxeq	lr
       status = *(pixel_ctrl_ptr + 3); //read s vlaue
     cac:	e3032fff 	movw	r2, #16383	; 0x3fff
     cb0:	e34f2f20 	movt	r2, #65312	; 0xff20
     cb4:	e5123fd3 	ldr	r3, [r2, #-4051]	; 0xfffff02d
void wait_for_vsync(){
    volatile int * pixel_ctrl_ptr = (int *)PIXEL_BUFF_REG;
    register int status;
    *pixel_ctrl_ptr = 1;    //start synchronization
    status = *(pixel_ctrl_ptr + 3); //read s vlaue
    while ((status & 0x01) != 0){
     cb8:	e3130001 	tst	r3, #1
     cbc:	1afffffc 	bne	cb4 <wait_for_vsync+0x24>
     cc0:	e12fff1e 	bx	lr

00000cc4 <clear_line>:
       status = *(pixel_ctrl_ptr + 3); //read s vlaue
    }
}

void clear_line(int xi, int xf, int y){
     cc4:	e92d4070 	push	{r4, r5, r6, lr}
     cc8:	e24dd008 	sub	sp, sp, #8
     ccc:	e58d0004 	str	r0, [sp, #4]
     cd0:	e58d1000 	str	r1, [sp]
     cd4:	e1a05002 	mov	r5, r2
    //clears horizontal line
    if (xi > xf){
     cd8:	e1a04000 	mov	r4, r0
     cdc:	e1500001 	cmp	r0, r1
     ce0:	da000006 	ble	d00 <clear_line+0x3c>
        swap(&xi, &xf);
     ce4:	e28d0004 	add	r0, sp, #4
     ce8:	e1a0100d 	mov	r1, sp
     cec:	ebffffe2 	bl	c7c <swap>
    }
    for (int x = xi; x <= xf; x++){
     cf0:	e59d4004 	ldr	r4, [sp, #4]
     cf4:	e59d3000 	ldr	r3, [sp]
     cf8:	e1540003 	cmp	r4, r3
     cfc:	ca000008 	bgt	d24 <clear_line+0x60>
        plot_pixel(x, y, BLACK);
     d00:	e3a06000 	mov	r6, #0
     d04:	e1a00004 	mov	r0, r4
     d08:	e1a01005 	mov	r1, r5
     d0c:	e1a02006 	mov	r2, r6
     d10:	ebfffd77 	bl	2f4 <plot_pixel>
void clear_line(int xi, int xf, int y){
    //clears horizontal line
    if (xi > xf){
        swap(&xi, &xf);
    }
    for (int x = xi; x <= xf; x++){
     d14:	e2844001 	add	r4, r4, #1
     d18:	e59d3000 	ldr	r3, [sp]
     d1c:	e1530004 	cmp	r3, r4
     d20:	aafffff7 	bge	d04 <clear_line+0x40>
        plot_pixel(x, y, BLACK);
 	}
    return;
}
     d24:	e28dd008 	add	sp, sp, #8
     d28:	e8bd8070 	pop	{r4, r5, r6, pc}

00000d2c <draw_square>:

void draw_square(int x, int y, short int color){
     d2c:	e92d45f8 	push	{r3, r4, r5, r6, r7, r8, r10, lr}
     d30:	e1a08001 	mov	r8, r1
     d34:	e1a07002 	mov	r7, r2
    for (int i = x ; i < (x+5); i++){
     d38:	e280a005 	add	r10, r0, #5
     d3c:	e150000a 	cmp	r0, r10
     d40:	a8bd85f8 	popge	{r3, r4, r5, r6, r7, r8, r10, pc}
     d44:	ea00000a 	b	d74 <draw_square+0x48>
        for (int j = y; j < (y+5); j++){
            plot_pixel(i, j, color);
     d48:	e1a00005 	mov	r0, r5
     d4c:	e1a01004 	mov	r1, r4
     d50:	e1a02007 	mov	r2, r7
     d54:	ebfffd66 	bl	2f4 <plot_pixel>
    return;
}

void draw_square(int x, int y, short int color){
    for (int i = x ; i < (x+5); i++){
        for (int j = y; j < (y+5); j++){
     d58:	e2844001 	add	r4, r4, #1
     d5c:	e1540006 	cmp	r4, r6
     d60:	1afffff8 	bne	d48 <draw_square+0x1c>
 	}
    return;
}

void draw_square(int x, int y, short int color){
    for (int i = x ; i < (x+5); i++){
     d64:	e2855001 	add	r5, r5, #1
     d68:	e155000a 	cmp	r5, r10
     d6c:	1a000002 	bne	d7c <draw_square+0x50>
     d70:	e8bd85f8 	pop	{r3, r4, r5, r6, r7, r8, r10, pc}
     d74:	e1a05000 	mov	r5, r0
        for (int j = y; j < (y+5); j++){
     d78:	e2816005 	add	r6, r1, #5
     d7c:	e1580006 	cmp	r8, r6
     d80:	b1a04008 	movlt	r4, r8
     d84:	baffffef 	blt	d48 <draw_square+0x1c>
     d88:	eafffff5 	b	d64 <draw_square+0x38>

00000d8c <compute>:
            float cap,
            float res,
            float t,
            float t_not,
            bool sw1,
            bool sw2){
     d8c:	e92d4ff0 	push	{r4, r5, r6, r7, r8, r9, r10, r11, lr}
     d90:	e24dd02c 	sub	sp, sp, #44	; 0x2c
     d94:	e1a0a001 	mov	r10, r1
     d98:	e1a07002 	mov	r7, r2
     d9c:	e1a06003 	mov	r6, r3
     da0:	e5dd9070 	ldrb	r9, [sp, #112]	; 0x70
     da4:	e5ddb074 	ldrb	r11, [sp, #116]	; 0x74

    for (int i = 0; i<size; i++){
     da8:	e2508000 	subs	r8, r0, #0
     dac:	da00000d 	ble	de8 <compute+0x5c>
     db0:	e1a01002 	mov	r1, r2
    //         *digit ++;
    //     }
    // }
}

void compute(int size,
     db4:	e1a0c108 	lsl	r12, r8, #2
     db8:	e3a02000 	mov	r2, #0
     dbc:	e1a03002 	mov	r3, r2
            float t_not,
            bool sw1,
            bool sw2){

    for (int i = 0; i<size; i++){
        Ic[i] = Ic[i+1];
     dc0:	e5b10004 	ldr	r0, [r1, #4]!
     dc4:	e2822004 	add	r2, r2, #4
     dc8:	e7870003 	str	r0, [r7, r3]
        Vs[i] = Vs[i+1];
     dcc:	e79a0002 	ldr	r0, [r10, r2]
     dd0:	e78a0003 	str	r0, [r10, r3]
        Vc[i] = Vc[i+1];
     dd4:	e7960002 	ldr	r0, [r6, r2]
     dd8:	e7860003 	str	r0, [r6, r3]
     ddc:	e2833004 	add	r3, r3, #4
            float t,
            float t_not,
            bool sw1,
            bool sw2){

    for (int i = 0; i<size; i++){
     de0:	e153000c 	cmp	r3, r12
     de4:	1afffff5 	bne	dc0 <compute+0x34>
        Ic[i] = Ic[i+1];
        Vs[i] = Vs[i+1];
        Vc[i] = Vc[i+1];
    }

    float arg = (freq * (t - t_not)) - phase;
     de8:	e59d0068 	ldr	r0, [sp, #104]	; 0x68
     dec:	e59d106c 	ldr	r1, [sp, #108]	; 0x6c
     df0:	eb0014e7 	bl	6194 <__aeabi_fsub>
     df4:	e58d0008 	str	r0, [sp, #8]

    Vs[size-1] = amp * sin(arg);
     df8:	e2488001 	sub	r8, r8, #1
        Ic[i] = Ic[i+1];
        Vs[i] = Vs[i+1];
        Vc[i] = Vc[i+1];
    }

    float arg = (freq * (t - t_not)) - phase;
     dfc:	e59d1058 	ldr	r1, [sp, #88]	; 0x58
     e00:	eb00158c 	bl	6438 <__aeabi_fmul>
     e04:	e59d105c 	ldr	r1, [sp, #92]	; 0x5c
     e08:	eb0014e1 	bl	6194 <__aeabi_fsub>

    Vs[size-1] = amp * sin(arg);
     e0c:	eb0012fa 	bl	59fc <__aeabi_f2d>
     e10:	e1cd01f0 	strd	r0, [sp, #16]
     e14:	eb00030f 	bl	1a58 <sin>
     e18:	e1a04000 	mov	r4, r0
     e1c:	e1a05001 	mov	r5, r1
     e20:	e59d0054 	ldr	r0, [sp, #84]	; 0x54
     e24:	eb0012f4 	bl	59fc <__aeabi_f2d>
     e28:	e1a02004 	mov	r2, r4
     e2c:	e1a03005 	mov	r3, r5
     e30:	eb00131e 	bl	5ab0 <__aeabi_dmul>
     e34:	e1a04000 	mov	r4, r0
     e38:	e1a05001 	mov	r5, r1
     e3c:	eb0014aa 	bl	60ec <__aeabi_d2f>
     e40:	e78a0108 	str	r0, [r10, r8, lsl #2]

    if (!sw1 && !sw2){
     e44:	e2292001 	eor	r2, r9, #1
     e48:	e22b3001 	eor	r3, r11, #1
     e4c:	e1130002 	tst	r3, r2
     e50:	0a000005 	beq	e6c <compute+0xe0>
        Ic[size-1] = 0;
     e54:	e3a03000 	mov	r3, #0
     e58:	e7873108 	str	r3, [r7, r8, lsl #2]
        Vc[size-1] = Vc[size-1];//Vs[size-1];
     e5c:	e7963108 	ldr	r3, [r6, r8, lsl #2]
        *v_stored = Vc[size-1];
     e60:	e59d2050 	ldr	r2, [sp, #80]	; 0x50
     e64:	e5823000 	str	r3, [r2]
     e68:	ea00009c 	b	10e0 <compute+0x354>
    }

    else if (sw1 && !sw2){
     e6c:	e1130009 	tst	r3, r9
     e70:	0a00002c 	beq	f28 <compute+0x19c>
        Ic[size-1] = cap * amp * freq * cos(arg);
     e74:	e1cd01d0 	ldrd	r0, [sp, #16]
     e78:	eb00027d 	bl	1874 <cos>
     e7c:	e1a04000 	mov	r4, r0
     e80:	e1a05001 	mov	r5, r1
     e84:	e59d0060 	ldr	r0, [sp, #96]	; 0x60
     e88:	e59d1054 	ldr	r1, [sp, #84]	; 0x54
     e8c:	eb001569 	bl	6438 <__aeabi_fmul>
     e90:	e59d1058 	ldr	r1, [sp, #88]	; 0x58
     e94:	eb001567 	bl	6438 <__aeabi_fmul>
     e98:	eb0012d7 	bl	59fc <__aeabi_f2d>
     e9c:	e1a02004 	mov	r2, r4
     ea0:	e1a03005 	mov	r3, r5
     ea4:	eb001301 	bl	5ab0 <__aeabi_dmul>
     ea8:	eb00148f 	bl	60ec <__aeabi_d2f>
     eac:	e7870108 	str	r0, [r7, r8, lsl #2]
        Vc[size-1] = Vs[size-1] * (1 - exp( -(t-t_not) / (res * cap) ) );
     eb0:	e79a0108 	ldr	r0, [r10, r8, lsl #2]
     eb4:	eb0012d0 	bl	59fc <__aeabi_f2d>
     eb8:	e1a04000 	mov	r4, r0
     ebc:	e1a05001 	mov	r5, r1
     ec0:	e59d3008 	ldr	r3, [sp, #8]
     ec4:	e2837102 	add	r7, r3, #-2147483648	; 0x80000000
     ec8:	e59d0064 	ldr	r0, [sp, #100]	; 0x64
     ecc:	e59d1060 	ldr	r1, [sp, #96]	; 0x60
     ed0:	eb001558 	bl	6438 <__aeabi_fmul>
     ed4:	e1a01000 	mov	r1, r0
     ed8:	e1a00007 	mov	r0, r7
     edc:	eb0015bb 	bl	65d0 <__aeabi_fdiv>
     ee0:	eb0012c5 	bl	59fc <__aeabi_f2d>
     ee4:	eb00031b 	bl	1b58 <exp>
     ee8:	e1a02000 	mov	r2, r0
     eec:	e1a03001 	mov	r3, r1
     ef0:	e3a00000 	mov	r0, #0
     ef4:	e3a01000 	mov	r1, #0
     ef8:	e3431ff0 	movt	r1, #16368	; 0x3ff0
     efc:	eb0011e6 	bl	569c <__aeabi_dsub>
     f00:	e1a02000 	mov	r2, r0
     f04:	e1a03001 	mov	r3, r1
     f08:	e1a00004 	mov	r0, r4
     f0c:	e1a01005 	mov	r1, r5
     f10:	eb0012e6 	bl	5ab0 <__aeabi_dmul>
     f14:	eb001474 	bl	60ec <__aeabi_d2f>
     f18:	e7860108 	str	r0, [r6, r8, lsl #2]
        *v_stored = Vc[size-1];
     f1c:	e59d2050 	ldr	r2, [sp, #80]	; 0x50
     f20:	e5820000 	str	r0, [r2]
     f24:	ea00006d 	b	10e0 <compute+0x354>
    }

    else if (sw1 && sw2){
     f28:	e11b0009 	tst	r11, r9
     f2c:	0a00004f 	beq	1070 <compute+0x2e4>
        Ic[size-1] = ((amp * sin(arg) * exp( -(t-t_not) / (res * cap) ) ) / res) + (amp * cap * freq * (1 - exp( -(t-t_not) / (res * cap) ) ) * cos(arg));
     f30:	e59d3008 	ldr	r3, [sp, #8]
     f34:	e2839102 	add	r9, r3, #-2147483648	; 0x80000000
     f38:	e59d0064 	ldr	r0, [sp, #100]	; 0x64
     f3c:	e59d1060 	ldr	r1, [sp, #96]	; 0x60
     f40:	eb00153c 	bl	6438 <__aeabi_fmul>
     f44:	e1a01000 	mov	r1, r0
     f48:	e1a00009 	mov	r0, r9
     f4c:	eb00159f 	bl	65d0 <__aeabi_fdiv>
     f50:	eb0012a9 	bl	59fc <__aeabi_f2d>
     f54:	e1cd00f8 	strd	r0, [sp, #8]
     f58:	eb0002fe 	bl	1b58 <exp>
     f5c:	e1cd01f8 	strd	r0, [sp, #24]
     f60:	e1cd00d8 	ldrd	r0, [sp, #8]
     f64:	eb0002fb 	bl	1b58 <exp>
     f68:	e1cd02f0 	strd	r0, [sp, #32]
     f6c:	e1cd01d0 	ldrd	r0, [sp, #16]
     f70:	eb00023f 	bl	1874 <cos>
     f74:	e1cd01f0 	strd	r0, [sp, #16]
     f78:	e1a00004 	mov	r0, r4
     f7c:	e1a01005 	mov	r1, r5
     f80:	e1cd21d8 	ldrd	r2, [sp, #24]
     f84:	eb0012c9 	bl	5ab0 <__aeabi_dmul>
     f88:	e1a04000 	mov	r4, r0
     f8c:	e1a05001 	mov	r5, r1
     f90:	e59d0064 	ldr	r0, [sp, #100]	; 0x64
     f94:	eb001298 	bl	59fc <__aeabi_f2d>
     f98:	e1a02000 	mov	r2, r0
     f9c:	e1a03001 	mov	r3, r1
     fa0:	e1a00004 	mov	r0, r4
     fa4:	e1a01005 	mov	r1, r5
     fa8:	eb001364 	bl	5d40 <__aeabi_ddiv>
     fac:	e1cd00f0 	strd	r0, [sp]
     fb0:	e59d0054 	ldr	r0, [sp, #84]	; 0x54
     fb4:	e59d1060 	ldr	r1, [sp, #96]	; 0x60
     fb8:	eb00151e 	bl	6438 <__aeabi_fmul>
     fbc:	e59d1058 	ldr	r1, [sp, #88]	; 0x58
     fc0:	eb00151c 	bl	6438 <__aeabi_fmul>
     fc4:	eb00128c 	bl	59fc <__aeabi_f2d>
     fc8:	e1a04000 	mov	r4, r0
     fcc:	e1a05001 	mov	r5, r1
     fd0:	e3a00000 	mov	r0, #0
     fd4:	e3a01000 	mov	r1, #0
     fd8:	e3431ff0 	movt	r1, #16368	; 0x3ff0
     fdc:	e1cd22d0 	ldrd	r2, [sp, #32]
     fe0:	eb0011ad 	bl	569c <__aeabi_dsub>
     fe4:	e1a02000 	mov	r2, r0
     fe8:	e1a03001 	mov	r3, r1
     fec:	e1a00004 	mov	r0, r4
     ff0:	e1a01005 	mov	r1, r5
     ff4:	eb0012ad 	bl	5ab0 <__aeabi_dmul>
     ff8:	e1cd21d0 	ldrd	r2, [sp, #16]
     ffc:	eb0012ab 	bl	5ab0 <__aeabi_dmul>
    1000:	e1a02000 	mov	r2, r0
    1004:	e1a03001 	mov	r3, r1
    1008:	e1cd00d0 	ldrd	r0, [sp]
    100c:	eb0011a3 	bl	56a0 <__adddf3>
    1010:	eb001435 	bl	60ec <__aeabi_d2f>
    1014:	e7870108 	str	r0, [r7, r8, lsl #2]
        Vc[size-1] = Vs[size-1] * (1 - exp( -(t-t_not) / (res * cap) ) );
    1018:	e79a0108 	ldr	r0, [r10, r8, lsl #2]
    101c:	eb001276 	bl	59fc <__aeabi_f2d>
    1020:	e1a04000 	mov	r4, r0
    1024:	e1a05001 	mov	r5, r1
    1028:	e1cd00d8 	ldrd	r0, [sp, #8]
    102c:	eb0002c9 	bl	1b58 <exp>
    1030:	e1a02000 	mov	r2, r0
    1034:	e1a03001 	mov	r3, r1
    1038:	e3a00000 	mov	r0, #0
    103c:	e3a01000 	mov	r1, #0
    1040:	e3431ff0 	movt	r1, #16368	; 0x3ff0
    1044:	eb001194 	bl	569c <__aeabi_dsub>
    1048:	e1a02000 	mov	r2, r0
    104c:	e1a03001 	mov	r3, r1
    1050:	e1a00004 	mov	r0, r4
    1054:	e1a01005 	mov	r1, r5
    1058:	eb001294 	bl	5ab0 <__aeabi_dmul>
    105c:	eb001422 	bl	60ec <__aeabi_d2f>
    1060:	e7860108 	str	r0, [r6, r8, lsl #2]
        *v_stored = Vc[size-1];
    1064:	e59d2050 	ldr	r2, [sp, #80]	; 0x50
    1068:	e5820000 	str	r0, [r2]
    106c:	ea00001b 	b	10e0 <compute+0x354>
    }

    else if (!sw1 && sw2){
    1070:	e11b0002 	tst	r11, r2
    1074:	0a000019 	beq	10e0 <compute+0x354>
        Vc[size-1] = *(v_stored) *  exp( -(t-t_not) / (res * cap) );
    1078:	e59d3050 	ldr	r3, [sp, #80]	; 0x50
    107c:	e5930000 	ldr	r0, [r3]
    1080:	eb00125d 	bl	59fc <__aeabi_f2d>
    1084:	e1a04000 	mov	r4, r0
    1088:	e1a05001 	mov	r5, r1
    108c:	e59d2008 	ldr	r2, [sp, #8]
    1090:	e282a102 	add	r10, r2, #-2147483648	; 0x80000000
    1094:	e59d0064 	ldr	r0, [sp, #100]	; 0x64
    1098:	e59d1060 	ldr	r1, [sp, #96]	; 0x60
    109c:	eb0014e5 	bl	6438 <__aeabi_fmul>
    10a0:	e1a01000 	mov	r1, r0
    10a4:	e1a0000a 	mov	r0, r10
    10a8:	eb001548 	bl	65d0 <__aeabi_fdiv>
    10ac:	eb001252 	bl	59fc <__aeabi_f2d>
    10b0:	eb0002a8 	bl	1b58 <exp>
    10b4:	e1a02000 	mov	r2, r0
    10b8:	e1a03001 	mov	r3, r1
    10bc:	e1a00004 	mov	r0, r4
    10c0:	e1a01005 	mov	r1, r5
    10c4:	eb001279 	bl	5ab0 <__aeabi_dmul>
    10c8:	eb001407 	bl	60ec <__aeabi_d2f>
    10cc:	e7860108 	str	r0, [r6, r8, lsl #2]
        Ic[size-1] = - Vc[size-1] / res;
    10d0:	e2800102 	add	r0, r0, #-2147483648	; 0x80000000
    10d4:	e59d1064 	ldr	r1, [sp, #100]	; 0x64
    10d8:	eb00153c 	bl	65d0 <__aeabi_fdiv>
    10dc:	e7870108 	str	r0, [r7, r8, lsl #2]
    }
}
    10e0:	e28dd02c 	add	sp, sp, #44	; 0x2c
    10e4:	e8bd8ff0 	pop	{r4, r5, r6, r7, r8, r9, r10, r11, pc}

000010e8 <main>:
void draw_circuit(int x, int y, short int colour, bool sw1, bool sw2);
void write_char(int x, int y, char c);
void write_string(int x, int y, int size, char string[size]);
void clear_chars();

int main(void){
    10e8:	e92d4ff0 	push	{r4, r5, r6, r7, r8, r9, r10, r11, lr}
    10ec:	e28db020 	add	r11, sp, #32
    10f0:	e24dd044 	sub	sp, sp, #68	; 0x44
    // declare other variables
    // short int draw_colour = BLUE;
    volatile int * pixel_ctrl_ptr = (int *)PIXEL_BUFF_REG;

    /* set front pixel buffer to start of FPGA On-chip memory */
    *(pixel_ctrl_ptr + 1) = ON_CHIP_MEM; // first store the address in the back buffer
    10f4:	e3034fff 	movw	r4, #16383	; 0x3fff
    10f8:	e34f4f20 	movt	r4, #65312	; 0xff20
    10fc:	e3a03332 	mov	r3, #-939524096	; 0xc8000000
    1100:	e5043fdb 	str	r3, [r4, #-4059]	; 0xfffff025

    /* now, swap the front/back buffers, to set the front buffer location */
    // wait_for_vsync();
    wait_for_vsync();
    1104:	ebfffee1 	bl	c90 <wait_for_vsync>

    /* initialize a pointer to the pixel buffer, used by drawing functions */
    pixel_buffer_start = *pixel_ctrl_ptr;
    1108:	e5143fdf 	ldr	r3, [r4, #-4063]	; 0xfffff021
    110c:	e30753fc 	movw	r5, #29692	; 0x73fc
    1110:	e3405000 	movt	r5, #0
    1114:	e5853000 	str	r3, [r5]
    clear_screen(); // pixel_buffer_start points to the pixel buffer
    1118:	ebfffec1 	bl	c24 <clear_screen>
    clear_chars();
    111c:	ebfffc64 	bl	2b4 <clear_chars>

    /* set back pixel buffer to start of SDRAM memory */
    *(pixel_ctrl_ptr + 1) = SDRAM_MEM;
    1120:	e3a03103 	mov	r3, #-1073741824	; 0xc0000000
    1124:	e5043fdb 	str	r3, [r4, #-4059]	; 0xfffff025
    pixel_buffer_start = *(pixel_ctrl_ptr + 1); // we draw on the back buffer
    1128:	e5143fdb 	ldr	r3, [r4, #-4059]	; 0xfffff025
    112c:	e5853000 	str	r3, [r5]

    int size = 70;
    int debug_switches = 0;

    //Graph data
    float Vs[size];// = {0};
    1130:	e24dde12 	sub	sp, sp, #288	; 0x120
    1134:	e28d8028 	add	r8, sp, #40	; 0x28
    float Ic[size];// = {0};
    1138:	e24dde12 	sub	sp, sp, #288	; 0x120
    113c:	e28d1028 	add	r1, sp, #40	; 0x28
    1140:	e50b103c 	str	r1, [r11, #-60]	; 0xffffffc4
    float Vc[size];// = {0};
    1144:	e24dde12 	sub	sp, sp, #288	; 0x120
    1148:	e28da028 	add	r10, sp, #40	; 0x28
    114c:	e3a03000 	mov	r3, #0

    for(int i = 0; i<size; i++){
        Vs[i] = 0;
    1150:	e3a02000 	mov	r2, #0
    1154:	e7882003 	str	r2, [r8, r3]
        Vc[i] = 0;
    1158:	e78a2003 	str	r2, [r10, r3]
        Ic[i] = 0;
    115c:	e51b103c 	ldr	r1, [r11, #-60]	; 0xffffffc4
    1160:	e7812003 	str	r2, [r1, r3]
    1164:	e2833004 	add	r3, r3, #4
    //Graph data
    float Vs[size];// = {0};
    float Ic[size];// = {0};
    float Vc[size];// = {0};

    for(int i = 0; i<size; i++){
    1168:	e3530f46 	cmp	r3, #280	; 0x118
    116c:	1afffff8 	bne	1154 <main+0x6c>
        Vs[i] = 0;
        Vc[i] = 0;
        Ic[i] = 0;
    }

    float v_stored = 0.0;
    1170:	e3a03000 	mov	r3, #0
    1174:	e50b3028 	str	r3, [r11, #-40]	; 0xffffffd8

    int lit = 0;

    while (true){
        //  clear screen
        clear_screen();
    1178:	ebfffea9 	bl	c24 <clear_screen>
        // for (int y = 0; y < 54; y++) {
        //     for (int x = 0; x < 320; x++) {
        //         plot_pixel(x, y, circuit[y][x]);
        //     }
        // }
        clear_chars();
    117c:	ebfffc4c 	bl	2b4 <clear_chars>

        draw_circuit(40, 100, WHITE, sw1, sw2);
    1180:	e3a05000 	mov	r5, #0
    1184:	e58d5000 	str	r5, [sp]
    1188:	e3a00028 	mov	r0, #40	; 0x28
    118c:	e3a01064 	mov	r1, #100	; 0x64
    1190:	e3e02000 	mvn	r2, #0
    1194:	e3a03001 	mov	r3, #1
    1198:	ebfffe13 	bl	9ec <draw_circuit>
    /* set back pixel buffer to start of SDRAM memory */
    *(pixel_ctrl_ptr + 1) = SDRAM_MEM;
    pixel_buffer_start = *(pixel_ctrl_ptr + 1); // we draw on the back buffer

    int size = 70;
    int debug_switches = 0;
    119c:	e1a06005 	mov	r6, r5
void write_char(int x, int y, char c);
void write_string(int x, int y, int size, char string[size]);
void clear_chars();

int main(void){
    bool sw1 = true;
    11a0:	e3a04001 	mov	r4, #1
    float v_stored = 0.0;
    float test[30] = {Vs[69], Ic[69], Vc[69], v_stored, 3, 1, 2, 4, 8, 3, 1, 2, 4, 8, 3, 1, 2, 4, 8, 3, 1, 2, 4, 8, 3, 1, 1, 2, 1, 1};

    //time data
    int tc = 0;
    double t = 0.0;
    11a4:	e3a02000 	mov	r2, #0
    11a8:	e3a03000 	mov	r3, #0
    11ac:	e14b23f4 	strd	r2, [r11, #-52]	; 0xffffffcc
        // tab_over(select, tab_ready);
        // change_data(select, type_ready, circuit_data, temp_circuit_data);

        //  wait for sync
        wait_for_vsync(); // swap front and back buffers on VGA vertical sync
        pixel_buffer_start = *(pixel_ctrl_ptr + 1); // new back buffer
    11b0:	e30733fc 	movw	r3, #29692	; 0x73fc
    11b4:	e3403000 	movt	r3, #0
    11b8:	e50b3038 	str	r3, [r11, #-56]	; 0xffffffc8
        // lit++;

        //Calculate Ic and Vs
        if(tc == 1){

            compute(size,
    11bc:	e3a095fe 	mov	r9, #1065353216	; 0x3f800000
    11c0:	ea000001 	b	11cc <main+0xe4>
                    sw2);

            t = t + 1.0;

            //Debugging only
            for(int i=0; i<29; i++){
    11c4:	e2533001 	subs	r3, r3, #1
    11c8:	1afffffd 	bne	11c4 <main+0xdc>
            tc = 0;
        }

		if(debug_switches == 8){
            sw1=false;
            sw2=true;
    11cc:	e3560008 	cmp	r6, #8
    11d0:	03a05001 	moveq	r5, #1
    11d4:	e3560008 	cmp	r6, #8
    11d8:	03a04000 	moveq	r4, #0
        }

        //Draw graphs to the right of the circuit
        draw_graph(240, 60, sizeof(Vs)/sizeof(Vs[0]), Vs, WHITE);//some fucking difference between Vs and test here means the graph straight up doesn't plot vs plotting
    11dc:	e3e07000 	mvn	r7, #0
    11e0:	e58d7000 	str	r7, [sp]
    11e4:	e3a000f0 	mov	r0, #240	; 0xf0
    11e8:	e3a0103c 	mov	r1, #60	; 0x3c
    11ec:	e3a02046 	mov	r2, #70	; 0x46
    11f0:	e1a03008 	mov	r3, r8
    11f4:	ebfffd50 	bl	73c <draw_graph>
        draw_graph(240, 180, sizeof(Vc)/sizeof(Vc[0]), Vc, WHITE);//some fucking difference between Vs and test here means the graph straight up doesn't plot vs plotting
    11f8:	e58d7000 	str	r7, [sp]
    11fc:	e3a000f0 	mov	r0, #240	; 0xf0
    1200:	e3a010b4 	mov	r1, #180	; 0xb4
    1204:	e3a02046 	mov	r2, #70	; 0x46
    1208:	e1a0300a 	mov	r3, r10
    120c:	ebfffd4a 	bl	73c <draw_graph>
        // draw_graph(240, 180, sizeof(Ic)/sizeof(Ic[0]), Ic, WHITE);//some fucking difference between Vs and test here means the graph straight up doesn't plot vs plotting
        tc++;
        debug_switches++;
    1210:	e2866001 	add	r6, r6, #1

        // tab_over(select, tab_ready);
        // change_data(select, type_ready, circuit_data, temp_circuit_data);

        //  wait for sync
        wait_for_vsync(); // swap front and back buffers on VGA vertical sync
    1214:	ebfffe9d 	bl	c90 <wait_for_vsync>
        pixel_buffer_start = *(pixel_ctrl_ptr + 1); // new back buffer
    1218:	e3033fff 	movw	r3, #16383	; 0x3fff
    121c:	e34f3f20 	movt	r3, #65312	; 0xff20
    1220:	e5133fdb 	ldr	r3, [r3, #-4059]	; 0xfffff025
    1224:	e51b1038 	ldr	r1, [r11, #-56]	; 0xffffffc8
    1228:	e5813000 	str	r3, [r1]

    int lit = 0;

    while (true){
        //  clear screen
        clear_screen();
    122c:	ebfffe7c 	bl	c24 <clear_screen>
        // for (int y = 0; y < 54; y++) {
        //     for (int x = 0; x < 320; x++) {
        //         plot_pixel(x, y, circuit[y][x]);
        //     }
        // }
        clear_chars();
    1230:	ebfffc1f 	bl	2b4 <clear_chars>

        draw_circuit(40, 100, WHITE, sw1, sw2);
    1234:	e58d5000 	str	r5, [sp]
    1238:	e3a00028 	mov	r0, #40	; 0x28
    123c:	e3a01064 	mov	r1, #100	; 0x64
    1240:	e1a02007 	mov	r2, r7
    1244:	e1a03004 	mov	r3, r4
    1248:	ebfffde7 	bl	9ec <draw_circuit>
        // lit++;

        //Calculate Ic and Vs
        if(tc == 1){

            compute(size,
    124c:	e24b3028 	sub	r3, r11, #40	; 0x28
    1250:	e58d3000 	str	r3, [sp]
    1254:	e58d9004 	str	r9, [sp, #4]
    1258:	e58d9008 	str	r9, [sp, #8]
    125c:	e3a02000 	mov	r2, #0
    1260:	e58d200c 	str	r2, [sp, #12]
    1264:	e30337bd 	movw	r3, #14269	; 0x37bd
    1268:	e3433586 	movt	r3, #13702	; 0x3586
    126c:	e58d3010 	str	r3, [sp, #16]
    1270:	e3a01000 	mov	r1, #0
    1274:	e344147a 	movt	r1, #17530	; 0x447a
    1278:	e58d1014 	str	r1, [sp, #20]
    127c:	e14b03d4 	ldrd	r0, [r11, #-52]	; 0xffffffcc
    1280:	eb001399 	bl	60ec <__aeabi_d2f>
    1284:	e58d0018 	str	r0, [sp, #24]
    1288:	e3a02000 	mov	r2, #0
    128c:	e58d201c 	str	r2, [sp, #28]
    1290:	e58d4020 	str	r4, [sp, #32]
    1294:	e58d5024 	str	r5, [sp, #36]	; 0x24
    1298:	e3a00046 	mov	r0, #70	; 0x46
    129c:	e1a01008 	mov	r1, r8
    12a0:	e51b203c 	ldr	r2, [r11, #-60]	; 0xffffffc4
    12a4:	e1a0300a 	mov	r3, r10
    12a8:	ebfffeb7 	bl	d8c <compute>
                    t,
                    t_not,
                    sw1,
                    sw2);

            t = t + 1.0;
    12ac:	e14b03d4 	ldrd	r0, [r11, #-52]	; 0xffffffcc
    12b0:	e3a02000 	mov	r2, #0
    12b4:	e3a03000 	mov	r3, #0
    12b8:	e3433ff0 	movt	r3, #16368	; 0x3ff0
    12bc:	eb0010f7 	bl	56a0 <__adddf3>
    12c0:	e14b03f4 	strd	r0, [r11, #-52]	; 0xffffffcc
    12c4:	e3a0301d 	mov	r3, #29
    12c8:	eaffffbd 	b	11c4 <main+0xdc>

000012cc <get_jtag>:

int get_jtag( void ){
    //read from PS/2 address
    volatile int* PS2_ptr = (int*) 0xFF200100;
    //collect its data
    int PS2_data = *(PS2_ptr);
    12cc:	e3a03000 	mov	r3, #0
    12d0:	e34f3f20 	movt	r3, #65312	; 0xff20
    12d4:	e5930100 	ldr	r0, [r3, #256]	; 0x100
    //if RVALID is 1
    //send back the make code of the PS/2 data
    if (PS2_data & 0x00008000) return (PS2_data & 0xFF);
    12d8:	e3100902 	tst	r0, #32768	; 0x8000
    12dc:	16ef0070 	uxtbne	r0, r0
    //otherwise, send NULL
    else return ('\0');
    12e0:	03a00000 	moveq	r0, #0
}
    12e4:	e12fff1e 	bx	lr

000012e8 <change_data>:
    // }

}

void change_data( int *select, int *digit, bool *type_ready, float *circuit_data, float *temp_circuit_data)
{
    12e8:	e92d41f0 	push	{r4, r5, r6, r7, r8, lr}
    12ec:	e1a07000 	mov	r7, r0
    12f0:	e1a05001 	mov	r5, r1
    12f4:	e1a04002 	mov	r4, r2
    12f8:	e1a08003 	mov	r8, r3
    12fc:	e59d6018 	ldr	r6, [sp, #24]
    int data = get_jtag();
    1300:	ebfffff1 	bl	12cc <get_jtag>

    if (type_ready){
    1304:	e3540000 	cmp	r4, #0
    1308:	08bd81f0 	popeq	{r4, r5, r6, r7, r8, pc}
        if (data == 0x45 && (*digit) != 0) temp_circuit_data[*select] = pow(10, *digit) * temp_circuit_data[*select];
    130c:	e3500045 	cmp	r0, #69	; 0x45
    1310:	1a000016 	bne	1370 <change_data+0x88>
    1314:	e5950000 	ldr	r0, [r5]
    1318:	e3500000 	cmp	r0, #0
    131c:	08bd81f0 	popeq	{r4, r5, r6, r7, r8, pc}
    1320:	eb0011ab 	bl	59d4 <__aeabi_i2d>
    1324:	e1a02000 	mov	r2, r0
    1328:	e1a03001 	mov	r3, r1
    132c:	e3a00000 	mov	r0, #0
    1330:	e3a01000 	mov	r1, #0
    1334:	e3441024 	movt	r1, #16420	; 0x4024
    1338:	eb00026a 	bl	1ce8 <pow>
    133c:	e1a04000 	mov	r4, r0
    1340:	e1a05001 	mov	r5, r1
    1344:	e5977000 	ldr	r7, [r7]
    1348:	e7960107 	ldr	r0, [r6, r7, lsl #2]
    134c:	eb0011aa 	bl	59fc <__aeabi_f2d>
    1350:	e1a02000 	mov	r2, r0
    1354:	e1a03001 	mov	r3, r1
    1358:	e1a00004 	mov	r0, r4
    135c:	e1a01005 	mov	r1, r5
    1360:	eb0011d2 	bl	5ab0 <__aeabi_dmul>
    1364:	eb001360 	bl	60ec <__aeabi_d2f>
    1368:	e7860107 	str	r0, [r6, r7, lsl #2]
    136c:	e8bd81f0 	pop	{r4, r5, r6, r7, r8, pc}
        else if (data == 0x16) temp_circuit_data[*select] = pow(10, *digit) * temp_circuit_data[*select] + 1;
    1370:	e3500016 	cmp	r0, #22
    1374:	1a000018 	bne	13dc <change_data+0xf4>
    1378:	e5950000 	ldr	r0, [r5]
    137c:	eb001194 	bl	59d4 <__aeabi_i2d>
    1380:	e1a02000 	mov	r2, r0
    1384:	e1a03001 	mov	r3, r1
    1388:	e3a00000 	mov	r0, #0
    138c:	e3a01000 	mov	r1, #0
    1390:	e3441024 	movt	r1, #16420	; 0x4024
    1394:	eb000253 	bl	1ce8 <pow>
    1398:	e1a04000 	mov	r4, r0
    139c:	e1a05001 	mov	r5, r1
    13a0:	e5977000 	ldr	r7, [r7]
    13a4:	e7960107 	ldr	r0, [r6, r7, lsl #2]
    13a8:	eb001193 	bl	59fc <__aeabi_f2d>
    13ac:	e1a02000 	mov	r2, r0
    13b0:	e1a03001 	mov	r3, r1
    13b4:	e1a00004 	mov	r0, r4
    13b8:	e1a01005 	mov	r1, r5
    13bc:	eb0011bb 	bl	5ab0 <__aeabi_dmul>
    13c0:	e3a02000 	mov	r2, #0
    13c4:	e3a03000 	mov	r3, #0
    13c8:	e3433ff0 	movt	r3, #16368	; 0x3ff0
    13cc:	eb0010b3 	bl	56a0 <__adddf3>
    13d0:	eb001345 	bl	60ec <__aeabi_d2f>
    13d4:	e7860107 	str	r0, [r6, r7, lsl #2]
    13d8:	e8bd81f0 	pop	{r4, r5, r6, r7, r8, pc}
        else if (data == 0x1E) temp_circuit_data[*select] = pow(10, *digit) * temp_circuit_data[*select] + 2;
    13dc:	e350001e 	cmp	r0, #30
    13e0:	1a000017 	bne	1444 <change_data+0x15c>
    13e4:	e5950000 	ldr	r0, [r5]
    13e8:	eb001179 	bl	59d4 <__aeabi_i2d>
    13ec:	e1a02000 	mov	r2, r0
    13f0:	e1a03001 	mov	r3, r1
    13f4:	e3a00000 	mov	r0, #0
    13f8:	e3a01000 	mov	r1, #0
    13fc:	e3441024 	movt	r1, #16420	; 0x4024
    1400:	eb000238 	bl	1ce8 <pow>
    1404:	e1a04000 	mov	r4, r0
    1408:	e1a05001 	mov	r5, r1
    140c:	e5977000 	ldr	r7, [r7]
    1410:	e7960107 	ldr	r0, [r6, r7, lsl #2]
    1414:	eb001178 	bl	59fc <__aeabi_f2d>
    1418:	e1a02000 	mov	r2, r0
    141c:	e1a03001 	mov	r3, r1
    1420:	e1a00004 	mov	r0, r4
    1424:	e1a01005 	mov	r1, r5
    1428:	eb0011a0 	bl	5ab0 <__aeabi_dmul>
    142c:	e3a02000 	mov	r2, #0
    1430:	e3a03101 	mov	r3, #1073741824	; 0x40000000
    1434:	eb001099 	bl	56a0 <__adddf3>
    1438:	eb00132b 	bl	60ec <__aeabi_d2f>
    143c:	e7860107 	str	r0, [r6, r7, lsl #2]
    1440:	e8bd81f0 	pop	{r4, r5, r6, r7, r8, pc}
        else if (data == 0x26) temp_circuit_data[*select] = pow(10, *digit) * temp_circuit_data[*select] + 3;
    1444:	e3500026 	cmp	r0, #38	; 0x26
    1448:	1a000018 	bne	14b0 <change_data+0x1c8>
    144c:	e5950000 	ldr	r0, [r5]
    1450:	eb00115f 	bl	59d4 <__aeabi_i2d>
    1454:	e1a02000 	mov	r2, r0
    1458:	e1a03001 	mov	r3, r1
    145c:	e3a00000 	mov	r0, #0
    1460:	e3a01000 	mov	r1, #0
    1464:	e3441024 	movt	r1, #16420	; 0x4024
    1468:	eb00021e 	bl	1ce8 <pow>
    146c:	e1a04000 	mov	r4, r0
    1470:	e1a05001 	mov	r5, r1
    1474:	e5977000 	ldr	r7, [r7]
    1478:	e7960107 	ldr	r0, [r6, r7, lsl #2]
    147c:	eb00115e 	bl	59fc <__aeabi_f2d>
    1480:	e1a02000 	mov	r2, r0
    1484:	e1a03001 	mov	r3, r1
    1488:	e1a00004 	mov	r0, r4
    148c:	e1a01005 	mov	r1, r5
    1490:	eb001186 	bl	5ab0 <__aeabi_dmul>
    1494:	e3a02000 	mov	r2, #0
    1498:	e3a03000 	mov	r3, #0
    149c:	e3443008 	movt	r3, #16392	; 0x4008
    14a0:	eb00107e 	bl	56a0 <__adddf3>
    14a4:	eb001310 	bl	60ec <__aeabi_d2f>
    14a8:	e7860107 	str	r0, [r6, r7, lsl #2]
    14ac:	e8bd81f0 	pop	{r4, r5, r6, r7, r8, pc}
        else if (data == 0x25) temp_circuit_data[*select] = pow(10, *digit) * temp_circuit_data[*select] + 4;
    14b0:	e3500025 	cmp	r0, #37	; 0x25
    14b4:	1a000018 	bne	151c <change_data+0x234>
    14b8:	e5950000 	ldr	r0, [r5]
    14bc:	eb001144 	bl	59d4 <__aeabi_i2d>
    14c0:	e1a02000 	mov	r2, r0
    14c4:	e1a03001 	mov	r3, r1
    14c8:	e3a00000 	mov	r0, #0
    14cc:	e3a01000 	mov	r1, #0
    14d0:	e3441024 	movt	r1, #16420	; 0x4024
    14d4:	eb000203 	bl	1ce8 <pow>
    14d8:	e1a04000 	mov	r4, r0
    14dc:	e1a05001 	mov	r5, r1
    14e0:	e5977000 	ldr	r7, [r7]
    14e4:	e7960107 	ldr	r0, [r6, r7, lsl #2]
    14e8:	eb001143 	bl	59fc <__aeabi_f2d>
    14ec:	e1a02000 	mov	r2, r0
    14f0:	e1a03001 	mov	r3, r1
    14f4:	e1a00004 	mov	r0, r4
    14f8:	e1a01005 	mov	r1, r5
    14fc:	eb00116b 	bl	5ab0 <__aeabi_dmul>
    1500:	e3a02000 	mov	r2, #0
    1504:	e3a03000 	mov	r3, #0
    1508:	e3443010 	movt	r3, #16400	; 0x4010
    150c:	eb001063 	bl	56a0 <__adddf3>
    1510:	eb0012f5 	bl	60ec <__aeabi_d2f>
    1514:	e7860107 	str	r0, [r6, r7, lsl #2]
    1518:	e8bd81f0 	pop	{r4, r5, r6, r7, r8, pc}
        else if (data == 0x2E) temp_circuit_data[*select] = pow(10, *digit) * temp_circuit_data[*select] + 5;
    151c:	e350002e 	cmp	r0, #46	; 0x2e
    1520:	1a000018 	bne	1588 <change_data+0x2a0>
    1524:	e5950000 	ldr	r0, [r5]
    1528:	eb001129 	bl	59d4 <__aeabi_i2d>
    152c:	e1a02000 	mov	r2, r0
    1530:	e1a03001 	mov	r3, r1
    1534:	e3a00000 	mov	r0, #0
    1538:	e3a01000 	mov	r1, #0
    153c:	e3441024 	movt	r1, #16420	; 0x4024
    1540:	eb0001e8 	bl	1ce8 <pow>
    1544:	e1a04000 	mov	r4, r0
    1548:	e1a05001 	mov	r5, r1
    154c:	e5977000 	ldr	r7, [r7]
    1550:	e7960107 	ldr	r0, [r6, r7, lsl #2]
    1554:	eb001128 	bl	59fc <__aeabi_f2d>
    1558:	e1a02000 	mov	r2, r0
    155c:	e1a03001 	mov	r3, r1
    1560:	e1a00004 	mov	r0, r4
    1564:	e1a01005 	mov	r1, r5
    1568:	eb001150 	bl	5ab0 <__aeabi_dmul>
    156c:	e3a02000 	mov	r2, #0
    1570:	e3a03000 	mov	r3, #0
    1574:	e3443014 	movt	r3, #16404	; 0x4014
    1578:	eb001048 	bl	56a0 <__adddf3>
    157c:	eb0012da 	bl	60ec <__aeabi_d2f>
    1580:	e7860107 	str	r0, [r6, r7, lsl #2]
    1584:	e8bd81f0 	pop	{r4, r5, r6, r7, r8, pc}
        else if (data == 0x36) temp_circuit_data[*select] = pow(10, *digit) * temp_circuit_data[*select] + 6;
    1588:	e3500036 	cmp	r0, #54	; 0x36
    158c:	1a000018 	bne	15f4 <change_data+0x30c>
    1590:	e5950000 	ldr	r0, [r5]
    1594:	eb00110e 	bl	59d4 <__aeabi_i2d>
    1598:	e1a02000 	mov	r2, r0
    159c:	e1a03001 	mov	r3, r1
    15a0:	e3a00000 	mov	r0, #0
    15a4:	e3a01000 	mov	r1, #0
    15a8:	e3441024 	movt	r1, #16420	; 0x4024
    15ac:	eb0001cd 	bl	1ce8 <pow>
    15b0:	e1a04000 	mov	r4, r0
    15b4:	e1a05001 	mov	r5, r1
    15b8:	e5977000 	ldr	r7, [r7]
    15bc:	e7960107 	ldr	r0, [r6, r7, lsl #2]
    15c0:	eb00110d 	bl	59fc <__aeabi_f2d>
    15c4:	e1a02000 	mov	r2, r0
    15c8:	e1a03001 	mov	r3, r1
    15cc:	e1a00004 	mov	r0, r4
    15d0:	e1a01005 	mov	r1, r5
    15d4:	eb001135 	bl	5ab0 <__aeabi_dmul>
    15d8:	e3a02000 	mov	r2, #0
    15dc:	e3a03000 	mov	r3, #0
    15e0:	e3443018 	movt	r3, #16408	; 0x4018
    15e4:	eb00102d 	bl	56a0 <__adddf3>
    15e8:	eb0012bf 	bl	60ec <__aeabi_d2f>
    15ec:	e7860107 	str	r0, [r6, r7, lsl #2]
    15f0:	e8bd81f0 	pop	{r4, r5, r6, r7, r8, pc}
        else if (data == 0x3D) temp_circuit_data[*select] = pow(10, *digit) * temp_circuit_data[*select] + 7;
    15f4:	e350003d 	cmp	r0, #61	; 0x3d
    15f8:	1a000018 	bne	1660 <change_data+0x378>
    15fc:	e5950000 	ldr	r0, [r5]
    1600:	eb0010f3 	bl	59d4 <__aeabi_i2d>
    1604:	e1a02000 	mov	r2, r0
    1608:	e1a03001 	mov	r3, r1
    160c:	e3a00000 	mov	r0, #0
    1610:	e3a01000 	mov	r1, #0
    1614:	e3441024 	movt	r1, #16420	; 0x4024
    1618:	eb0001b2 	bl	1ce8 <pow>
    161c:	e1a04000 	mov	r4, r0
    1620:	e1a05001 	mov	r5, r1
    1624:	e5977000 	ldr	r7, [r7]
    1628:	e7960107 	ldr	r0, [r6, r7, lsl #2]
    162c:	eb0010f2 	bl	59fc <__aeabi_f2d>
    1630:	e1a02000 	mov	r2, r0
    1634:	e1a03001 	mov	r3, r1
    1638:	e1a00004 	mov	r0, r4
    163c:	e1a01005 	mov	r1, r5
    1640:	eb00111a 	bl	5ab0 <__aeabi_dmul>
    1644:	e3a02000 	mov	r2, #0
    1648:	e3a03000 	mov	r3, #0
    164c:	e344301c 	movt	r3, #16412	; 0x401c
    1650:	eb001012 	bl	56a0 <__adddf3>
    1654:	eb0012a4 	bl	60ec <__aeabi_d2f>
    1658:	e7860107 	str	r0, [r6, r7, lsl #2]
    165c:	e8bd81f0 	pop	{r4, r5, r6, r7, r8, pc}
        else if (data == 0x3E) temp_circuit_data[*select] = pow(10, *digit) * temp_circuit_data[*select] + 8;
    1660:	e350003e 	cmp	r0, #62	; 0x3e
    1664:	1a000018 	bne	16cc <change_data+0x3e4>
    1668:	e5950000 	ldr	r0, [r5]
    166c:	eb0010d8 	bl	59d4 <__aeabi_i2d>
    1670:	e1a02000 	mov	r2, r0
    1674:	e1a03001 	mov	r3, r1
    1678:	e3a00000 	mov	r0, #0
    167c:	e3a01000 	mov	r1, #0
    1680:	e3441024 	movt	r1, #16420	; 0x4024
    1684:	eb000197 	bl	1ce8 <pow>
    1688:	e1a04000 	mov	r4, r0
    168c:	e1a05001 	mov	r5, r1
    1690:	e5977000 	ldr	r7, [r7]
    1694:	e7960107 	ldr	r0, [r6, r7, lsl #2]
    1698:	eb0010d7 	bl	59fc <__aeabi_f2d>
    169c:	e1a02000 	mov	r2, r0
    16a0:	e1a03001 	mov	r3, r1
    16a4:	e1a00004 	mov	r0, r4
    16a8:	e1a01005 	mov	r1, r5
    16ac:	eb0010ff 	bl	5ab0 <__aeabi_dmul>
    16b0:	e3a02000 	mov	r2, #0
    16b4:	e3a03000 	mov	r3, #0
    16b8:	e3443020 	movt	r3, #16416	; 0x4020
    16bc:	eb000ff7 	bl	56a0 <__adddf3>
    16c0:	eb001289 	bl	60ec <__aeabi_d2f>
    16c4:	e7860107 	str	r0, [r6, r7, lsl #2]
    16c8:	e8bd81f0 	pop	{r4, r5, r6, r7, r8, pc}
        else if (data == 0x46) temp_circuit_data[*select] = pow(10, *digit) * temp_circuit_data[*select] + 9;
    16cc:	e3500046 	cmp	r0, #70	; 0x46
    16d0:	1a000018 	bne	1738 <change_data+0x450>
    16d4:	e5950000 	ldr	r0, [r5]
    16d8:	eb0010bd 	bl	59d4 <__aeabi_i2d>
    16dc:	e1a02000 	mov	r2, r0
    16e0:	e1a03001 	mov	r3, r1
    16e4:	e3a00000 	mov	r0, #0
    16e8:	e3a01000 	mov	r1, #0
    16ec:	e3441024 	movt	r1, #16420	; 0x4024
    16f0:	eb00017c 	bl	1ce8 <pow>
    16f4:	e1a04000 	mov	r4, r0
    16f8:	e1a05001 	mov	r5, r1
    16fc:	e5977000 	ldr	r7, [r7]
    1700:	e7960107 	ldr	r0, [r6, r7, lsl #2]
    1704:	eb0010bc 	bl	59fc <__aeabi_f2d>
    1708:	e1a02000 	mov	r2, r0
    170c:	e1a03001 	mov	r3, r1
    1710:	e1a00004 	mov	r0, r4
    1714:	e1a01005 	mov	r1, r5
    1718:	eb0010e4 	bl	5ab0 <__aeabi_dmul>
    171c:	e3a02000 	mov	r2, #0
    1720:	e3a03000 	mov	r3, #0
    1724:	e3443022 	movt	r3, #16418	; 0x4022
    1728:	eb000fdc 	bl	56a0 <__adddf3>
    172c:	eb00126e 	bl	60ec <__aeabi_d2f>
    1730:	e7860107 	str	r0, [r6, r7, lsl #2]
    1734:	e8bd81f0 	pop	{r4, r5, r6, r7, r8, pc}

        else if (data == 0x66 && (*digit) != 0){
    1738:	e3500066 	cmp	r0, #102	; 0x66
    173c:	1a000018 	bne	17a4 <change_data+0x4bc>
    1740:	e5958000 	ldr	r8, [r5]
    1744:	e3580000 	cmp	r8, #0
    1748:	08bd81f0 	popeq	{r4, r5, r6, r7, r8, pc}
            temp_circuit_data[*select] = round(temp_circuit_data[*select]/pow(10, (*digit)));
    174c:	e5977000 	ldr	r7, [r7]
    1750:	e7960107 	ldr	r0, [r6, r7, lsl #2]
    1754:	eb0010a8 	bl	59fc <__aeabi_f2d>
    1758:	e1a04000 	mov	r4, r0
    175c:	e1a05001 	mov	r5, r1
    1760:	e1a00008 	mov	r0, r8
    1764:	eb00109a 	bl	59d4 <__aeabi_i2d>
    1768:	e1a02000 	mov	r2, r0
    176c:	e1a03001 	mov	r3, r1
    1770:	e3a00000 	mov	r0, #0
    1774:	e3a01000 	mov	r1, #0
    1778:	e3441024 	movt	r1, #16420	; 0x4024
    177c:	eb000159 	bl	1ce8 <pow>
    1780:	e1a02000 	mov	r2, r0
    1784:	e1a03001 	mov	r3, r1
    1788:	e1a00004 	mov	r0, r4
    178c:	e1a01005 	mov	r1, r5
    1790:	eb00116a 	bl	5d40 <__aeabi_ddiv>
    1794:	eb000073 	bl	1968 <round>
    1798:	eb001253 	bl	60ec <__aeabi_d2f>
    179c:	e7860107 	str	r0, [r6, r7, lsl #2]
            *digit--;
    17a0:	e8bd81f0 	pop	{r4, r5, r6, r7, r8, pc}
        }

        else if (data == 0x5A){
    17a4:	e350005a 	cmp	r0, #90	; 0x5a
    17a8:	18bd81f0 	popne	{r4, r5, r6, r7, r8, pc}
            memcpy(circuit_data, temp_circuit_data, 6);
    17ac:	e5963000 	ldr	r3, [r6]
    17b0:	e5883000 	str	r3, [r8]
    17b4:	e1d630b4 	ldrh	r3, [r6, #4]
    17b8:	e1c830b4 	strh	r3, [r8, #4]
            *digit=0;
    17bc:	e3a03000 	mov	r3, #0
    17c0:	e5853000 	str	r3, [r5]
    17c4:	e8bd81f0 	pop	{r4, r5, r6, r7, r8, pc}

000017c8 <tab_over>:
    //     *sw2_ready = true;
    // }
}

void tab_over( int *select, int *digit, bool *tab_ready, float *circuit_data, float *temp_circuit_data)
{
    17c8:	e92d4070 	push	{r4, r5, r6, lr}
    17cc:	e1a05000 	mov	r5, r0
    17d0:	e1a06002 	mov	r6, r2
    17d4:	e1a04003 	mov	r4, r3
    int data = get_jtag();
    17d8:	ebfffebb 	bl	12cc <get_jtag>

    if (data == 0x0D && (*tab_ready)){
    17dc:	e350000d 	cmp	r0, #13
    17e0:	18bd8070 	popne	{r4, r5, r6, pc}
    17e4:	e5d63000 	ldrb	r3, [r6]
    17e8:	e3530000 	cmp	r3, #0
    17ec:	08bd8070 	popeq	{r4, r5, r6, pc}
        (*select)++;
    17f0:	e5953000 	ldr	r3, [r5]
    17f4:	e2833001 	add	r3, r3, #1
        if ((*select)>4) (*select) = 0;
    17f8:	e3530004 	cmp	r3, #4
    17fc:	c3a03000 	movgt	r3, #0
    1800:	e5853000 	str	r3, [r5]
        // *tab_ready = false;
        memcpy(temp_circuit_data, circuit_data, 6);
    1804:	e5943000 	ldr	r3, [r4]
    1808:	e59d2010 	ldr	r2, [sp, #16]
    180c:	e5823000 	str	r3, [r2]
    1810:	e1d430b4 	ldrh	r3, [r4, #4]
    1814:	e1c230b4 	strh	r3, [r2, #4]
    1818:	e8bd8070 	pop	{r4, r5, r6, pc}

0000181c <set_switches>:
        }
    }
}

void set_switches( bool *sw1, bool *sw2, bool *sw1_ready, bool *sw2_ready )
{
    181c:	e92d40f8 	push	{r3, r4, r5, r6, r7, lr}
    1820:	e1a06000 	mov	r6, r0
    1824:	e1a04001 	mov	r4, r1
    1828:	e1a07002 	mov	r7, r2
    182c:	e1a05003 	mov	r5, r3
    int data = get_jtag();
    1830:	ebfffea5 	bl	12cc <get_jtag>

    if (data == 0x1A && (*sw1_ready)){
    1834:	e350001a 	cmp	r0, #26
    1838:	1a000005 	bne	1854 <set_switches+0x38>
    183c:	e5d73000 	ldrb	r3, [r7]
    1840:	e3530000 	cmp	r3, #0
        *sw1 = !(*sw1);
    1844:	15d63000 	ldrbne	r3, [r6]
    1848:	12233001 	eorne	r3, r3, #1
    184c:	15c63000 	strbne	r3, [r6]
    1850:	e8bd80f8 	pop	{r3, r4, r5, r6, r7, pc}

    // else if (data == 0xF01A && !(*sw1_ready)){
    //     *sw1_ready = true;
    // }

    if (data == 0x22 && (*sw2_ready)){
    1854:	e3500022 	cmp	r0, #34	; 0x22
    1858:	18bd80f8 	popne	{r3, r4, r5, r6, r7, pc}
    185c:	e5d53000 	ldrb	r3, [r5]
    1860:	e3530000 	cmp	r3, #0
        *sw2 = !(*sw2);
    1864:	15d43000 	ldrbne	r3, [r4]
    1868:	12233001 	eorne	r3, r3, #1
    186c:	15c43000 	strbne	r3, [r4]
    1870:	e8bd80f8 	pop	{r3, r4, r5, r6, r7, pc}

00001874 <cos>:
    1874:	e92d4030 	push	{r4, r5, lr}
    1878:	e59fe0e0 	ldr	lr, [pc, #224]	; 1960 <cos+0xec>
    187c:	e3c1c102 	bic	r12, r1, #-2147483648	; 0x80000000
    1880:	e15c000e 	cmp	r12, lr
    1884:	e24dd01c 	sub	sp, sp, #28
    1888:	e1a02000 	mov	r2, r0
    188c:	e1a03001 	mov	r3, r1
    1890:	e1a04000 	mov	r4, r0
    1894:	e1a05001 	mov	r5, r1
    1898:	da000015 	ble	18f4 <cos+0x80>
    189c:	e59fe0c0 	ldr	lr, [pc, #192]	; 1964 <cos+0xf0>
    18a0:	e15c000e 	cmp	r12, lr
    18a4:	da000003 	ble	18b8 <cos+0x44>
    18a8:	eb000f7b 	bl	569c <__aeabi_dsub>
    18ac:	e28dd01c 	add	sp, sp, #28
    18b0:	e8bd4030 	pop	{r4, r5, lr}
    18b4:	e12fff1e 	bx	lr
    18b8:	e28d2008 	add	r2, sp, #8
    18bc:	eb000757 	bl	3620 <__ieee754_rem_pio2>
    18c0:	e2000003 	and	r0, r0, #3
    18c4:	e3500001 	cmp	r0, #1
    18c8:	0a000014 	beq	1920 <cos+0xac>
    18cc:	e3500002 	cmp	r0, #2
    18d0:	0a00000b 	beq	1904 <cos+0x90>
    18d4:	e3500000 	cmp	r0, #0
    18d8:	1a000018 	bne	1940 <cos+0xcc>
    18dc:	e28d1008 	add	r1, sp, #8
    18e0:	e8910003 	ldm	r1, {r0, r1}
    18e4:	e28d3010 	add	r3, sp, #16
    18e8:	e893000c 	ldm	r3, {r2, r3}
    18ec:	eb000971 	bl	3eb8 <__kernel_cos>
    18f0:	eaffffed 	b	18ac <cos+0x38>
    18f4:	e3a02000 	mov	r2, #0
    18f8:	e3a03000 	mov	r3, #0
    18fc:	eb00096d 	bl	3eb8 <__kernel_cos>
    1900:	eaffffe9 	b	18ac <cos+0x38>
    1904:	e28d1008 	add	r1, sp, #8
    1908:	e8910003 	ldm	r1, {r0, r1}
    190c:	e28d3010 	add	r3, sp, #16
    1910:	e893000c 	ldm	r3, {r2, r3}
    1914:	eb000967 	bl	3eb8 <__kernel_cos>
    1918:	e2811102 	add	r1, r1, #-2147483648	; 0x80000000
    191c:	eaffffe2 	b	18ac <cos+0x38>
    1920:	e58d0000 	str	r0, [sp]
    1924:	e28d3010 	add	r3, sp, #16
    1928:	e893000c 	ldm	r3, {r2, r3}
    192c:	e28d1008 	add	r1, sp, #8
    1930:	e8910003 	ldm	r1, {r0, r1}
    1934:	eb000d17 	bl	4d98 <__kernel_sin>
    1938:	e2811102 	add	r1, r1, #-2147483648	; 0x80000000
    193c:	eaffffda 	b	18ac <cos+0x38>
    1940:	e3a03001 	mov	r3, #1
    1944:	e58d3000 	str	r3, [sp]
    1948:	e28d1008 	add	r1, sp, #8
    194c:	e8910003 	ldm	r1, {r0, r1}
    1950:	e28d3010 	add	r3, sp, #16
    1954:	e893000c 	ldm	r3, {r2, r3}
    1958:	eb000d0e 	bl	4d98 <__kernel_sin>
    195c:	eaffffd2 	b	18ac <cos+0x38>
    1960:	3fe921fb 	.word	0x3fe921fb
    1964:	7fefffff 	.word	0x7fefffff

00001968 <round>:
    1968:	e59fc0e0 	ldr	r12, [pc, #224]	; 1a50 <round+0xe8>
    196c:	e001c00c 	and	r12, r1, r12
    1970:	e1a0ca4c 	asr	r12, r12, #20
    1974:	e92d4070 	push	{r4, r5, r6, lr}
    1978:	e24c5fff 	sub	r5, r12, #1020	; 0x3fc
    197c:	e2455003 	sub	r5, r5, #3
    1980:	e3550013 	cmp	r5, #19
    1984:	e1a02000 	mov	r2, r0
    1988:	e1a03001 	mov	r3, r1
    198c:	e1a04000 	mov	r4, r0
    1990:	e1a06001 	mov	r6, r1
    1994:	ca000010 	bgt	19dc <round+0x74>
    1998:	e3550000 	cmp	r5, #0
    199c:	ba000024 	blt	1a34 <round+0xcc>
    19a0:	e59f00ac 	ldr	r0, [pc, #172]	; 1a54 <round+0xec>
    19a4:	e1a00550 	asr	r0, r0, r5
    19a8:	e0001001 	and	r1, r0, r1
    19ac:	e1911002 	orrs	r1, r1, r2
    19b0:	0a000005 	beq	19cc <round+0x64>
    19b4:	e3a03702 	mov	r3, #524288	; 0x80000
    19b8:	e0866553 	add	r6, r6, r3, asr r5
    19bc:	e3a01000 	mov	r1, #0
    19c0:	e1c66000 	bic	r6, r6, r0
    19c4:	e1a03006 	mov	r3, r6
    19c8:	e1a02001 	mov	r2, r1
    19cc:	e1a00002 	mov	r0, r2
    19d0:	e1a01003 	mov	r1, r3
    19d4:	e8bd4070 	pop	{r4, r5, r6, lr}
    19d8:	e12fff1e 	bx	lr
    19dc:	e3550033 	cmp	r5, #51	; 0x33
    19e0:	da000005 	ble	19fc <round+0x94>
    19e4:	e3550b01 	cmp	r5, #1024	; 0x400
    19e8:	1afffff7 	bne	19cc <round+0x64>
    19ec:	eb000f2b 	bl	56a0 <__adddf3>
    19f0:	e1a02000 	mov	r2, r0
    19f4:	e1a03001 	mov	r3, r1
    19f8:	eafffff3 	b	19cc <round+0x64>
    19fc:	e24c0e41 	sub	r0, r12, #1040	; 0x410
    1a00:	e2400003 	sub	r0, r0, #3
    1a04:	e3e01000 	mvn	r1, #0
    1a08:	e1a00031 	lsr	r0, r1, r0
    1a0c:	e1100002 	tst	r0, r2
    1a10:	0affffed 	beq	19cc <round+0x64>
    1a14:	e26cce43 	rsb	r12, r12, #1072	; 0x430
    1a18:	e28cc002 	add	r12, r12, #2
    1a1c:	e3a01001 	mov	r1, #1
    1a20:	e0821c11 	add	r1, r2, r1, lsl r12
    1a24:	e1520001 	cmp	r2, r1
    1a28:	82836001 	addhi	r6, r3, #1
    1a2c:	e1c11000 	bic	r1, r1, r0
    1a30:	eaffffe3 	b	19c4 <round+0x5c>
    1a34:	e3750001 	cmn	r5, #1
    1a38:	e2016102 	and	r6, r1, #-2147483648	; 0x80000000
    1a3c:	038665ff 	orreq	r6, r6, #1069547520	; 0x3fc00000
    1a40:	03866603 	orreq	r6, r6, #3145728	; 0x300000
    1a44:	03a01000 	moveq	r1, #0
    1a48:	13a01000 	movne	r1, #0
    1a4c:	eaffffdc 	b	19c4 <round+0x5c>
    1a50:	7ff00000 	.word	0x7ff00000
    1a54:	000fffff 	.word	0x000fffff

00001a58 <sin>:
    1a58:	e92d4030 	push	{r4, r5, lr}
    1a5c:	e59fe0ec 	ldr	lr, [pc, #236]	; 1b50 <sin+0xf8>
    1a60:	e3c1c102 	bic	r12, r1, #-2147483648	; 0x80000000
    1a64:	e15c000e 	cmp	r12, lr
    1a68:	e24dd01c 	sub	sp, sp, #28
    1a6c:	e1a02000 	mov	r2, r0
    1a70:	e1a03001 	mov	r3, r1
    1a74:	e1a04000 	mov	r4, r0
    1a78:	e1a05001 	mov	r5, r1
    1a7c:	da000017 	ble	1ae0 <sin+0x88>
    1a80:	e59fe0cc 	ldr	lr, [pc, #204]	; 1b54 <sin+0xfc>
    1a84:	e15c000e 	cmp	r12, lr
    1a88:	da000003 	ble	1a9c <sin+0x44>
    1a8c:	eb000f02 	bl	569c <__aeabi_dsub>
    1a90:	e28dd01c 	add	sp, sp, #28
    1a94:	e8bd4030 	pop	{r4, r5, lr}
    1a98:	e12fff1e 	bx	lr
    1a9c:	e28d2008 	add	r2, sp, #8
    1aa0:	eb0006de 	bl	3620 <__ieee754_rem_pio2>
    1aa4:	e2000003 	and	r0, r0, #3
    1aa8:	e3500001 	cmp	r0, #1
    1aac:	0a00001a 	beq	1b1c <sin+0xc4>
    1ab0:	e3500002 	cmp	r0, #2
    1ab4:	0a00000f 	beq	1af8 <sin+0xa0>
    1ab8:	e3500000 	cmp	r0, #0
    1abc:	1a00001c 	bne	1b34 <sin+0xdc>
    1ac0:	e3a03001 	mov	r3, #1
    1ac4:	e58d3000 	str	r3, [sp]
    1ac8:	e28d1008 	add	r1, sp, #8
    1acc:	e8910003 	ldm	r1, {r0, r1}
    1ad0:	e28d3010 	add	r3, sp, #16
    1ad4:	e893000c 	ldm	r3, {r2, r3}
    1ad8:	eb000cae 	bl	4d98 <__kernel_sin>
    1adc:	eaffffeb 	b	1a90 <sin+0x38>
    1ae0:	e3a03000 	mov	r3, #0
    1ae4:	e58d3000 	str	r3, [sp]
    1ae8:	e3a02000 	mov	r2, #0
    1aec:	e3a03000 	mov	r3, #0
    1af0:	eb000ca8 	bl	4d98 <__kernel_sin>
    1af4:	eaffffe5 	b	1a90 <sin+0x38>
    1af8:	e3a03001 	mov	r3, #1
    1afc:	e58d3000 	str	r3, [sp]
    1b00:	e28d1008 	add	r1, sp, #8
    1b04:	e8910003 	ldm	r1, {r0, r1}
    1b08:	e28d3010 	add	r3, sp, #16
    1b0c:	e893000c 	ldm	r3, {r2, r3}
    1b10:	eb000ca0 	bl	4d98 <__kernel_sin>
    1b14:	e2811102 	add	r1, r1, #-2147483648	; 0x80000000
    1b18:	eaffffdc 	b	1a90 <sin+0x38>
    1b1c:	e28d1008 	add	r1, sp, #8
    1b20:	e8910003 	ldm	r1, {r0, r1}
    1b24:	e28d3010 	add	r3, sp, #16
    1b28:	e893000c 	ldm	r3, {r2, r3}
    1b2c:	eb0008e1 	bl	3eb8 <__kernel_cos>
    1b30:	eaffffd6 	b	1a90 <sin+0x38>
    1b34:	e28d1008 	add	r1, sp, #8
    1b38:	e8910003 	ldm	r1, {r0, r1}
    1b3c:	e28d3010 	add	r3, sp, #16
    1b40:	e893000c 	ldm	r3, {r2, r3}
    1b44:	eb0008db 	bl	3eb8 <__kernel_cos>
    1b48:	e2811102 	add	r1, r1, #-2147483648	; 0x80000000
    1b4c:	eaffffcf 	b	1a90 <sin+0x38>
    1b50:	3fe921fb 	.word	0x3fe921fb
    1b54:	7fefffff 	.word	0x7fefffff

00001b58 <exp>:
    1b58:	e92d41f0 	push	{r4, r5, r6, r7, r8, lr}
    1b5c:	e24dd028 	sub	sp, sp, #40	; 0x28
    1b60:	e1a04000 	mov	r4, r0
    1b64:	e1a05001 	mov	r5, r1
    1b68:	eb00019e 	bl	21e8 <__ieee754_exp>
    1b6c:	e59f8164 	ldr	r8, [pc, #356]	; 1cd8 <exp+0x180>
    1b70:	e1d830d0 	ldrsb	r3, [r8]
    1b74:	e3730001 	cmn	r3, #1
    1b78:	e1a06000 	mov	r6, r0
    1b7c:	e1a07001 	mov	r7, r1
    1b80:	0a00002f 	beq	1c44 <exp+0xec>
    1b84:	e1a00004 	mov	r0, r4
    1b88:	e1a01005 	mov	r1, r5
    1b8c:	eb000d0b 	bl	4fc0 <finite>
    1b90:	e3500000 	cmp	r0, #0
    1b94:	0a00002a 	beq	1c44 <exp+0xec>
    1b98:	e1a00004 	mov	r0, r4
    1b9c:	e1a01005 	mov	r1, r5
    1ba0:	e28f3e12 	add	r3, pc, #288	; 0x120
    1ba4:	e893000c 	ldm	r3, {r2, r3}
    1ba8:	eb001132 	bl	6078 <__aeabi_dcmpgt>
    1bac:	e3500000 	cmp	r0, #0
    1bb0:	1a000028 	bne	1c58 <exp+0x100>
    1bb4:	e1a00004 	mov	r0, r4
    1bb8:	e1a01005 	mov	r1, r5
    1bbc:	e28f3f43 	add	r3, pc, #268	; 0x10c
    1bc0:	e893000c 	ldm	r3, {r2, r3}
    1bc4:	eb001119 	bl	6030 <__aeabi_dcmplt>
    1bc8:	e3500000 	cmp	r0, #0
    1bcc:	0a00001c 	beq	1c44 <exp+0xec>
    1bd0:	e1d830d0 	ldrsb	r3, [r8]
    1bd4:	e3530002 	cmp	r3, #2
    1bd8:	e3a03004 	mov	r3, #4
    1bdc:	e58d3000 	str	r3, [sp]
    1be0:	e59f30f4 	ldr	r3, [pc, #244]	; 1cdc <exp+0x184>
    1be4:	e58d3004 	str	r3, [sp, #4]
    1be8:	e3a03000 	mov	r3, #0
    1bec:	e58d3020 	str	r3, [sp, #32]
    1bf0:	e3a02000 	mov	r2, #0
    1bf4:	e3a03000 	mov	r3, #0
    1bf8:	e58d4010 	str	r4, [sp, #16]
    1bfc:	e58d5014 	str	r5, [sp, #20]
    1c00:	e58d4008 	str	r4, [sp, #8]
    1c04:	e58d500c 	str	r5, [sp, #12]
    1c08:	e58d2018 	str	r2, [sp, #24]
    1c0c:	e58d301c 	str	r3, [sp, #28]
    1c10:	0a000027 	beq	1cb4 <exp+0x15c>
    1c14:	e1a0000d 	mov	r0, sp
    1c18:	eb000d6d 	bl	51d4 <matherr>
    1c1c:	e3500000 	cmp	r0, #0
    1c20:	0a000023 	beq	1cb4 <exp+0x15c>
    1c24:	e59d3020 	ldr	r3, [sp, #32]
    1c28:	e3530000 	cmp	r3, #0
    1c2c:	0a000002 	beq	1c3c <exp+0xe4>
    1c30:	eb001322 	bl	68c0 <__errno>
    1c34:	e59d3020 	ldr	r3, [sp, #32]
    1c38:	e5803000 	str	r3, [r0]
    1c3c:	e28d7018 	add	r7, sp, #24
    1c40:	e89700c0 	ldm	r7, {r6, r7}
    1c44:	e1a00006 	mov	r0, r6
    1c48:	e1a01007 	mov	r1, r7
    1c4c:	e28dd028 	add	sp, sp, #40	; 0x28
    1c50:	e8bd41f0 	pop	{r4, r5, r6, r7, r8, lr}
    1c54:	e12fff1e 	bx	lr
    1c58:	e3a02003 	mov	r2, #3
    1c5c:	e5d83000 	ldrb	r3, [r8]
    1c60:	e58d2000 	str	r2, [sp]
    1c64:	e59f2070 	ldr	r2, [pc, #112]	; 1cdc <exp+0x184>
    1c68:	e3530000 	cmp	r3, #0
    1c6c:	e58d2004 	str	r2, [sp, #4]
    1c70:	e3a02000 	mov	r2, #0
    1c74:	e58d2020 	str	r2, [sp, #32]
    1c78:	e58d4010 	str	r4, [sp, #16]
    1c7c:	e58d5014 	str	r5, [sp, #20]
    1c80:	e58d4008 	str	r4, [sp, #8]
    1c84:	e58d500c 	str	r5, [sp, #12]
    1c88:	059f3050 	ldreq	r3, [pc, #80]	; 1ce0 <exp+0x188>
    1c8c:	03a0220e 	moveq	r2, #-536870912	; 0xe0000000
    1c90:	058d2018 	streq	r2, [sp, #24]
    1c94:	058d301c 	streq	r3, [sp, #28]
    1c98:	0affffdd 	beq	1c14 <exp+0xbc>
    1c9c:	e3530002 	cmp	r3, #2
    1ca0:	e59f303c 	ldr	r3, [pc, #60]	; 1ce4 <exp+0x18c>
    1ca4:	e3a02000 	mov	r2, #0
    1ca8:	e58d2018 	str	r2, [sp, #24]
    1cac:	e58d301c 	str	r3, [sp, #28]
    1cb0:	1affffd7 	bne	1c14 <exp+0xbc>
    1cb4:	eb001301 	bl	68c0 <__errno>
    1cb8:	e3a03022 	mov	r3, #34	; 0x22
    1cbc:	e5803000 	str	r3, [r0]
    1cc0:	eaffffd7 	b	1c24 <exp+0xcc>
    1cc4:	e1a00000 	nop			; (mov r0, r0)
    1cc8:	fefa39ef 	.word	0xfefa39ef
    1ccc:	40862e42 	.word	0x40862e42
    1cd0:	d52d3051 	.word	0xd52d3051
    1cd4:	c0874910 	.word	0xc0874910
    1cd8:	00006fa0 	.word	0x00006fa0
    1cdc:	00006ce8 	.word	0x00006ce8
    1ce0:	47efffff 	.word	0x47efffff
    1ce4:	7ff00000 	.word	0x7ff00000

00001ce8 <pow>:
    1ce8:	e92d4ff0 	push	{r4, r5, r6, r7, r8, r9, r10, r11, lr}
    1cec:	e24dd02c 	sub	sp, sp, #44	; 0x2c
    1cf0:	e1a07003 	mov	r7, r3
    1cf4:	e1a08000 	mov	r8, r0
    1cf8:	e1a09001 	mov	r9, r1
    1cfc:	e1a06002 	mov	r6, r2
    1d00:	eb000246 	bl	2620 <__ieee754_pow>
    1d04:	e59fb4bc 	ldr	r11, [pc, #1212]	; 21c8 <pow+0x4e0>
    1d08:	e1db30d0 	ldrsb	r3, [r11]
    1d0c:	e3730001 	cmn	r3, #1
    1d10:	e1a04000 	mov	r4, r0
    1d14:	e1a05001 	mov	r5, r1
    1d18:	0a000004 	beq	1d30 <pow+0x48>
    1d1c:	e1a00006 	mov	r0, r6
    1d20:	e1a01007 	mov	r1, r7
    1d24:	eb000d0f 	bl	5168 <__fpclassifyd>
    1d28:	e3500000 	cmp	r0, #0
    1d2c:	1a000004 	bne	1d44 <pow+0x5c>
    1d30:	e1a00004 	mov	r0, r4
    1d34:	e1a01005 	mov	r1, r5
    1d38:	e28dd02c 	add	sp, sp, #44	; 0x2c
    1d3c:	e8bd4ff0 	pop	{r4, r5, r6, r7, r8, r9, r10, r11, lr}
    1d40:	e12fff1e 	bx	lr
    1d44:	e1a00008 	mov	r0, r8
    1d48:	e1a01009 	mov	r1, r9
    1d4c:	eb000d05 	bl	5168 <__fpclassifyd>
    1d50:	e250a000 	subs	r10, r0, #0
    1d54:	1a00001a 	bne	1dc4 <pow+0xdc>
    1d58:	e1a00006 	mov	r0, r6
    1d5c:	e1a01007 	mov	r1, r7
    1d60:	e3a02000 	mov	r2, #0
    1d64:	e3a03000 	mov	r3, #0
    1d68:	eb0010aa 	bl	6018 <__aeabi_dcmpeq>
    1d6c:	e3500000 	cmp	r0, #0
    1d70:	0affffee 	beq	1d30 <pow+0x48>
    1d74:	e1db30d0 	ldrsb	r3, [r11]
    1d78:	e3730001 	cmn	r3, #1
    1d7c:	13530002 	cmpne	r3, #2
    1d80:	e3a03001 	mov	r3, #1
    1d84:	e58d3000 	str	r3, [sp]
    1d88:	e59f343c 	ldr	r3, [pc, #1084]	; 21cc <pow+0x4e4>
    1d8c:	e58d3004 	str	r3, [sp, #4]
    1d90:	e59f3438 	ldr	r3, [pc, #1080]	; 21d0 <pow+0x4e8>
    1d94:	e3a02000 	mov	r2, #0
    1d98:	e58da020 	str	r10, [sp, #32]
    1d9c:	e58d8008 	str	r8, [sp, #8]
    1da0:	e58d900c 	str	r9, [sp, #12]
    1da4:	e58d6010 	str	r6, [sp, #16]
    1da8:	e58d7014 	str	r7, [sp, #20]
    1dac:	e58d2018 	str	r2, [sp, #24]
    1db0:	e58d301c 	str	r3, [sp, #28]
    1db4:	1a000025 	bne	1e50 <pow+0x168>
    1db8:	e28d5018 	add	r5, sp, #24
    1dbc:	e8950030 	ldm	r5, {r4, r5}
    1dc0:	eaffffda 	b	1d30 <pow+0x48>
    1dc4:	e1a00008 	mov	r0, r8
    1dc8:	e1a01009 	mov	r1, r9
    1dcc:	e3a02000 	mov	r2, #0
    1dd0:	e3a03000 	mov	r3, #0
    1dd4:	eb00108f 	bl	6018 <__aeabi_dcmpeq>
    1dd8:	e3500000 	cmp	r0, #0
    1ddc:	0a000026 	beq	1e7c <pow+0x194>
    1de0:	e1a00006 	mov	r0, r6
    1de4:	e1a01007 	mov	r1, r7
    1de8:	e3a02000 	mov	r2, #0
    1dec:	e3a03000 	mov	r3, #0
    1df0:	eb001088 	bl	6018 <__aeabi_dcmpeq>
    1df4:	e3500000 	cmp	r0, #0
    1df8:	0a00004e 	beq	1f38 <pow+0x250>
    1dfc:	e1db30d0 	ldrsb	r3, [r11]
    1e00:	e3530000 	cmp	r3, #0
    1e04:	e3a03001 	mov	r3, #1
    1e08:	e58d3000 	str	r3, [sp]
    1e0c:	e59f33b8 	ldr	r3, [pc, #952]	; 21cc <pow+0x4e4>
    1e10:	e58d3004 	str	r3, [sp, #4]
    1e14:	e3a03000 	mov	r3, #0
    1e18:	e58d3020 	str	r3, [sp, #32]
    1e1c:	e3a04000 	mov	r4, #0
    1e20:	e3a03000 	mov	r3, #0
    1e24:	e58d8008 	str	r8, [sp, #8]
    1e28:	e58d900c 	str	r9, [sp, #12]
    1e2c:	e58d6010 	str	r6, [sp, #16]
    1e30:	e58d7014 	str	r7, [sp, #20]
    1e34:	e58d3018 	str	r3, [sp, #24]
    1e38:	e58d401c 	str	r4, [sp, #28]
    1e3c:	159f338c 	ldrne	r3, [pc, #908]	; 21d0 <pow+0x4e8>
    1e40:	13a02000 	movne	r2, #0
    1e44:	158d2018 	strne	r2, [sp, #24]
    1e48:	158d301c 	strne	r3, [sp, #28]
    1e4c:	1affffd9 	bne	1db8 <pow+0xd0>
    1e50:	e1a0000d 	mov	r0, sp
    1e54:	eb000cde 	bl	51d4 <matherr>
    1e58:	e3500000 	cmp	r0, #0
    1e5c:	0a000058 	beq	1fc4 <pow+0x2dc>
    1e60:	e59d3020 	ldr	r3, [sp, #32]
    1e64:	e3530000 	cmp	r3, #0
    1e68:	0affffd2 	beq	1db8 <pow+0xd0>
    1e6c:	eb001293 	bl	68c0 <__errno>
    1e70:	e59d3020 	ldr	r3, [sp, #32]
    1e74:	e5803000 	str	r3, [r0]
    1e78:	eaffffce 	b	1db8 <pow+0xd0>
    1e7c:	e1a00004 	mov	r0, r4
    1e80:	e1a01005 	mov	r1, r5
    1e84:	eb000c4d 	bl	4fc0 <finite>
    1e88:	e250a000 	subs	r10, r0, #0
    1e8c:	0a000050 	beq	1fd4 <pow+0x2ec>
    1e90:	e1a00004 	mov	r0, r4
    1e94:	e1a01005 	mov	r1, r5
    1e98:	e3a02000 	mov	r2, #0
    1e9c:	e3a03000 	mov	r3, #0
    1ea0:	eb00105c 	bl	6018 <__aeabi_dcmpeq>
    1ea4:	e3500000 	cmp	r0, #0
    1ea8:	0affffa0 	beq	1d30 <pow+0x48>
    1eac:	e1a00008 	mov	r0, r8
    1eb0:	e1a01009 	mov	r1, r9
    1eb4:	eb000c41 	bl	4fc0 <finite>
    1eb8:	e3500000 	cmp	r0, #0
    1ebc:	0affff9b 	beq	1d30 <pow+0x48>
    1ec0:	e1a00006 	mov	r0, r6
    1ec4:	e1a01007 	mov	r1, r7
    1ec8:	eb000c3c 	bl	4fc0 <finite>
    1ecc:	e3500000 	cmp	r0, #0
    1ed0:	0affff96 	beq	1d30 <pow+0x48>
    1ed4:	e1db30d0 	ldrsb	r3, [r11]
    1ed8:	e3530002 	cmp	r3, #2
    1edc:	e3a03004 	mov	r3, #4
    1ee0:	e58d3000 	str	r3, [sp]
    1ee4:	e59f32e0 	ldr	r3, [pc, #736]	; 21cc <pow+0x4e4>
    1ee8:	e58d3004 	str	r3, [sp, #4]
    1eec:	e3a03000 	mov	r3, #0
    1ef0:	e58d3020 	str	r3, [sp, #32]
    1ef4:	e3a04000 	mov	r4, #0
    1ef8:	e3a03000 	mov	r3, #0
    1efc:	e58d8008 	str	r8, [sp, #8]
    1f00:	e58d900c 	str	r9, [sp, #12]
    1f04:	e58d6010 	str	r6, [sp, #16]
    1f08:	e58d7014 	str	r7, [sp, #20]
    1f0c:	e58d3018 	str	r3, [sp, #24]
    1f10:	e58d401c 	str	r4, [sp, #28]
    1f14:	0a00005c 	beq	208c <pow+0x3a4>
    1f18:	e1a0000d 	mov	r0, sp
    1f1c:	eb000cac 	bl	51d4 <matherr>
    1f20:	e3500000 	cmp	r0, #0
    1f24:	0a000058 	beq	208c <pow+0x3a4>
    1f28:	e59d3020 	ldr	r3, [sp, #32]
    1f2c:	e3530000 	cmp	r3, #0
    1f30:	0affffa0 	beq	1db8 <pow+0xd0>
    1f34:	eaffffcc 	b	1e6c <pow+0x184>
    1f38:	e1a00006 	mov	r0, r6
    1f3c:	e1a01007 	mov	r1, r7
    1f40:	eb000c1e 	bl	4fc0 <finite>
    1f44:	e3500000 	cmp	r0, #0
    1f48:	0affff78 	beq	1d30 <pow+0x48>
    1f4c:	e1a00006 	mov	r0, r6
    1f50:	e1a01007 	mov	r1, r7
    1f54:	e3a02000 	mov	r2, #0
    1f58:	e3a03000 	mov	r3, #0
    1f5c:	eb001033 	bl	6030 <__aeabi_dcmplt>
    1f60:	e3500000 	cmp	r0, #0
    1f64:	0affff71 	beq	1d30 <pow+0x48>
    1f68:	e3a02001 	mov	r2, #1
    1f6c:	e5db3000 	ldrb	r3, [r11]
    1f70:	e58d2000 	str	r2, [sp]
    1f74:	e59f2250 	ldr	r2, [pc, #592]	; 21cc <pow+0x4e4>
    1f78:	e3530000 	cmp	r3, #0
    1f7c:	e58d2004 	str	r2, [sp, #4]
    1f80:	e3a02000 	mov	r2, #0
    1f84:	e58d2020 	str	r2, [sp, #32]
    1f88:	e58d8008 	str	r8, [sp, #8]
    1f8c:	e58d900c 	str	r9, [sp, #12]
    1f90:	e58d6010 	str	r6, [sp, #16]
    1f94:	e58d7014 	str	r7, [sp, #20]
    1f98:	0a000036 	beq	2078 <pow+0x390>
    1f9c:	e3530002 	cmp	r3, #2
    1fa0:	e59f322c 	ldr	r3, [pc, #556]	; 21d4 <pow+0x4ec>
    1fa4:	e3a02000 	mov	r2, #0
    1fa8:	e58d2018 	str	r2, [sp, #24]
    1fac:	e58d301c 	str	r3, [sp, #28]
    1fb0:	1a00002b 	bne	2064 <pow+0x37c>
    1fb4:	eb001241 	bl	68c0 <__errno>
    1fb8:	e3a03021 	mov	r3, #33	; 0x21
    1fbc:	e5803000 	str	r3, [r0]
    1fc0:	eaffffd8 	b	1f28 <pow+0x240>
    1fc4:	eb00123d 	bl	68c0 <__errno>
    1fc8:	e3a03021 	mov	r3, #33	; 0x21
    1fcc:	e5803000 	str	r3, [r0]
    1fd0:	eaffffa2 	b	1e60 <pow+0x178>
    1fd4:	e1a00008 	mov	r0, r8
    1fd8:	e1a01009 	mov	r1, r9
    1fdc:	eb000bf7 	bl	4fc0 <finite>
    1fe0:	e3500000 	cmp	r0, #0
    1fe4:	0affffa9 	beq	1e90 <pow+0x1a8>
    1fe8:	e1a00006 	mov	r0, r6
    1fec:	e1a01007 	mov	r1, r7
    1ff0:	eb000bf2 	bl	4fc0 <finite>
    1ff4:	e3500000 	cmp	r0, #0
    1ff8:	0affffa4 	beq	1e90 <pow+0x1a8>
    1ffc:	e1a00004 	mov	r0, r4
    2000:	e1a01005 	mov	r1, r5
    2004:	eb000c57 	bl	5168 <__fpclassifyd>
    2008:	e3500000 	cmp	r0, #0
    200c:	1a000022 	bne	209c <pow+0x3b4>
    2010:	e3a03001 	mov	r3, #1
    2014:	e5db4000 	ldrb	r4, [r11]
    2018:	e58d3000 	str	r3, [sp]
    201c:	e59f31a8 	ldr	r3, [pc, #424]	; 21cc <pow+0x4e4>
    2020:	e3540000 	cmp	r4, #0
    2024:	e58d3004 	str	r3, [sp, #4]
    2028:	e58d0020 	str	r0, [sp, #32]
    202c:	e58d8008 	str	r8, [sp, #8]
    2030:	e58d900c 	str	r9, [sp, #12]
    2034:	e58d6010 	str	r6, [sp, #16]
    2038:	e58d7014 	str	r7, [sp, #20]
    203c:	0a00000d 	beq	2078 <pow+0x390>
    2040:	e3a00000 	mov	r0, #0
    2044:	e3a01000 	mov	r1, #0
    2048:	e1a02000 	mov	r2, r0
    204c:	e1a03001 	mov	r3, r1
    2050:	eb000f3a 	bl	5d40 <__aeabi_ddiv>
    2054:	e3540002 	cmp	r4, #2
    2058:	e58d0018 	str	r0, [sp, #24]
    205c:	e58d101c 	str	r1, [sp, #28]
    2060:	0affffd3 	beq	1fb4 <pow+0x2cc>
    2064:	e1a0000d 	mov	r0, sp
    2068:	eb000c59 	bl	51d4 <matherr>
    206c:	e3500000 	cmp	r0, #0
    2070:	1affffac 	bne	1f28 <pow+0x240>
    2074:	eaffffce 	b	1fb4 <pow+0x2cc>
    2078:	e3a03000 	mov	r3, #0
    207c:	e3a04000 	mov	r4, #0
    2080:	e58d3018 	str	r3, [sp, #24]
    2084:	e58d401c 	str	r4, [sp, #28]
    2088:	eafffff5 	b	2064 <pow+0x37c>
    208c:	eb00120b 	bl	68c0 <__errno>
    2090:	e3a03022 	mov	r3, #34	; 0x22
    2094:	e5803000 	str	r3, [r0]
    2098:	eaffffa2 	b	1f28 <pow+0x240>
    209c:	e1db20d0 	ldrsb	r2, [r11]
    20a0:	e3520000 	cmp	r2, #0
    20a4:	e3a02003 	mov	r2, #3
    20a8:	e58d2000 	str	r2, [sp]
    20ac:	e59f2118 	ldr	r2, [pc, #280]	; 21cc <pow+0x4e4>
    20b0:	e1a00008 	mov	r0, r8
    20b4:	e58d2004 	str	r2, [sp, #4]
    20b8:	e1a01009 	mov	r1, r9
    20bc:	e58da020 	str	r10, [sp, #32]
    20c0:	e58d8008 	str	r8, [sp, #8]
    20c4:	e58d900c 	str	r9, [sp, #12]
    20c8:	e58d6010 	str	r6, [sp, #16]
    20cc:	e58d7014 	str	r7, [sp, #20]
    20d0:	e3a02000 	mov	r2, #0
    20d4:	e3a03000 	mov	r3, #0
    20d8:	1a000011 	bne	2124 <pow+0x43c>
    20dc:	e59f50f4 	ldr	r5, [pc, #244]	; 21d8 <pow+0x4f0>
    20e0:	e3a0420e 	mov	r4, #-536870912	; 0xe0000000
    20e4:	e58d4018 	str	r4, [sp, #24]
    20e8:	e58d501c 	str	r5, [sp, #28]
    20ec:	eb000fcf 	bl	6030 <__aeabi_dcmplt>
    20f0:	e3500000 	cmp	r0, #0
    20f4:	1a000022 	bne	2184 <pow+0x49c>
    20f8:	e1db30d0 	ldrsb	r3, [r11]
    20fc:	e3530002 	cmp	r3, #2
    2100:	0a000003 	beq	2114 <pow+0x42c>
    2104:	e1a0000d 	mov	r0, sp
    2108:	eb000c31 	bl	51d4 <matherr>
    210c:	e3500000 	cmp	r0, #0
    2110:	1affff52 	bne	1e60 <pow+0x178>
    2114:	eb0011e9 	bl	68c0 <__errno>
    2118:	e3a03022 	mov	r3, #34	; 0x22
    211c:	e5803000 	str	r3, [r0]
    2120:	eaffff4e 	b	1e60 <pow+0x178>
    2124:	e59f50b0 	ldr	r5, [pc, #176]	; 21dc <pow+0x4f4>
    2128:	e3a04000 	mov	r4, #0
    212c:	e58d4018 	str	r4, [sp, #24]
    2130:	e58d501c 	str	r5, [sp, #28]
    2134:	eb000fbd 	bl	6030 <__aeabi_dcmplt>
    2138:	e3500000 	cmp	r0, #0
    213c:	0affffed 	beq	20f8 <pow+0x410>
    2140:	e3a02000 	mov	r2, #0
    2144:	e59f3094 	ldr	r3, [pc, #148]	; 21e0 <pow+0x4f8>
    2148:	e1a00006 	mov	r0, r6
    214c:	e1a01007 	mov	r1, r7
    2150:	eb000e56 	bl	5ab0 <__aeabi_dmul>
    2154:	e1a04000 	mov	r4, r0
    2158:	e1a05001 	mov	r5, r1
    215c:	eb000c22 	bl	51ec <rint>
    2160:	e1a02004 	mov	r2, r4
    2164:	e1a03005 	mov	r3, r5
    2168:	eb000faa 	bl	6018 <__aeabi_dcmpeq>
    216c:	e3500000 	cmp	r0, #0
    2170:	059f305c 	ldreq	r3, [pc, #92]	; 21d4 <pow+0x4ec>
    2174:	03a02000 	moveq	r2, #0
    2178:	058d2018 	streq	r2, [sp, #24]
    217c:	058d301c 	streq	r3, [sp, #28]
    2180:	eaffffdc 	b	20f8 <pow+0x410>
    2184:	e3a02000 	mov	r2, #0
    2188:	e59f3050 	ldr	r3, [pc, #80]	; 21e0 <pow+0x4f8>
    218c:	e1a00006 	mov	r0, r6
    2190:	e1a01007 	mov	r1, r7
    2194:	eb000e45 	bl	5ab0 <__aeabi_dmul>
    2198:	e1a04000 	mov	r4, r0
    219c:	e1a05001 	mov	r5, r1
    21a0:	eb000c11 	bl	51ec <rint>
    21a4:	e1a02004 	mov	r2, r4
    21a8:	e1a03005 	mov	r3, r5
    21ac:	eb000f99 	bl	6018 <__aeabi_dcmpeq>
    21b0:	e3500000 	cmp	r0, #0
    21b4:	059f3028 	ldreq	r3, [pc, #40]	; 21e4 <pow+0x4fc>
    21b8:	03a0220e 	moveq	r2, #-536870912	; 0xe0000000
    21bc:	058d2018 	streq	r2, [sp, #24]
    21c0:	058d301c 	streq	r3, [sp, #28]
    21c4:	eaffffcb 	b	20f8 <pow+0x410>
    21c8:	00006fa0 	.word	0x00006fa0
    21cc:	00006cec 	.word	0x00006cec
    21d0:	3ff00000 	.word	0x3ff00000
    21d4:	fff00000 	.word	0xfff00000
    21d8:	47efffff 	.word	0x47efffff
    21dc:	7ff00000 	.word	0x7ff00000
    21e0:	3fe00000 	.word	0x3fe00000
    21e4:	c7efffff 	.word	0xc7efffff

000021e8 <__ieee754_exp>:
    21e8:	e92d4ff0 	push	{r4, r5, r6, r7, r8, r9, r10, r11, lr}
    21ec:	e59fc40c 	ldr	r12, [pc, #1036]	; 2600 <__ieee754_exp+0x418>
    21f0:	e3c13102 	bic	r3, r1, #-2147483648	; 0x80000000
    21f4:	e153000c 	cmp	r3, r12
    21f8:	e24dd00c 	sub	sp, sp, #12
    21fc:	e1a04000 	mov	r4, r0
    2200:	e1a05001 	mov	r5, r1
    2204:	e1a06fa1 	lsr	r6, r1, #31
    2208:	9a00000d 	bls	2244 <__ieee754_exp+0x5c>
    220c:	e59fc3f0 	ldr	r12, [pc, #1008]	; 2604 <__ieee754_exp+0x41c>
    2210:	e153000c 	cmp	r3, r12
    2214:	9a000020 	bls	229c <__ieee754_exp+0xb4>
    2218:	e3c1c4ff 	bic	r12, r1, #-16777216	; 0xff000000
    221c:	e3cc360f 	bic	r3, r12, #15728640	; 0xf00000
    2220:	e1933000 	orrs	r3, r3, r0
    2224:	1a0000b2 	bne	24f4 <__ieee754_exp+0x30c>
    2228:	e3560000 	cmp	r6, #0
    222c:	1a0000da 	bne	259c <__ieee754_exp+0x3b4>
    2230:	e1a00004 	mov	r0, r4
    2234:	e1a01005 	mov	r1, r5
    2238:	e28dd00c 	add	sp, sp, #12
    223c:	e8bd4ff0 	pop	{r4, r5, r6, r7, r8, r9, r10, r11, lr}
    2240:	e12fff1e 	bx	lr
    2244:	e59f23bc 	ldr	r2, [pc, #956]	; 2608 <__ieee754_exp+0x420>
    2248:	e1530002 	cmp	r3, r2
    224c:	8a000098 	bhi	24b4 <__ieee754_exp+0x2cc>
    2250:	e59f23b4 	ldr	r2, [pc, #948]	; 260c <__ieee754_exp+0x424>
    2254:	e1530002 	cmp	r3, r2
    2258:	8a0000a3 	bhi	24ec <__ieee754_exp+0x304>
    225c:	e28f3fd1 	add	r3, pc, #836	; 0x344
    2260:	e893000c 	ldm	r3, {r2, r3}
    2264:	eb000d0d 	bl	56a0 <__adddf3>
    2268:	e3a02000 	mov	r2, #0
    226c:	e59f339c 	ldr	r3, [pc, #924]	; 2610 <__ieee754_exp+0x428>
    2270:	eb000f80 	bl	6078 <__aeabi_dcmpgt>
    2274:	e3500000 	cmp	r0, #0
    2278:	0a000038 	beq	2360 <__ieee754_exp+0x178>
    227c:	e1a00004 	mov	r0, r4
    2280:	e1a01005 	mov	r1, r5
    2284:	e3a02000 	mov	r2, #0
    2288:	e59f3380 	ldr	r3, [pc, #896]	; 2610 <__ieee754_exp+0x428>
    228c:	eb000d03 	bl	56a0 <__adddf3>
    2290:	e1a04000 	mov	r4, r0
    2294:	e1a05001 	mov	r5, r1
    2298:	eaffffe4 	b	2230 <__ieee754_exp+0x48>
    229c:	e28f3fc3 	add	r3, pc, #780	; 0x30c
    22a0:	e893000c 	ldm	r3, {r2, r3}
    22a4:	eb000f73 	bl	6078 <__aeabi_dcmpgt>
    22a8:	e3500000 	cmp	r0, #0
    22ac:	1a000096 	bne	250c <__ieee754_exp+0x324>
    22b0:	e1a00004 	mov	r0, r4
    22b4:	e1a01005 	mov	r1, r5
    22b8:	e28f3fbe 	add	r3, pc, #760	; 0x2f8
    22bc:	e893000c 	ldm	r3, {r2, r3}
    22c0:	eb000f5a 	bl	6030 <__aeabi_dcmplt>
    22c4:	e3500000 	cmp	r0, #0
    22c8:	1a0000b3 	bne	259c <__ieee754_exp+0x3b4>
    22cc:	e28f3fbb 	add	r3, pc, #748	; 0x2ec
    22d0:	e893000c 	ldm	r3, {r2, r3}
    22d4:	e1a00004 	mov	r0, r4
    22d8:	e1a01005 	mov	r1, r5
    22dc:	eb000df3 	bl	5ab0 <__aeabi_dmul>
    22e0:	e59f332c 	ldr	r3, [pc, #812]	; 2614 <__ieee754_exp+0x42c>
    22e4:	e0836186 	add	r6, r3, r6, lsl #3
    22e8:	e2863020 	add	r3, r6, #32
    22ec:	e893000c 	ldm	r3, {r2, r3}
    22f0:	eb000cea 	bl	56a0 <__adddf3>
    22f4:	eb000f65 	bl	6090 <__aeabi_d2iz>
    22f8:	e1a08000 	mov	r8, r0
    22fc:	eb000db4 	bl	59d4 <__aeabi_i2d>
    2300:	e28f3d0b 	add	r3, pc, #704	; 0x2c0
    2304:	e893000c 	ldm	r3, {r2, r3}
    2308:	e1a06000 	mov	r6, r0
    230c:	e1a07001 	mov	r7, r1
    2310:	eb000de6 	bl	5ab0 <__aeabi_dmul>
    2314:	e1a02000 	mov	r2, r0
    2318:	e1a03001 	mov	r3, r1
    231c:	e1a00004 	mov	r0, r4
    2320:	e1a01005 	mov	r1, r5
    2324:	eb000cdc 	bl	569c <__aeabi_dsub>
    2328:	e28f3e2a 	add	r3, pc, #672	; 0x2a0
    232c:	e893000c 	ldm	r3, {r2, r3}
    2330:	e88d0003 	stm	sp, {r0, r1}
    2334:	e1a00006 	mov	r0, r6
    2338:	e1a01007 	mov	r1, r7
    233c:	eb000ddb 	bl	5ab0 <__aeabi_dmul>
    2340:	e1a0a000 	mov	r10, r0
    2344:	e1a0b001 	mov	r11, r1
    2348:	e89d0003 	ldm	sp, {r0, r1}
    234c:	e1a0200a 	mov	r2, r10
    2350:	e1a0300b 	mov	r3, r11
    2354:	eb000cd0 	bl	569c <__aeabi_dsub>
    2358:	e1a04000 	mov	r4, r0
    235c:	e1a05001 	mov	r5, r1
    2360:	e1a02004 	mov	r2, r4
    2364:	e1a03005 	mov	r3, r5
    2368:	e1a00004 	mov	r0, r4
    236c:	e1a01005 	mov	r1, r5
    2370:	eb000dce 	bl	5ab0 <__aeabi_dmul>
    2374:	e28f3f97 	add	r3, pc, #604	; 0x25c
    2378:	e893000c 	ldm	r3, {r2, r3}
    237c:	e1a06000 	mov	r6, r0
    2380:	e1a07001 	mov	r7, r1
    2384:	eb000dc9 	bl	5ab0 <__aeabi_dmul>
    2388:	e28f3e25 	add	r3, pc, #592	; 0x250
    238c:	e893000c 	ldm	r3, {r2, r3}
    2390:	eb000cc1 	bl	569c <__aeabi_dsub>
    2394:	e1a02006 	mov	r2, r6
    2398:	e1a03007 	mov	r3, r7
    239c:	eb000dc3 	bl	5ab0 <__aeabi_dmul>
    23a0:	e28f3d09 	add	r3, pc, #576	; 0x240
    23a4:	e893000c 	ldm	r3, {r2, r3}
    23a8:	eb000cbc 	bl	56a0 <__adddf3>
    23ac:	e1a02006 	mov	r2, r6
    23b0:	e1a03007 	mov	r3, r7
    23b4:	eb000dbd 	bl	5ab0 <__aeabi_dmul>
    23b8:	e28f3e23 	add	r3, pc, #560	; 0x230
    23bc:	e893000c 	ldm	r3, {r2, r3}
    23c0:	eb000cb5 	bl	569c <__aeabi_dsub>
    23c4:	e1a02006 	mov	r2, r6
    23c8:	e1a03007 	mov	r3, r7
    23cc:	eb000db7 	bl	5ab0 <__aeabi_dmul>
    23d0:	e28f3e22 	add	r3, pc, #544	; 0x220
    23d4:	e893000c 	ldm	r3, {r2, r3}
    23d8:	eb000cb0 	bl	56a0 <__adddf3>
    23dc:	e1a02006 	mov	r2, r6
    23e0:	e1a03007 	mov	r3, r7
    23e4:	eb000db1 	bl	5ab0 <__aeabi_dmul>
    23e8:	e1a02000 	mov	r2, r0
    23ec:	e1a03001 	mov	r3, r1
    23f0:	e1a00004 	mov	r0, r4
    23f4:	e1a01005 	mov	r1, r5
    23f8:	eb000ca7 	bl	569c <__aeabi_dsub>
    23fc:	e3580000 	cmp	r8, #0
    2400:	e1a06000 	mov	r6, r0
    2404:	e1a07001 	mov	r7, r1
    2408:	0a000047 	beq	252c <__ieee754_exp+0x344>
    240c:	e1a02000 	mov	r2, r0
    2410:	e1a03001 	mov	r3, r1
    2414:	e1a00004 	mov	r0, r4
    2418:	e1a01005 	mov	r1, r5
    241c:	eb000da3 	bl	5ab0 <__aeabi_dmul>
    2420:	e1a02006 	mov	r2, r6
    2424:	e1a04000 	mov	r4, r0
    2428:	e1a05001 	mov	r5, r1
    242c:	e1a03007 	mov	r3, r7
    2430:	e3a00000 	mov	r0, #0
    2434:	e3a01101 	mov	r1, #1073741824	; 0x40000000
    2438:	eb000c97 	bl	569c <__aeabi_dsub>
    243c:	e1a02000 	mov	r2, r0
    2440:	e1a03001 	mov	r3, r1
    2444:	e1a00004 	mov	r0, r4
    2448:	e1a01005 	mov	r1, r5
    244c:	eb000e3b 	bl	5d40 <__aeabi_ddiv>
    2450:	e1a02000 	mov	r2, r0
    2454:	e1a03001 	mov	r3, r1
    2458:	e1a0000a 	mov	r0, r10
    245c:	e1a0100b 	mov	r1, r11
    2460:	eb000c8d 	bl	569c <__aeabi_dsub>
    2464:	e89d000c 	ldm	sp, {r2, r3}
    2468:	eb000c8b 	bl	569c <__aeabi_dsub>
    246c:	e1a03001 	mov	r3, r1
    2470:	e1a02000 	mov	r2, r0
    2474:	e59f1194 	ldr	r1, [pc, #404]	; 2610 <__ieee754_exp+0x428>
    2478:	e3a00000 	mov	r0, #0
    247c:	eb000c86 	bl	569c <__aeabi_dsub>
    2480:	e3e03fff 	mvn	r3, #1020	; 0x3fc
    2484:	e1580003 	cmp	r8, r3
    2488:	a1a04000 	movge	r4, r0
    248c:	a0815a08 	addge	r5, r1, r8, lsl #20
    2490:	aaffff66 	bge	2230 <__ieee754_exp+0x48>
    2494:	e2888ffa 	add	r8, r8, #1000	; 0x3e8
    2498:	e0811a08 	add	r1, r1, r8, lsl #20
    249c:	e3a02000 	mov	r2, #0
    24a0:	e3a03617 	mov	r3, #24117248	; 0x1700000
    24a4:	eb000d81 	bl	5ab0 <__aeabi_dmul>
    24a8:	e1a04000 	mov	r4, r0
    24ac:	e1a05001 	mov	r5, r1
    24b0:	eaffff5e 	b	2230 <__ieee754_exp+0x48>
    24b4:	e59f215c 	ldr	r2, [pc, #348]	; 2618 <__ieee754_exp+0x430>
    24b8:	e1530002 	cmp	r3, r2
    24bc:	8affff82 	bhi	22cc <__ieee754_exp+0xe4>
    24c0:	e59f414c 	ldr	r4, [pc, #332]	; 2614 <__ieee754_exp+0x42c>
    24c4:	e0844186 	add	r4, r4, r6, lsl #3
    24c8:	e894000c 	ldm	r4, {r2, r3}
    24cc:	eb000c72 	bl	569c <__aeabi_dsub>
    24d0:	e2668000 	rsb	r8, r6, #0
    24d4:	e0668008 	rsb	r8, r6, r8
    24d8:	e88d0003 	stm	sp, {r0, r1}
    24dc:	e284b010 	add	r11, r4, #16
    24e0:	e89b0c00 	ldm	r11, {r10, r11}
    24e4:	e2888001 	add	r8, r8, #1
    24e8:	eaffff96 	b	2348 <__ieee754_exp+0x160>
    24ec:	e3a08000 	mov	r8, #0
    24f0:	eaffff9a 	b	2360 <__ieee754_exp+0x178>
    24f4:	e1a02000 	mov	r2, r0
    24f8:	e1a03001 	mov	r3, r1
    24fc:	eb000c67 	bl	56a0 <__adddf3>
    2500:	e1a04000 	mov	r4, r0
    2504:	e1a05001 	mov	r5, r1
    2508:	eaffff48 	b	2230 <__ieee754_exp+0x48>
    250c:	e28f1094 	add	r1, pc, #148	; 0x94
    2510:	e8910003 	ldm	r1, {r0, r1}
    2514:	e1a02000 	mov	r2, r0
    2518:	e1a03001 	mov	r3, r1
    251c:	eb000d63 	bl	5ab0 <__aeabi_dmul>
    2520:	e1a04000 	mov	r4, r0
    2524:	e1a05001 	mov	r5, r1
    2528:	eaffff40 	b	2230 <__ieee754_exp+0x48>
    252c:	e1a00004 	mov	r0, r4
    2530:	e1a01005 	mov	r1, r5
    2534:	e1a02006 	mov	r2, r6
    2538:	e1a03007 	mov	r3, r7
    253c:	eb000d5b 	bl	5ab0 <__aeabi_dmul>
    2540:	e3a02000 	mov	r2, #0
    2544:	e1a08000 	mov	r8, r0
    2548:	e1a09001 	mov	r9, r1
    254c:	e3a03101 	mov	r3, #1073741824	; 0x40000000
    2550:	e1a00006 	mov	r0, r6
    2554:	e1a01007 	mov	r1, r7
    2558:	eb000c4f 	bl	569c <__aeabi_dsub>
    255c:	e1a02000 	mov	r2, r0
    2560:	e1a03001 	mov	r3, r1
    2564:	e1a00008 	mov	r0, r8
    2568:	e1a01009 	mov	r1, r9
    256c:	eb000df3 	bl	5d40 <__aeabi_ddiv>
    2570:	e1a02004 	mov	r2, r4
    2574:	e1a03005 	mov	r3, r5
    2578:	eb000c47 	bl	569c <__aeabi_dsub>
    257c:	e1a02000 	mov	r2, r0
    2580:	e1a03001 	mov	r3, r1
    2584:	e3a00000 	mov	r0, #0
    2588:	e59f1080 	ldr	r1, [pc, #128]	; 2610 <__ieee754_exp+0x428>
    258c:	eb000c42 	bl	569c <__aeabi_dsub>
    2590:	e1a04000 	mov	r4, r0
    2594:	e1a05001 	mov	r5, r1
    2598:	eaffff24 	b	2230 <__ieee754_exp+0x48>
    259c:	e3a04000 	mov	r4, #0
    25a0:	e3a05000 	mov	r5, #0
    25a4:	eaffff21 	b	2230 <__ieee754_exp+0x48>
    25a8:	8800759c 	.word	0x8800759c
    25ac:	7e37e43c 	.word	0x7e37e43c
    25b0:	fefa39ef 	.word	0xfefa39ef
    25b4:	40862e42 	.word	0x40862e42
    25b8:	d52d3051 	.word	0xd52d3051
    25bc:	c0874910 	.word	0xc0874910
    25c0:	652b82fe 	.word	0x652b82fe
    25c4:	3ff71547 	.word	0x3ff71547
    25c8:	fee00000 	.word	0xfee00000
    25cc:	3fe62e42 	.word	0x3fe62e42
    25d0:	35793c76 	.word	0x35793c76
    25d4:	3dea39ef 	.word	0x3dea39ef
    25d8:	72bea4d0 	.word	0x72bea4d0
    25dc:	3e663769 	.word	0x3e663769
    25e0:	c5d26bf1 	.word	0xc5d26bf1
    25e4:	3ebbbd41 	.word	0x3ebbbd41
    25e8:	af25de2c 	.word	0xaf25de2c
    25ec:	3f11566a 	.word	0x3f11566a
    25f0:	16bebd93 	.word	0x16bebd93
    25f4:	3f66c16c 	.word	0x3f66c16c
    25f8:	5555553e 	.word	0x5555553e
    25fc:	3fc55555 	.word	0x3fc55555
    2600:	40862e41 	.word	0x40862e41
    2604:	7fefffff 	.word	0x7fefffff
    2608:	3fd62e42 	.word	0x3fd62e42
    260c:	3e2fffff 	.word	0x3e2fffff
    2610:	3ff00000 	.word	0x3ff00000
    2614:	00006cf0 	.word	0x00006cf0
    2618:	3ff0a2b1 	.word	0x3ff0a2b1
    261c:	e1a00000 	nop			; (mov r0, r0)

00002620 <__ieee754_pow>:
    2620:	e92d4ff0 	push	{r4, r5, r6, r7, r8, r9, r10, r11, lr}
    2624:	e1a0b003 	mov	r11, r3
    2628:	e1a0a002 	mov	r10, r2
    262c:	e3cb6102 	bic	r6, r11, #-2147483648	; 0x80000000
    2630:	e1a08001 	mov	r8, r1
    2634:	e24dd044 	sub	sp, sp, #68	; 0x44
    2638:	e196100a 	orrs	r1, r6, r10
    263c:	e1a04002 	mov	r4, r2
    2640:	e1a07000 	mov	r7, r0
    2644:	e1a05003 	mov	r5, r3
    2648:	e1a0c00a 	mov	r12, r10
    264c:	e58d8010 	str	r8, [sp, #16]
    2650:	e1a09000 	mov	r9, r0
    2654:	0a000060 	beq	27dc <__ieee754_pow+0x1bc>
    2658:	e59f12d0 	ldr	r1, [pc, #720]	; 2930 <__ieee754_pow+0x310>
    265c:	e3c80102 	bic	r0, r8, #-2147483648	; 0x80000000
    2660:	e1500001 	cmp	r0, r1
    2664:	e58d0008 	str	r0, [sp, #8]
    2668:	da00000b 	ble	269c <__ieee754_pow+0x7c>
    266c:	e59d4008 	ldr	r4, [sp, #8]
    2670:	e284a103 	add	r10, r4, #-1073741824	; 0xc0000000
    2674:	e28aa601 	add	r10, r10, #1048576	; 0x100000
    2678:	e19a9009 	orrs	r9, r10, r9
    267c:	01a0a009 	moveq	r10, r9
    2680:	059fb2d4 	ldreq	r11, [pc, #724]	; 295c <__ieee754_pow+0x33c>
    2684:	1a000057 	bne	27e8 <__ieee754_pow+0x1c8>
    2688:	e1a0000a 	mov	r0, r10
    268c:	e1a0100b 	mov	r1, r11
    2690:	e28dd044 	add	sp, sp, #68	; 0x44
    2694:	e8bd4ff0 	pop	{r4, r5, r6, r7, r8, r9, r10, r11, lr}
    2698:	e12fff1e 	bx	lr
    269c:	13a00000 	movne	r0, #0
    26a0:	03a00001 	moveq	r0, #1
    26a4:	e58d0018 	str	r0, [sp, #24]
    26a8:	e3570000 	cmp	r7, #0
    26ac:	03a00000 	moveq	r0, #0
    26b0:	12000001 	andne	r0, r0, #1
    26b4:	e3500000 	cmp	r0, #0
    26b8:	1affffeb 	bne	266c <__ieee754_pow+0x4c>
    26bc:	e1560001 	cmp	r6, r1
    26c0:	caffffe9 	bgt	266c <__ieee754_pow+0x4c>
    26c4:	13a01000 	movne	r1, #0
    26c8:	03a01001 	moveq	r1, #1
    26cc:	e58d1028 	str	r1, [sp, #40]	; 0x28
    26d0:	e35a0000 	cmp	r10, #0
    26d4:	03a01000 	moveq	r1, #0
    26d8:	12011001 	andne	r1, r1, #1
    26dc:	e3510000 	cmp	r1, #0
    26e0:	1affffe1 	bne	266c <__ieee754_pow+0x4c>
    26e4:	e59d0010 	ldr	r0, [sp, #16]
    26e8:	e3500000 	cmp	r0, #0
    26ec:	e58d8020 	str	r8, [sp, #32]
    26f0:	e1a0400b 	mov	r4, r11
    26f4:	ba000040 	blt	27fc <__ieee754_pow+0x1dc>
    26f8:	e58d1030 	str	r1, [sp, #48]	; 0x30
    26fc:	e35c0000 	cmp	r12, #0
    2700:	1a00000c 	bne	2738 <__ieee754_pow+0x118>
    2704:	e59d3028 	ldr	r3, [sp, #40]	; 0x28
    2708:	e3530000 	cmp	r3, #0
    270c:	1a00004e 	bne	284c <__ieee754_pow+0x22c>
    2710:	e59f3244 	ldr	r3, [pc, #580]	; 295c <__ieee754_pow+0x33c>
    2714:	e1560003 	cmp	r6, r3
    2718:	0a000073 	beq	28ec <__ieee754_pow+0x2cc>
    271c:	e3540101 	cmp	r4, #1073741824	; 0x40000000
    2720:	01a00007 	moveq	r0, r7
    2724:	01a01008 	moveq	r1, r8
    2728:	0a000025 	beq	27c4 <__ieee754_pow+0x1a4>
    272c:	e59f3200 	ldr	r3, [pc, #512]	; 2934 <__ieee754_pow+0x314>
    2730:	e1540003 	cmp	r4, r3
    2734:	0a0002c7 	beq	3258 <__ieee754_pow+0xc38>
    2738:	e1a00007 	mov	r0, r7
    273c:	e1a01008 	mov	r1, r8
    2740:	eb000a1c 	bl	4fb8 <fabs>
    2744:	e3590000 	cmp	r9, #0
    2748:	1a000008 	bne	2770 <__ieee754_pow+0x150>
    274c:	e59d3018 	ldr	r3, [sp, #24]
    2750:	e59d2008 	ldr	r2, [sp, #8]
    2754:	e3520000 	cmp	r2, #0
    2758:	03833001 	orreq	r3, r3, #1
    275c:	e3530000 	cmp	r3, #0
    2760:	1a000046 	bne	2880 <__ieee754_pow+0x260>
    2764:	e59f31f0 	ldr	r3, [pc, #496]	; 295c <__ieee754_pow+0x33c>
    2768:	e1520003 	cmp	r2, r3
    276c:	0a000043 	beq	2880 <__ieee754_pow+0x260>
    2770:	e59d2010 	ldr	r2, [sp, #16]
    2774:	e1a03fa2 	lsr	r3, r2, #31
    2778:	e59d2030 	ldr	r2, [sp, #48]	; 0x30
    277c:	e2433001 	sub	r3, r3, #1
    2780:	e1922003 	orrs	r2, r2, r3
    2784:	e58d3010 	str	r3, [sp, #16]
    2788:	0a000052 	beq	28d8 <__ieee754_pow+0x2b8>
    278c:	e59f31a4 	ldr	r3, [pc, #420]	; 2938 <__ieee754_pow+0x318>
    2790:	e1560003 	cmp	r6, r3
    2794:	da000071 	ble	2960 <__ieee754_pow+0x340>
    2798:	e2833621 	add	r3, r3, #34603008	; 0x2100000
    279c:	e1560003 	cmp	r6, r3
    27a0:	da00030e 	ble	33e0 <__ieee754_pow+0xdc0>
    27a4:	e59d0008 	ldr	r0, [sp, #8]
    27a8:	e2433341 	sub	r3, r3, #67108865	; 0x4000001
    27ac:	e1500003 	cmp	r0, r3
    27b0:	da0002b4 	ble	3288 <__ieee754_pow+0xc68>
    27b4:	e3540000 	cmp	r4, #0
    27b8:	da00002d 	ble	2874 <__ieee754_pow+0x254>
    27bc:	e28f1f59 	add	r1, pc, #356	; 0x164
    27c0:	e8910003 	ldm	r1, {r0, r1}
    27c4:	e1a02000 	mov	r2, r0
    27c8:	e1a03001 	mov	r3, r1
    27cc:	eb000cb7 	bl	5ab0 <__aeabi_dmul>
    27d0:	e1a0a000 	mov	r10, r0
    27d4:	e1a0b001 	mov	r11, r1
    27d8:	eaffffaa 	b	2688 <__ieee754_pow+0x68>
    27dc:	e1a0a001 	mov	r10, r1
    27e0:	e59fb174 	ldr	r11, [pc, #372]	; 295c <__ieee754_pow+0x33c>
    27e4:	eaffffa7 	b	2688 <__ieee754_pow+0x68>
    27e8:	e59f014c 	ldr	r0, [pc, #332]	; 293c <__ieee754_pow+0x31c>
    27ec:	eb000a7a 	bl	51dc <nan>
    27f0:	e1a0a000 	mov	r10, r0
    27f4:	e1a0b001 	mov	r11, r1
    27f8:	eaffffa2 	b	2688 <__ieee754_pow+0x68>
    27fc:	e59f313c 	ldr	r3, [pc, #316]	; 2940 <__ieee754_pow+0x320>
    2800:	e1560003 	cmp	r6, r3
    2804:	ca000044 	bgt	291c <__ieee754_pow+0x2fc>
    2808:	e2433635 	sub	r3, r3, #55574528	; 0x3500000
    280c:	e1560003 	cmp	r6, r3
    2810:	daffffb8 	ble	26f8 <__ieee754_pow+0xd8>
    2814:	e59f2128 	ldr	r2, [pc, #296]	; 2944 <__ieee754_pow+0x324>
    2818:	e1a03a46 	asr	r3, r6, #20
    281c:	e1530002 	cmp	r3, r2
    2820:	da00034b 	ble	3554 <__ieee754_pow+0xf34>
    2824:	e2633e43 	rsb	r3, r3, #1072	; 0x430
    2828:	e2832003 	add	r2, r3, #3
    282c:	e1a0323a 	lsr	r3, r10, r2
    2830:	e15a0213 	cmp	r10, r3, lsl r2
    2834:	02033001 	andeq	r3, r3, #1
    2838:	02633002 	rsbeq	r3, r3, #2
    283c:	058d3030 	streq	r3, [sp, #48]	; 0x30
    2840:	13a02000 	movne	r2, #0
    2844:	158d2030 	strne	r2, [sp, #48]	; 0x30
    2848:	eaffffab 	b	26fc <__ieee754_pow+0xdc>
    284c:	e59d0008 	ldr	r0, [sp, #8]
    2850:	e2803103 	add	r3, r0, #-1073741824	; 0xc0000000
    2854:	e2833601 	add	r3, r3, #1048576	; 0x100000
    2858:	e1933009 	orrs	r3, r3, r9
    285c:	0a000286 	beq	327c <__ieee754_pow+0xc5c>
    2860:	e59f30e0 	ldr	r3, [pc, #224]	; 2948 <__ieee754_pow+0x328>
    2864:	e1500003 	cmp	r0, r3
    2868:	da0002c4 	ble	3380 <__ieee754_pow+0xd60>
    286c:	e3540000 	cmp	r4, #0
    2870:	aaffff84 	bge	2688 <__ieee754_pow+0x68>
    2874:	e3a0a000 	mov	r10, #0
    2878:	e1a0b00a 	mov	r11, r10
    287c:	eaffff81 	b	2688 <__ieee754_pow+0x68>
    2880:	e3540000 	cmp	r4, #0
    2884:	ba000321 	blt	3510 <__ieee754_pow+0xef0>
    2888:	e59d4020 	ldr	r4, [sp, #32]
    288c:	e3540000 	cmp	r4, #0
    2890:	aaffffce 	bge	27d0 <__ieee754_pow+0x1b0>
    2894:	e59d4008 	ldr	r4, [sp, #8]
    2898:	e2843103 	add	r3, r4, #-1073741824	; 0xc0000000
    289c:	e59d4030 	ldr	r4, [sp, #48]	; 0x30
    28a0:	e2833601 	add	r3, r3, #1048576	; 0x100000
    28a4:	e1944003 	orrs	r4, r4, r3
    28a8:	1a000335 	bne	3584 <__ieee754_pow+0xf64>
    28ac:	e1a04000 	mov	r4, r0
    28b0:	e1a02000 	mov	r2, r0
    28b4:	e1a05001 	mov	r5, r1
    28b8:	e1a03001 	mov	r3, r1
    28bc:	eb000b76 	bl	569c <__aeabi_dsub>
    28c0:	e1a02000 	mov	r2, r0
    28c4:	e1a03001 	mov	r3, r1
    28c8:	eb000d1c 	bl	5d40 <__aeabi_ddiv>
    28cc:	e1a0a000 	mov	r10, r0
    28d0:	e1a0b001 	mov	r11, r1
    28d4:	eaffff6b 	b	2688 <__ieee754_pow+0x68>
    28d8:	e1a00007 	mov	r0, r7
    28dc:	e1a01008 	mov	r1, r8
    28e0:	e1a02007 	mov	r2, r7
    28e4:	e1a03008 	mov	r3, r8
    28e8:	eafffff3 	b	28bc <__ieee754_pow+0x29c>
    28ec:	e3540000 	cmp	r4, #0
    28f0:	a1a0a007 	movge	r10, r7
    28f4:	a1a0b008 	movge	r11, r8
    28f8:	aaffff62 	bge	2688 <__ieee754_pow+0x68>
    28fc:	e1a02007 	mov	r2, r7
    2900:	e1a03008 	mov	r3, r8
    2904:	e3a00000 	mov	r0, #0
    2908:	e59f104c 	ldr	r1, [pc, #76]	; 295c <__ieee754_pow+0x33c>
    290c:	eb000d0b 	bl	5d40 <__aeabi_ddiv>
    2910:	e1a0a000 	mov	r10, r0
    2914:	e1a0b001 	mov	r11, r1
    2918:	eaffff5a 	b	2688 <__ieee754_pow+0x68>
    291c:	e3a01002 	mov	r1, #2
    2920:	eaffff74 	b	26f8 <__ieee754_pow+0xd8>
    2924:	e1a00000 	nop			; (mov r0, r0)
    2928:	8800759c 	.word	0x8800759c
    292c:	7e37e43c 	.word	0x7e37e43c
    2930:	7ff00000 	.word	0x7ff00000
    2934:	3fe00000 	.word	0x3fe00000
    2938:	41e00000 	.word	0x41e00000
    293c:	00006d50 	.word	0x00006d50
    2940:	433fffff 	.word	0x433fffff
    2944:	00000413 	.word	0x00000413
    2948:	3fefffff 	.word	0x3fefffff
    294c:	43400000 	.word	0x43400000
    2950:	0003988e 	.word	0x0003988e
    2954:	000bb679 	.word	0x000bb679
    2958:	00006d20 	.word	0x00006d20
    295c:	3ff00000 	.word	0x3ff00000
    2960:	e59d4008 	ldr	r4, [sp, #8]
    2964:	e3540601 	cmp	r4, #1048576	; 0x100000
    2968:	a3a02000 	movge	r2, #0
    296c:	aa000004 	bge	2984 <__ieee754_pow+0x364>
    2970:	e3a02000 	mov	r2, #0
    2974:	e51f3030 	ldr	r3, [pc, #-48]	; 294c <__ieee754_pow+0x32c>
    2978:	eb000c4c 	bl	5ab0 <__aeabi_dmul>
    297c:	e58d1008 	str	r1, [sp, #8]
    2980:	e3e02034 	mvn	r2, #52	; 0x34
    2984:	e59d4008 	ldr	r4, [sp, #8]
    2988:	e51fe040 	ldr	lr, [pc, #-64]	; 2950 <__ieee754_pow+0x330>
    298c:	e3c434ff 	bic	r3, r4, #-16777216	; 0xff000000
    2990:	e1a0ca44 	asr	r12, r4, #20
    2994:	e3c3360f 	bic	r3, r3, #15728640	; 0xf00000
    2998:	e153000e 	cmp	r3, lr
    299c:	e24ccfff 	sub	r12, r12, #1020	; 0x3fc
    29a0:	e24cc003 	sub	r12, r12, #3
    29a4:	e38345ff 	orr	r4, r3, #1069547520	; 0x3fc00000
    29a8:	d3a05000 	movle	r5, #0
    29ac:	e08cc002 	add	r12, r12, r2
    29b0:	e3844603 	orr	r4, r4, #3145728	; 0x300000
    29b4:	d1a0e005 	movle	lr, r5
    29b8:	da000007 	ble	29dc <__ieee754_pow+0x3bc>
    29bc:	e51f2070 	ldr	r2, [pc, #-112]	; 2954 <__ieee754_pow+0x334>
    29c0:	e1530002 	cmp	r3, r2
    29c4:	c3a05000 	movgt	r5, #0
    29c8:	c28cc001 	addgt	r12, r12, #1
    29cc:	c2444601 	subgt	r4, r4, #1048576	; 0x100000
    29d0:	c1a0e005 	movgt	lr, r5
    29d4:	d3a05701 	movle	r5, #262144	; 0x40000
    29d8:	d3a0e001 	movle	lr, #1
    29dc:	e51f108c 	ldr	r1, [pc, #-140]	; 2958 <__ieee754_pow+0x338>
    29e0:	e081118e 	add	r1, r1, lr, lsl #3
    29e4:	e1a02000 	mov	r2, r0
    29e8:	e58d1034 	str	r1, [sp, #52]	; 0x34
    29ec:	e8910003 	ldm	r1, {r0, r1}
    29f0:	e1a03004 	mov	r3, r4
    29f4:	e58d0028 	str	r0, [sp, #40]	; 0x28
    29f8:	e58d102c 	str	r1, [sp, #44]	; 0x2c
    29fc:	e58d2020 	str	r2, [sp, #32]
    2a00:	e58d3024 	str	r3, [sp, #36]	; 0x24
    2a04:	e1a00002 	mov	r0, r2
    2a08:	e1a01004 	mov	r1, r4
    2a0c:	e28d3028 	add	r3, sp, #40	; 0x28
    2a10:	e893000c 	ldm	r3, {r2, r3}
    2a14:	e58dc004 	str	r12, [sp, #4]
    2a18:	eb000b1f 	bl	569c <__aeabi_dsub>
    2a1c:	e28d3028 	add	r3, sp, #40	; 0x28
    2a20:	e893000c 	ldm	r3, {r2, r3}
    2a24:	e1a06000 	mov	r6, r0
    2a28:	e1a07001 	mov	r7, r1
    2a2c:	e28d1020 	add	r1, sp, #32
    2a30:	e8910003 	ldm	r1, {r0, r1}
    2a34:	eb000b19 	bl	56a0 <__adddf3>
    2a38:	e1a02000 	mov	r2, r0
    2a3c:	e1a03001 	mov	r3, r1
    2a40:	e3a00000 	mov	r0, #0
    2a44:	e51f10f0 	ldr	r1, [pc, #-240]	; 295c <__ieee754_pow+0x33c>
    2a48:	eb000cbc 	bl	5d40 <__aeabi_ddiv>
    2a4c:	e58d0038 	str	r0, [sp, #56]	; 0x38
    2a50:	e58d103c 	str	r1, [sp, #60]	; 0x3c
    2a54:	e28d3038 	add	r3, sp, #56	; 0x38
    2a58:	e893000c 	ldm	r3, {r2, r3}
    2a5c:	e1a00006 	mov	r0, r6
    2a60:	e1a01007 	mov	r1, r7
    2a64:	eb000c11 	bl	5ab0 <__aeabi_dmul>
    2a68:	e58d0018 	str	r0, [sp, #24]
    2a6c:	e58d101c 	str	r1, [sp, #28]
    2a70:	e28d3018 	add	r3, sp, #24
    2a74:	e893000c 	ldm	r3, {r2, r3}
    2a78:	e1a010c4 	asr	r1, r4, #1
    2a7c:	e3a04000 	mov	r4, #0
    2a80:	e58d2008 	str	r2, [sp, #8]
    2a84:	e58d300c 	str	r3, [sp, #12]
    2a88:	e58d4008 	str	r4, [sp, #8]
    2a8c:	e28d9008 	add	r9, sp, #8
    2a90:	e8990300 	ldm	r9, {r8, r9}
    2a94:	e3811202 	orr	r1, r1, #536870912	; 0x20000000
    2a98:	e2811702 	add	r1, r1, #524288	; 0x80000
    2a9c:	e0853001 	add	r3, r5, r1
    2aa0:	e3a02000 	mov	r2, #0
    2aa4:	e1a00008 	mov	r0, r8
    2aa8:	e1a01009 	mov	r1, r9
    2aac:	e1a04002 	mov	r4, r2
    2ab0:	e1a05003 	mov	r5, r3
    2ab4:	eb000bfd 	bl	5ab0 <__aeabi_dmul>
    2ab8:	e1a02000 	mov	r2, r0
    2abc:	e1a03001 	mov	r3, r1
    2ac0:	e1a00006 	mov	r0, r6
    2ac4:	e1a01007 	mov	r1, r7
    2ac8:	eb000af3 	bl	569c <__aeabi_dsub>
    2acc:	e28d3028 	add	r3, sp, #40	; 0x28
    2ad0:	e893000c 	ldm	r3, {r2, r3}
    2ad4:	e1a06000 	mov	r6, r0
    2ad8:	e1a07001 	mov	r7, r1
    2adc:	e1a00004 	mov	r0, r4
    2ae0:	e1a01005 	mov	r1, r5
    2ae4:	eb000aec 	bl	569c <__aeabi_dsub>
    2ae8:	e1a02000 	mov	r2, r0
    2aec:	e1a03001 	mov	r3, r1
    2af0:	e28d1020 	add	r1, sp, #32
    2af4:	e8910003 	ldm	r1, {r0, r1}
    2af8:	eb000ae7 	bl	569c <__aeabi_dsub>
    2afc:	e1a02000 	mov	r2, r0
    2b00:	e1a03001 	mov	r3, r1
    2b04:	e1a00008 	mov	r0, r8
    2b08:	e1a01009 	mov	r1, r9
    2b0c:	eb000be7 	bl	5ab0 <__aeabi_dmul>
    2b10:	e1a02000 	mov	r2, r0
    2b14:	e1a03001 	mov	r3, r1
    2b18:	e1a00006 	mov	r0, r6
    2b1c:	e1a01007 	mov	r1, r7
    2b20:	eb000add 	bl	569c <__aeabi_dsub>
    2b24:	e28d3038 	add	r3, sp, #56	; 0x38
    2b28:	e893000c 	ldm	r3, {r2, r3}
    2b2c:	eb000bdf 	bl	5ab0 <__aeabi_dmul>
    2b30:	e1a06000 	mov	r6, r0
    2b34:	e1a07001 	mov	r7, r1
    2b38:	e28d1018 	add	r1, sp, #24
    2b3c:	e8910003 	ldm	r1, {r0, r1}
    2b40:	e1a02000 	mov	r2, r0
    2b44:	e1a03001 	mov	r3, r1
    2b48:	eb000bd8 	bl	5ab0 <__aeabi_dmul>
    2b4c:	e1a02000 	mov	r2, r0
    2b50:	e1a03001 	mov	r3, r1
    2b54:	e1a04000 	mov	r4, r0
    2b58:	e1a05001 	mov	r5, r1
    2b5c:	eb000bd3 	bl	5ab0 <__aeabi_dmul>
    2b60:	e28f3e3f 	add	r3, pc, #1008	; 0x3f0
    2b64:	e893000c 	ldm	r3, {r2, r3}
    2b68:	e58d0020 	str	r0, [sp, #32]
    2b6c:	e58d1024 	str	r1, [sp, #36]	; 0x24
    2b70:	e1a00004 	mov	r0, r4
    2b74:	e1a01005 	mov	r1, r5
    2b78:	eb000bcc 	bl	5ab0 <__aeabi_dmul>
    2b7c:	e28f3ff7 	add	r3, pc, #988	; 0x3dc
    2b80:	e893000c 	ldm	r3, {r2, r3}
    2b84:	eb000ac5 	bl	56a0 <__adddf3>
    2b88:	e1a02004 	mov	r2, r4
    2b8c:	e1a03005 	mov	r3, r5
    2b90:	eb000bc6 	bl	5ab0 <__aeabi_dmul>
    2b94:	e28f3ff3 	add	r3, pc, #972	; 0x3cc
    2b98:	e893000c 	ldm	r3, {r2, r3}
    2b9c:	eb000abf 	bl	56a0 <__adddf3>
    2ba0:	e1a02004 	mov	r2, r4
    2ba4:	e1a03005 	mov	r3, r5
    2ba8:	eb000bc0 	bl	5ab0 <__aeabi_dmul>
    2bac:	e28f3fef 	add	r3, pc, #956	; 0x3bc
    2bb0:	e893000c 	ldm	r3, {r2, r3}
    2bb4:	eb000ab9 	bl	56a0 <__adddf3>
    2bb8:	e1a02004 	mov	r2, r4
    2bbc:	e1a03005 	mov	r3, r5
    2bc0:	eb000bba 	bl	5ab0 <__aeabi_dmul>
    2bc4:	e28f3feb 	add	r3, pc, #940	; 0x3ac
    2bc8:	e893000c 	ldm	r3, {r2, r3}
    2bcc:	eb000ab3 	bl	56a0 <__adddf3>
    2bd0:	e1a02004 	mov	r2, r4
    2bd4:	e1a03005 	mov	r3, r5
    2bd8:	eb000bb4 	bl	5ab0 <__aeabi_dmul>
    2bdc:	e28f3fe7 	add	r3, pc, #924	; 0x39c
    2be0:	e893000c 	ldm	r3, {r2, r3}
    2be4:	eb000aad 	bl	56a0 <__adddf3>
    2be8:	e1a02000 	mov	r2, r0
    2bec:	e1a03001 	mov	r3, r1
    2bf0:	e28d1020 	add	r1, sp, #32
    2bf4:	e8910003 	ldm	r1, {r0, r1}
    2bf8:	eb000bac 	bl	5ab0 <__aeabi_dmul>
    2bfc:	e28d3018 	add	r3, sp, #24
    2c00:	e893000c 	ldm	r3, {r2, r3}
    2c04:	e1a04000 	mov	r4, r0
    2c08:	e1a05001 	mov	r5, r1
    2c0c:	e1a00008 	mov	r0, r8
    2c10:	e1a01009 	mov	r1, r9
    2c14:	eb000aa1 	bl	56a0 <__adddf3>
    2c18:	e1a02006 	mov	r2, r6
    2c1c:	e1a03007 	mov	r3, r7
    2c20:	eb000ba2 	bl	5ab0 <__aeabi_dmul>
    2c24:	e1a02004 	mov	r2, r4
    2c28:	e1a03005 	mov	r3, r5
    2c2c:	eb000a9b 	bl	56a0 <__adddf3>
    2c30:	e1a02008 	mov	r2, r8
    2c34:	e58d0020 	str	r0, [sp, #32]
    2c38:	e58d1024 	str	r1, [sp, #36]	; 0x24
    2c3c:	e1a03009 	mov	r3, r9
    2c40:	e1a00008 	mov	r0, r8
    2c44:	e1a01009 	mov	r1, r9
    2c48:	eb000b98 	bl	5ab0 <__aeabi_dmul>
    2c4c:	e3a02000 	mov	r2, #0
    2c50:	e59f3348 	ldr	r3, [pc, #840]	; 2fa0 <__ieee754_pow+0x980>
    2c54:	e58d0028 	str	r0, [sp, #40]	; 0x28
    2c58:	e58d102c 	str	r1, [sp, #44]	; 0x2c
    2c5c:	eb000a8f 	bl	56a0 <__adddf3>
    2c60:	e28d3020 	add	r3, sp, #32
    2c64:	e893000c 	ldm	r3, {r2, r3}
    2c68:	eb000a8c 	bl	56a0 <__adddf3>
    2c6c:	e59de008 	ldr	lr, [sp, #8]
    2c70:	e1a05001 	mov	r5, r1
    2c74:	e1a0200e 	mov	r2, lr
    2c78:	e1a03005 	mov	r3, r5
    2c7c:	e1a00008 	mov	r0, r8
    2c80:	e1a01009 	mov	r1, r9
    2c84:	e1a0400e 	mov	r4, lr
    2c88:	eb000b88 	bl	5ab0 <__aeabi_dmul>
    2c8c:	e1a02004 	mov	r2, r4
    2c90:	e1a08000 	mov	r8, r0
    2c94:	e1a09001 	mov	r9, r1
    2c98:	e1a03005 	mov	r3, r5
    2c9c:	e1a00006 	mov	r0, r6
    2ca0:	e1a01007 	mov	r1, r7
    2ca4:	eb000b81 	bl	5ab0 <__aeabi_dmul>
    2ca8:	e3a02000 	mov	r2, #0
    2cac:	e1a06000 	mov	r6, r0
    2cb0:	e1a07001 	mov	r7, r1
    2cb4:	e1a00004 	mov	r0, r4
    2cb8:	e1a01005 	mov	r1, r5
    2cbc:	e59f32dc 	ldr	r3, [pc, #732]	; 2fa0 <__ieee754_pow+0x980>
    2cc0:	eb000a75 	bl	569c <__aeabi_dsub>
    2cc4:	e28d3028 	add	r3, sp, #40	; 0x28
    2cc8:	e893000c 	ldm	r3, {r2, r3}
    2ccc:	eb000a72 	bl	569c <__aeabi_dsub>
    2cd0:	e1a02000 	mov	r2, r0
    2cd4:	e1a03001 	mov	r3, r1
    2cd8:	e28d1020 	add	r1, sp, #32
    2cdc:	e8910003 	ldm	r1, {r0, r1}
    2ce0:	eb000a6d 	bl	569c <__aeabi_dsub>
    2ce4:	e28d3018 	add	r3, sp, #24
    2ce8:	e893000c 	ldm	r3, {r2, r3}
    2cec:	eb000b6f 	bl	5ab0 <__aeabi_dmul>
    2cf0:	e1a02000 	mov	r2, r0
    2cf4:	e1a03001 	mov	r3, r1
    2cf8:	e1a00006 	mov	r0, r6
    2cfc:	e1a01007 	mov	r1, r7
    2d00:	eb000a66 	bl	56a0 <__adddf3>
    2d04:	e1a06000 	mov	r6, r0
    2d08:	e1a07001 	mov	r7, r1
    2d0c:	e1a02006 	mov	r2, r6
    2d10:	e1a03007 	mov	r3, r7
    2d14:	e1a00008 	mov	r0, r8
    2d18:	e1a01009 	mov	r1, r9
    2d1c:	eb000a5f 	bl	56a0 <__adddf3>
    2d20:	e59d2008 	ldr	r2, [sp, #8]
    2d24:	e59f3278 	ldr	r3, [pc, #632]	; 2fa4 <__ieee754_pow+0x984>
    2d28:	e1a04002 	mov	r4, r2
    2d2c:	e1a00002 	mov	r0, r2
    2d30:	e3a0220e 	mov	r2, #-536870912	; 0xe0000000
    2d34:	e1a05001 	mov	r5, r1
    2d38:	eb000b5c 	bl	5ab0 <__aeabi_dmul>
    2d3c:	e28f3f91 	add	r3, pc, #580	; 0x244
    2d40:	e893000c 	ldm	r3, {r2, r3}
    2d44:	e58d0018 	str	r0, [sp, #24]
    2d48:	e58d101c 	str	r1, [sp, #28]
    2d4c:	e1a00004 	mov	r0, r4
    2d50:	e1a01005 	mov	r1, r5
    2d54:	eb000b55 	bl	5ab0 <__aeabi_dmul>
    2d58:	e1a02008 	mov	r2, r8
    2d5c:	e58d0020 	str	r0, [sp, #32]
    2d60:	e58d1024 	str	r1, [sp, #36]	; 0x24
    2d64:	e1a03009 	mov	r3, r9
    2d68:	e1a00004 	mov	r0, r4
    2d6c:	e1a01005 	mov	r1, r5
    2d70:	eb000a49 	bl	569c <__aeabi_dsub>
    2d74:	e1a02000 	mov	r2, r0
    2d78:	e1a03001 	mov	r3, r1
    2d7c:	e1a00006 	mov	r0, r6
    2d80:	e1a01007 	mov	r1, r7
    2d84:	eb000a44 	bl	569c <__aeabi_dsub>
    2d88:	e28f3c02 	add	r3, pc, #512	; 0x200
    2d8c:	e893000c 	ldm	r3, {r2, r3}
    2d90:	eb000b46 	bl	5ab0 <__aeabi_dmul>
    2d94:	e1a02000 	mov	r2, r0
    2d98:	e1a03001 	mov	r3, r1
    2d9c:	e28d1020 	add	r1, sp, #32
    2da0:	e8910003 	ldm	r1, {r0, r1}
    2da4:	eb000a3d 	bl	56a0 <__adddf3>
    2da8:	e59d4034 	ldr	r4, [sp, #52]	; 0x34
    2dac:	e2843010 	add	r3, r4, #16
    2db0:	e893000c 	ldm	r3, {r2, r3}
    2db4:	eb000a39 	bl	56a0 <__adddf3>
    2db8:	e59dc004 	ldr	r12, [sp, #4]
    2dbc:	e1a04000 	mov	r4, r0
    2dc0:	e1a0000c 	mov	r0, r12
    2dc4:	e1a05001 	mov	r5, r1
    2dc8:	eb000b01 	bl	59d4 <__aeabi_i2d>
    2dcc:	e59de034 	ldr	lr, [sp, #52]	; 0x34
    2dd0:	e28e9020 	add	r9, lr, #32
    2dd4:	e8990300 	ldm	r9, {r8, r9}
    2dd8:	e1a06000 	mov	r6, r0
    2ddc:	e1a07001 	mov	r7, r1
    2de0:	e1a02004 	mov	r2, r4
    2de4:	e28d1018 	add	r1, sp, #24
    2de8:	e8910003 	ldm	r1, {r0, r1}
    2dec:	e1a03005 	mov	r3, r5
    2df0:	eb000a2a 	bl	56a0 <__adddf3>
    2df4:	e1a02008 	mov	r2, r8
    2df8:	e1a03009 	mov	r3, r9
    2dfc:	eb000a27 	bl	56a0 <__adddf3>
    2e00:	e1a02006 	mov	r2, r6
    2e04:	e1a03007 	mov	r3, r7
    2e08:	eb000a24 	bl	56a0 <__adddf3>
    2e0c:	e59d2008 	ldr	r2, [sp, #8]
    2e10:	e1a03007 	mov	r3, r7
    2e14:	e1a00002 	mov	r0, r2
    2e18:	e1a02006 	mov	r2, r6
    2e1c:	e58d0008 	str	r0, [sp, #8]
    2e20:	e58d100c 	str	r1, [sp, #12]
    2e24:	eb000a1c 	bl	569c <__aeabi_dsub>
    2e28:	e1a02008 	mov	r2, r8
    2e2c:	e1a03009 	mov	r3, r9
    2e30:	eb000a19 	bl	569c <__aeabi_dsub>
    2e34:	e28d3018 	add	r3, sp, #24
    2e38:	e893000c 	ldm	r3, {r2, r3}
    2e3c:	eb000a16 	bl	569c <__aeabi_dsub>
    2e40:	e1a03001 	mov	r3, r1
    2e44:	e1a02000 	mov	r2, r0
    2e48:	e1a01005 	mov	r1, r5
    2e4c:	e1a00004 	mov	r0, r4
    2e50:	eb000a11 	bl	569c <__aeabi_dsub>
    2e54:	e59d4030 	ldr	r4, [sp, #48]	; 0x30
    2e58:	e2443001 	sub	r3, r4, #1
    2e5c:	e59d4010 	ldr	r4, [sp, #16]
    2e60:	e1934004 	orrs	r4, r3, r4
    2e64:	e1a08000 	mov	r8, r0
    2e68:	e1a09001 	mov	r9, r1
    2e6c:	1a00013e 	bne	336c <__ieee754_pow+0xd4c>
    2e70:	e59f1130 	ldr	r1, [pc, #304]	; 2fa8 <__ieee754_pow+0x988>
    2e74:	e3a00000 	mov	r0, #0
    2e78:	e58d0010 	str	r0, [sp, #16]
    2e7c:	e58d1014 	str	r1, [sp, #20]
    2e80:	e3a06000 	mov	r6, #0
    2e84:	e1a02006 	mov	r2, r6
    2e88:	e1a0300b 	mov	r3, r11
    2e8c:	e1a0000a 	mov	r0, r10
    2e90:	e1a0100b 	mov	r1, r11
    2e94:	eb000a00 	bl	569c <__aeabi_dsub>
    2e98:	e28d3008 	add	r3, sp, #8
    2e9c:	e893000c 	ldm	r3, {r2, r3}
    2ea0:	eb000b02 	bl	5ab0 <__aeabi_dmul>
    2ea4:	e1a03009 	mov	r3, r9
    2ea8:	e1a04000 	mov	r4, r0
    2eac:	e1a05001 	mov	r5, r1
    2eb0:	e1a0000a 	mov	r0, r10
    2eb4:	e1a0100b 	mov	r1, r11
    2eb8:	e1a02008 	mov	r2, r8
    2ebc:	eb000afb 	bl	5ab0 <__aeabi_dmul>
    2ec0:	e1a02000 	mov	r2, r0
    2ec4:	e1a03001 	mov	r3, r1
    2ec8:	e1a00004 	mov	r0, r4
    2ecc:	e1a01005 	mov	r1, r5
    2ed0:	eb0009f2 	bl	56a0 <__adddf3>
    2ed4:	e1a0700b 	mov	r7, r11
    2ed8:	e28d3008 	add	r3, sp, #8
    2edc:	e893000c 	ldm	r3, {r2, r3}
    2ee0:	e1a0a000 	mov	r10, r0
    2ee4:	e1a0b001 	mov	r11, r1
    2ee8:	e1a00006 	mov	r0, r6
    2eec:	e1a01007 	mov	r1, r7
    2ef0:	eb000aee 	bl	5ab0 <__aeabi_dmul>
    2ef4:	e1a04000 	mov	r4, r0
    2ef8:	e1a05001 	mov	r5, r1
    2efc:	e1a0000a 	mov	r0, r10
    2f00:	e1a0100b 	mov	r1, r11
    2f04:	e1a02004 	mov	r2, r4
    2f08:	e1a03005 	mov	r3, r5
    2f0c:	eb0009e3 	bl	56a0 <__adddf3>
    2f10:	e59fc094 	ldr	r12, [pc, #148]	; 2fac <__ieee754_pow+0x98c>
    2f14:	e151000c 	cmp	r1, r12
    2f18:	e1a06000 	mov	r6, r0
    2f1c:	e1a07001 	mov	r7, r1
    2f20:	e1a09001 	mov	r9, r1
    2f24:	da0000da 	ble	3294 <__ieee754_pow+0xc74>
    2f28:	e28134bf 	add	r3, r1, #-1090519040	; 0xbf000000
    2f2c:	e2833607 	add	r3, r3, #7340032	; 0x700000
    2f30:	e1933000 	orrs	r3, r3, r0
    2f34:	1a00017b 	bne	3528 <__ieee754_pow+0xf08>
    2f38:	e28f3058 	add	r3, pc, #88	; 0x58
    2f3c:	e893000c 	ldm	r3, {r2, r3}
    2f40:	e1a0000a 	mov	r0, r10
    2f44:	e1a0100b 	mov	r1, r11
    2f48:	eb0009d4 	bl	56a0 <__adddf3>
    2f4c:	e1a02004 	mov	r2, r4
    2f50:	ea000018 	b	2fb8 <__ieee754_pow+0x998>
    2f54:	e1a00000 	nop			; (mov r0, r0)
    2f58:	4a454eef 	.word	0x4a454eef
    2f5c:	3fca7e28 	.word	0x3fca7e28
    2f60:	93c9db65 	.word	0x93c9db65
    2f64:	3fcd864a 	.word	0x3fcd864a
    2f68:	a91d4101 	.word	0xa91d4101
    2f6c:	3fd17460 	.word	0x3fd17460
    2f70:	518f264d 	.word	0x518f264d
    2f74:	3fd55555 	.word	0x3fd55555
    2f78:	db6fabff 	.word	0xdb6fabff
    2f7c:	3fdb6db6 	.word	0x3fdb6db6
    2f80:	33333303 	.word	0x33333303
    2f84:	3fe33333 	.word	0x3fe33333
    2f88:	145b01f5 	.word	0x145b01f5
    2f8c:	be3e2fe0 	.word	0xbe3e2fe0
    2f90:	dc3a03fd 	.word	0xdc3a03fd
    2f94:	3feec709 	.word	0x3feec709
    2f98:	652b82fe 	.word	0x652b82fe
    2f9c:	3c971547 	.word	0x3c971547
    2fa0:	40080000 	.word	0x40080000
    2fa4:	3feec709 	.word	0x3feec709
    2fa8:	bff00000 	.word	0xbff00000
    2fac:	408fffff 	.word	0x408fffff
    2fb0:	3fe00000 	.word	0x3fe00000
    2fb4:	3fe62e43 	.word	0x3fe62e43
    2fb8:	e58d0008 	str	r0, [sp, #8]
    2fbc:	e58d100c 	str	r1, [sp, #12]
    2fc0:	e1a03005 	mov	r3, r5
    2fc4:	e1a00006 	mov	r0, r6
    2fc8:	e1a01007 	mov	r1, r7
    2fcc:	eb0009b2 	bl	569c <__aeabi_dsub>
    2fd0:	e1a02000 	mov	r2, r0
    2fd4:	e1a03001 	mov	r3, r1
    2fd8:	e28d1008 	add	r1, sp, #8
    2fdc:	e8910003 	ldm	r1, {r0, r1}
    2fe0:	eb000c24 	bl	6078 <__aeabi_dcmpgt>
    2fe4:	e3500000 	cmp	r0, #0
    2fe8:	03c78102 	biceq	r8, r7, #-2147483648	; 0x80000000
    2fec:	1a00014d 	bne	3528 <__ieee754_pow+0xf08>
    2ff0:	e51f3048 	ldr	r3, [pc, #-72]	; 2fb0 <__ieee754_pow+0x990>
    2ff4:	e1580003 	cmp	r8, r3
    2ff8:	d3a0c000 	movle	r12, #0
    2ffc:	d58dc008 	strle	r12, [sp, #8]
    3000:	ca0000b5 	bgt	32dc <__ieee754_pow+0xcbc>
    3004:	e3a06000 	mov	r6, #0
    3008:	e1a00006 	mov	r0, r6
    300c:	e1a01007 	mov	r1, r7
    3010:	e3a02000 	mov	r2, #0
    3014:	e51f3068 	ldr	r3, [pc, #-104]	; 2fb4 <__ieee754_pow+0x994>
    3018:	e58dc004 	str	r12, [sp, #4]
    301c:	eb000aa3 	bl	5ab0 <__aeabi_dmul>
    3020:	e1a02004 	mov	r2, r4
    3024:	e1a08000 	mov	r8, r0
    3028:	e1a09001 	mov	r9, r1
    302c:	e1a03005 	mov	r3, r5
    3030:	e1a00006 	mov	r0, r6
    3034:	e1a01007 	mov	r1, r7
    3038:	eb000997 	bl	569c <__aeabi_dsub>
    303c:	e1a02000 	mov	r2, r0
    3040:	e1a03001 	mov	r3, r1
    3044:	e1a0000a 	mov	r0, r10
    3048:	e1a0100b 	mov	r1, r11
    304c:	eb000992 	bl	569c <__aeabi_dsub>
    3050:	e28f3fce 	add	r3, pc, #824	; 0x338
    3054:	e893000c 	ldm	r3, {r2, r3}
    3058:	eb000a94 	bl	5ab0 <__aeabi_dmul>
    305c:	e28f3fcd 	add	r3, pc, #820	; 0x334
    3060:	e893000c 	ldm	r3, {r2, r3}
    3064:	e1a04000 	mov	r4, r0
    3068:	e1a05001 	mov	r5, r1
    306c:	e1a00006 	mov	r0, r6
    3070:	e1a01007 	mov	r1, r7
    3074:	eb000a8d 	bl	5ab0 <__aeabi_dmul>
    3078:	e1a02000 	mov	r2, r0
    307c:	e1a03001 	mov	r3, r1
    3080:	e1a00004 	mov	r0, r4
    3084:	e1a01005 	mov	r1, r5
    3088:	eb000984 	bl	56a0 <__adddf3>
    308c:	e1a04000 	mov	r4, r0
    3090:	e1a05001 	mov	r5, r1
    3094:	e1a02004 	mov	r2, r4
    3098:	e1a03005 	mov	r3, r5
    309c:	e1a00008 	mov	r0, r8
    30a0:	e1a01009 	mov	r1, r9
    30a4:	eb00097d 	bl	56a0 <__adddf3>
    30a8:	e1a02008 	mov	r2, r8
    30ac:	e1a03009 	mov	r3, r9
    30b0:	e1a0a000 	mov	r10, r0
    30b4:	e1a0b001 	mov	r11, r1
    30b8:	eb000977 	bl	569c <__aeabi_dsub>
    30bc:	e1a02000 	mov	r2, r0
    30c0:	e1a03001 	mov	r3, r1
    30c4:	e1a00004 	mov	r0, r4
    30c8:	e1a01005 	mov	r1, r5
    30cc:	eb000972 	bl	569c <__aeabi_dsub>
    30d0:	e1a0200a 	mov	r2, r10
    30d4:	e1a08000 	mov	r8, r0
    30d8:	e1a09001 	mov	r9, r1
    30dc:	e1a0300b 	mov	r3, r11
    30e0:	e1a0000a 	mov	r0, r10
    30e4:	e1a0100b 	mov	r1, r11
    30e8:	eb000a70 	bl	5ab0 <__aeabi_dmul>
    30ec:	e28f3fab 	add	r3, pc, #684	; 0x2ac
    30f0:	e893000c 	ldm	r3, {r2, r3}
    30f4:	e1a04000 	mov	r4, r0
    30f8:	e1a05001 	mov	r5, r1
    30fc:	eb000a6b 	bl	5ab0 <__aeabi_dmul>
    3100:	e28f3e2a 	add	r3, pc, #672	; 0x2a0
    3104:	e893000c 	ldm	r3, {r2, r3}
    3108:	eb000963 	bl	569c <__aeabi_dsub>
    310c:	e1a02004 	mov	r2, r4
    3110:	e1a03005 	mov	r3, r5
    3114:	eb000a65 	bl	5ab0 <__aeabi_dmul>
    3118:	e28f3e29 	add	r3, pc, #656	; 0x290
    311c:	e893000c 	ldm	r3, {r2, r3}
    3120:	eb00095e 	bl	56a0 <__adddf3>
    3124:	e1a02004 	mov	r2, r4
    3128:	e1a03005 	mov	r3, r5
    312c:	eb000a5f 	bl	5ab0 <__aeabi_dmul>
    3130:	e28f3d0a 	add	r3, pc, #640	; 0x280
    3134:	e893000c 	ldm	r3, {r2, r3}
    3138:	eb000957 	bl	569c <__aeabi_dsub>
    313c:	e1a02004 	mov	r2, r4
    3140:	e1a03005 	mov	r3, r5
    3144:	eb000a59 	bl	5ab0 <__aeabi_dmul>
    3148:	e28f3e27 	add	r3, pc, #624	; 0x270
    314c:	e893000c 	ldm	r3, {r2, r3}
    3150:	eb000952 	bl	56a0 <__adddf3>
    3154:	e1a02004 	mov	r2, r4
    3158:	e1a03005 	mov	r3, r5
    315c:	eb000a53 	bl	5ab0 <__aeabi_dmul>
    3160:	e1a02000 	mov	r2, r0
    3164:	e1a03001 	mov	r3, r1
    3168:	e1a0000a 	mov	r0, r10
    316c:	e1a0100b 	mov	r1, r11
    3170:	eb000949 	bl	569c <__aeabi_dsub>
    3174:	e1a04000 	mov	r4, r0
    3178:	e1a05001 	mov	r5, r1
    317c:	e1a02004 	mov	r2, r4
    3180:	e1a03005 	mov	r3, r5
    3184:	e1a0000a 	mov	r0, r10
    3188:	e1a0100b 	mov	r1, r11
    318c:	eb000a47 	bl	5ab0 <__aeabi_dmul>
    3190:	e3a02000 	mov	r2, #0
    3194:	e1a06000 	mov	r6, r0
    3198:	e1a07001 	mov	r7, r1
    319c:	e1a00004 	mov	r0, r4
    31a0:	e1a01005 	mov	r1, r5
    31a4:	e3a03101 	mov	r3, #1073741824	; 0x40000000
    31a8:	eb00093b 	bl	569c <__aeabi_dsub>
    31ac:	e1a02000 	mov	r2, r0
    31b0:	e1a03001 	mov	r3, r1
    31b4:	e1a00006 	mov	r0, r6
    31b8:	e1a01007 	mov	r1, r7
    31bc:	eb000adf 	bl	5d40 <__aeabi_ddiv>
    31c0:	e1a02008 	mov	r2, r8
    31c4:	e1a04000 	mov	r4, r0
    31c8:	e1a05001 	mov	r5, r1
    31cc:	e1a03009 	mov	r3, r9
    31d0:	e1a0000a 	mov	r0, r10
    31d4:	e1a0100b 	mov	r1, r11
    31d8:	eb000a34 	bl	5ab0 <__aeabi_dmul>
    31dc:	e1a02008 	mov	r2, r8
    31e0:	e1a03009 	mov	r3, r9
    31e4:	eb00092d 	bl	56a0 <__adddf3>
    31e8:	e1a02000 	mov	r2, r0
    31ec:	e1a03001 	mov	r3, r1
    31f0:	e1a00004 	mov	r0, r4
    31f4:	e1a01005 	mov	r1, r5
    31f8:	eb000927 	bl	569c <__aeabi_dsub>
    31fc:	e1a0200a 	mov	r2, r10
    3200:	e1a0300b 	mov	r3, r11
    3204:	eb000924 	bl	569c <__aeabi_dsub>
    3208:	e1a02000 	mov	r2, r0
    320c:	e1a03001 	mov	r3, r1
    3210:	e3a00000 	mov	r0, #0
    3214:	e59f11bc 	ldr	r1, [pc, #444]	; 33d8 <__ieee754_pow+0xdb8>
    3218:	eb00091f 	bl	569c <__aeabi_dsub>
    321c:	e59dc004 	ldr	r12, [sp, #4]
    3220:	e08ce001 	add	lr, r12, r1
    3224:	e35e0601 	cmp	lr, #1048576	; 0x100000
    3228:	e1a03001 	mov	r3, r1
    322c:	e1a02000 	mov	r2, r0
    3230:	e1a04000 	mov	r4, r0
    3234:	e1a05001 	mov	r5, r1
    3238:	a1a0300e 	movge	r3, lr
    323c:	ba0000e4 	blt	35d4 <__ieee754_pow+0xfb4>
    3240:	e28d1010 	add	r1, sp, #16
    3244:	e8910003 	ldm	r1, {r0, r1}
    3248:	eb000a18 	bl	5ab0 <__aeabi_dmul>
    324c:	e1a0a000 	mov	r10, r0
    3250:	e1a0b001 	mov	r11, r1
    3254:	eafffd0b 	b	2688 <__ieee754_pow+0x68>
    3258:	e59d1020 	ldr	r1, [sp, #32]
    325c:	e3510000 	cmp	r1, #0
    3260:	bafffd34 	blt	2738 <__ieee754_pow+0x118>
    3264:	e1a00007 	mov	r0, r7
    3268:	e1a01008 	mov	r1, r8
    326c:	eb000281 	bl	3c78 <__ieee754_sqrt>
    3270:	e1a0a000 	mov	r10, r0
    3274:	e1a0b001 	mov	r11, r1
    3278:	eafffd02 	b	2688 <__ieee754_pow+0x68>
    327c:	e1a0a003 	mov	r10, r3
    3280:	e59fb150 	ldr	r11, [pc, #336]	; 33d8 <__ieee754_pow+0xdb8>
    3284:	eafffcff 	b	2688 <__ieee754_pow+0x68>
    3288:	e3540000 	cmp	r4, #0
    328c:	aafffd78 	bge	2874 <__ieee754_pow+0x254>
    3290:	eafffd49 	b	27bc <__ieee754_pow+0x19c>
    3294:	e59f312c 	ldr	r3, [pc, #300]	; 33c8 <__ieee754_pow+0xda8>
    3298:	e3c18102 	bic	r8, r1, #-2147483648	; 0x80000000
    329c:	e1580003 	cmp	r8, r3
    32a0:	daffff52 	ble	2ff0 <__ieee754_pow+0x9d0>
    32a4:	e59f3120 	ldr	r3, [pc, #288]	; 33cc <__ieee754_pow+0xdac>
    32a8:	e0813003 	add	r3, r1, r3
    32ac:	e1933000 	orrs	r3, r3, r0
    32b0:	1a0000b9 	bne	359c <__ieee754_pow+0xf7c>
    32b4:	e1a02004 	mov	r2, r4
    32b8:	e1a03005 	mov	r3, r5
    32bc:	eb0008f6 	bl	569c <__aeabi_dsub>
    32c0:	e1a02000 	mov	r2, r0
    32c4:	e1a03001 	mov	r3, r1
    32c8:	e1a0000a 	mov	r0, r10
    32cc:	e1a0100b 	mov	r1, r11
    32d0:	eb000b5c 	bl	6048 <__aeabi_dcmple>
    32d4:	e3500000 	cmp	r0, #0
    32d8:	1a0000af 	bne	359c <__ieee754_pow+0xf7c>
    32dc:	e1a03a48 	asr	r3, r8, #20
    32e0:	e2433fff 	sub	r3, r3, #1020	; 0x3fc
    32e4:	e2433002 	sub	r3, r3, #2
    32e8:	e3a01601 	mov	r1, #1048576	; 0x100000
    32ec:	e0891351 	add	r1, r9, r1, asr r3
    32f0:	e3c10102 	bic	r0, r1, #-2147483648	; 0x80000000
    32f4:	e1a00a40 	asr	r0, r0, #20
    32f8:	e240efff 	sub	lr, r0, #1020	; 0x3fc
    32fc:	e59f60cc 	ldr	r6, [pc, #204]	; 33d0 <__ieee754_pow+0xdb0>
    3300:	e24ee003 	sub	lr, lr, #3
    3304:	e1c13e56 	bic	r3, r1, r6, asr lr
    3308:	e3c114ff 	bic	r1, r1, #-16777216	; 0xff000000
    330c:	e3c1e60f 	bic	lr, r1, #15728640	; 0xf00000
    3310:	e2601e41 	rsb	r1, r0, #1040	; 0x410
    3314:	e38ee601 	orr	lr, lr, #1048576	; 0x100000
    3318:	e2811003 	add	r1, r1, #3
    331c:	e1a0115e 	asr	r1, lr, r1
    3320:	e3590000 	cmp	r9, #0
    3324:	e58d1008 	str	r1, [sp, #8]
    3328:	b2611000 	rsblt	r1, r1, #0
    332c:	b58d1008 	strlt	r1, [sp, #8]
    3330:	e3a02000 	mov	r2, #0
    3334:	e1a00004 	mov	r0, r4
    3338:	e1a01005 	mov	r1, r5
    333c:	eb0008d6 	bl	569c <__aeabi_dsub>
    3340:	e1a04000 	mov	r4, r0
    3344:	e1a05001 	mov	r5, r1
    3348:	e1a02004 	mov	r2, r4
    334c:	e1a0000a 	mov	r0, r10
    3350:	e1a0100b 	mov	r1, r11
    3354:	e1a03005 	mov	r3, r5
    3358:	eb0008d0 	bl	56a0 <__adddf3>
    335c:	e59d2008 	ldr	r2, [sp, #8]
    3360:	e1a07001 	mov	r7, r1
    3364:	e1a0ca02 	lsl	r12, r2, #20
    3368:	eaffff25 	b	3004 <__ieee754_pow+0x9e4>
    336c:	e59f2064 	ldr	r2, [pc, #100]	; 33d8 <__ieee754_pow+0xdb8>
    3370:	e3a01000 	mov	r1, #0
    3374:	e58d1010 	str	r1, [sp, #16]
    3378:	e58d2014 	str	r2, [sp, #20]
    337c:	eafffebf 	b	2e80 <__ieee754_pow+0x860>
    3380:	e3540000 	cmp	r4, #0
    3384:	b28bb102 	addlt	r11, r11, #-2147483648	; 0x80000000
    3388:	aafffd39 	bge	2874 <__ieee754_pow+0x254>
    338c:	eafffcbd 	b	2688 <__ieee754_pow+0x68>
    3390:	fefa39ef 	.word	0xfefa39ef
    3394:	3fe62e42 	.word	0x3fe62e42
    3398:	0ca86c39 	.word	0x0ca86c39
    339c:	be205c61 	.word	0xbe205c61
    33a0:	72bea4d0 	.word	0x72bea4d0
    33a4:	3e663769 	.word	0x3e663769
    33a8:	c5d26bf1 	.word	0xc5d26bf1
    33ac:	3ebbbd41 	.word	0x3ebbbd41
    33b0:	af25de2c 	.word	0xaf25de2c
    33b4:	3f11566a 	.word	0x3f11566a
    33b8:	16bebd93 	.word	0x16bebd93
    33bc:	3f66c16c 	.word	0x3f66c16c
    33c0:	5555553e 	.word	0x5555553e
    33c4:	3fc55555 	.word	0x3fc55555
    33c8:	4090cbff 	.word	0x4090cbff
    33cc:	3f6f3400 	.word	0x3f6f3400
    33d0:	000fffff 	.word	0x000fffff
    33d4:	3feffffe 	.word	0x3feffffe
    33d8:	3ff00000 	.word	0x3ff00000
    33dc:	3ff71547 	.word	0x3ff71547
    33e0:	e51f3014 	ldr	r3, [pc, #-20]	; 33d4 <__ieee754_pow+0xdb4>
    33e4:	e59d2008 	ldr	r2, [sp, #8]
    33e8:	e1520003 	cmp	r2, r3
    33ec:	daffffa5 	ble	3288 <__ieee754_pow+0xc68>
    33f0:	e51f3020 	ldr	r3, [pc, #-32]	; 33d8 <__ieee754_pow+0xdb8>
    33f4:	e59d2008 	ldr	r2, [sp, #8]
    33f8:	e1520003 	cmp	r2, r3
    33fc:	cafffcec 	bgt	27b4 <__ieee754_pow+0x194>
    3400:	e3a02000 	mov	r2, #0
    3404:	e51f3034 	ldr	r3, [pc, #-52]	; 33d8 <__ieee754_pow+0xdb8>
    3408:	eb0008a3 	bl	569c <__aeabi_dsub>
    340c:	e3a02206 	mov	r2, #1610612736	; 0x60000000
    3410:	e51f303c 	ldr	r3, [pc, #-60]	; 33dc <__ieee754_pow+0xdbc>
    3414:	e1a04000 	mov	r4, r0
    3418:	e1a05001 	mov	r5, r1
    341c:	eb0009a3 	bl	5ab0 <__aeabi_dmul>
    3420:	e28f3d07 	add	r3, pc, #448	; 0x1c0
    3424:	e893000c 	ldm	r3, {r2, r3}
    3428:	e1a06000 	mov	r6, r0
    342c:	e1a07001 	mov	r7, r1
    3430:	e1a00004 	mov	r0, r4
    3434:	e1a01005 	mov	r1, r5
    3438:	eb00099c 	bl	5ab0 <__aeabi_dmul>
    343c:	e1a02004 	mov	r2, r4
    3440:	e58d0008 	str	r0, [sp, #8]
    3444:	e58d100c 	str	r1, [sp, #12]
    3448:	e1a03005 	mov	r3, r5
    344c:	e1a00004 	mov	r0, r4
    3450:	e1a01005 	mov	r1, r5
    3454:	eb000995 	bl	5ab0 <__aeabi_dmul>
    3458:	e3a02000 	mov	r2, #0
    345c:	e1a08000 	mov	r8, r0
    3460:	e1a09001 	mov	r9, r1
    3464:	e1a00004 	mov	r0, r4
    3468:	e1a01005 	mov	r1, r5
    346c:	e59f319c 	ldr	r3, [pc, #412]	; 3610 <__ieee754_pow+0xff0>
    3470:	eb00098e 	bl	5ab0 <__aeabi_dmul>
    3474:	e1a02000 	mov	r2, r0
    3478:	e1a03001 	mov	r3, r1
    347c:	e28f1f5b 	add	r1, pc, #364	; 0x16c
    3480:	e8910003 	ldm	r1, {r0, r1}
    3484:	eb000884 	bl	569c <__aeabi_dsub>
    3488:	e1a02004 	mov	r2, r4
    348c:	e1a03005 	mov	r3, r5
    3490:	eb000986 	bl	5ab0 <__aeabi_dmul>
    3494:	e1a02000 	mov	r2, r0
    3498:	e1a03001 	mov	r3, r1
    349c:	e3a00000 	mov	r0, #0
    34a0:	e59f116c 	ldr	r1, [pc, #364]	; 3614 <__ieee754_pow+0xff4>
    34a4:	eb00087c 	bl	569c <__aeabi_dsub>
    34a8:	e1a02000 	mov	r2, r0
    34ac:	e1a03001 	mov	r3, r1
    34b0:	e1a00008 	mov	r0, r8
    34b4:	e1a01009 	mov	r1, r9
    34b8:	eb00097c 	bl	5ab0 <__aeabi_dmul>
    34bc:	e28f3f4d 	add	r3, pc, #308	; 0x134
    34c0:	e893000c 	ldm	r3, {r2, r3}
    34c4:	eb000979 	bl	5ab0 <__aeabi_dmul>
    34c8:	e1a02000 	mov	r2, r0
    34cc:	e1a03001 	mov	r3, r1
    34d0:	e28d1008 	add	r1, sp, #8
    34d4:	e8910003 	ldm	r1, {r0, r1}
    34d8:	eb00086f 	bl	569c <__aeabi_dsub>
    34dc:	e1a04000 	mov	r4, r0
    34e0:	e1a05001 	mov	r5, r1
    34e4:	e1a02004 	mov	r2, r4
    34e8:	e1a03005 	mov	r3, r5
    34ec:	e1a00006 	mov	r0, r6
    34f0:	e1a01007 	mov	r1, r7
    34f4:	eb000869 	bl	56a0 <__adddf3>
    34f8:	e3a00000 	mov	r0, #0
    34fc:	e58d0008 	str	r0, [sp, #8]
    3500:	e58d100c 	str	r1, [sp, #12]
    3504:	e1a02006 	mov	r2, r6
    3508:	e1a03007 	mov	r3, r7
    350c:	eafffe4a 	b	2e3c <__ieee754_pow+0x81c>
    3510:	e1a02000 	mov	r2, r0
    3514:	e1a03001 	mov	r3, r1
    3518:	e3a00000 	mov	r0, #0
    351c:	e59f10f4 	ldr	r1, [pc, #244]	; 3618 <__ieee754_pow+0xff8>
    3520:	eb000a06 	bl	5d40 <__aeabi_ddiv>
    3524:	eafffcd7 	b	2888 <__ieee754_pow+0x268>
    3528:	e28f30d0 	add	r3, pc, #208	; 0xd0
    352c:	e893000c 	ldm	r3, {r2, r3}
    3530:	e28d1010 	add	r1, sp, #16
    3534:	e8910003 	ldm	r1, {r0, r1}
    3538:	eb00095c 	bl	5ab0 <__aeabi_dmul>
    353c:	e28f30bc 	add	r3, pc, #188	; 0xbc
    3540:	e893000c 	ldm	r3, {r2, r3}
    3544:	eb000959 	bl	5ab0 <__aeabi_dmul>
    3548:	e1a0a000 	mov	r10, r0
    354c:	e1a0b001 	mov	r11, r1
    3550:	eafffc4c 	b	2688 <__ieee754_pow+0x68>
    3554:	e35a0000 	cmp	r10, #0
    3558:	1a00001a 	bne	35c8 <__ieee754_pow+0xfa8>
    355c:	e2633e41 	rsb	r3, r3, #1040	; 0x410
    3560:	e2832003 	add	r2, r3, #3
    3564:	e1a03256 	asr	r3, r6, r2
    3568:	e1560213 	cmp	r6, r3, lsl r2
    356c:	02033001 	andeq	r3, r3, #1
    3570:	02633002 	rsbeq	r3, r3, #2
    3574:	058d3030 	streq	r3, [sp, #48]	; 0x30
    3578:	13a03000 	movne	r3, #0
    357c:	158d3030 	strne	r3, [sp, #48]	; 0x30
    3580:	eafffc5f 	b	2704 <__ieee754_pow+0xe4>
    3584:	e59d4030 	ldr	r4, [sp, #48]	; 0x30
    3588:	e3540001 	cmp	r4, #1
    358c:	e1a0a000 	mov	r10, r0
    3590:	0281b102 	addeq	r11, r1, #-2147483648	; 0x80000000
    3594:	1afffc8e 	bne	27d4 <__ieee754_pow+0x1b4>
    3598:	eafffc3a 	b	2688 <__ieee754_pow+0x68>
    359c:	e28f3064 	add	r3, pc, #100	; 0x64
    35a0:	e893000c 	ldm	r3, {r2, r3}
    35a4:	e28d1010 	add	r1, sp, #16
    35a8:	e8910003 	ldm	r1, {r0, r1}
    35ac:	eb00093f 	bl	5ab0 <__aeabi_dmul>
    35b0:	e28f3050 	add	r3, pc, #80	; 0x50
    35b4:	e893000c 	ldm	r3, {r2, r3}
    35b8:	eb00093c 	bl	5ab0 <__aeabi_dmul>
    35bc:	e1a0a000 	mov	r10, r0
    35c0:	e1a0b001 	mov	r11, r1
    35c4:	eafffc2f 	b	2688 <__ieee754_pow+0x68>
    35c8:	e3a02000 	mov	r2, #0
    35cc:	e58d2030 	str	r2, [sp, #48]	; 0x30
    35d0:	eafffc58 	b	2738 <__ieee754_pow+0x118>
    35d4:	e59d2008 	ldr	r2, [sp, #8]
    35d8:	eb00076c 	bl	5390 <scalbn>
    35dc:	e1a02000 	mov	r2, r0
    35e0:	e1a03001 	mov	r3, r1
    35e4:	eaffff15 	b	3240 <__ieee754_pow+0xc20>
    35e8:	f85ddf44 	.word	0xf85ddf44
    35ec:	3e54ae0b 	.word	0x3e54ae0b
    35f0:	55555555 	.word	0x55555555
    35f4:	3fd55555 	.word	0x3fd55555
    35f8:	652b82fe 	.word	0x652b82fe
    35fc:	3ff71547 	.word	0x3ff71547
    3600:	8800759c 	.word	0x8800759c
    3604:	7e37e43c 	.word	0x7e37e43c
    3608:	c2f8f359 	.word	0xc2f8f359
    360c:	01a56e1f 	.word	0x01a56e1f
    3610:	3fd00000 	.word	0x3fd00000
    3614:	3fe00000 	.word	0x3fe00000
    3618:	3ff00000 	.word	0x3ff00000
    361c:	e1a00000 	nop			; (mov r0, r0)

00003620 <__ieee754_rem_pio2>:
    3620:	e92d4ff0 	push	{r4, r5, r6, r7, r8, r9, r10, r11, lr}
    3624:	e59fc3bc 	ldr	r12, [pc, #956]	; 39e8 <__ieee754_rem_pio2+0x3c8>
    3628:	e3c17102 	bic	r7, r1, #-2147483648	; 0x80000000
    362c:	e157000c 	cmp	r7, r12
    3630:	e24dd03c 	sub	sp, sp, #60	; 0x3c
    3634:	e1a04000 	mov	r4, r0
    3638:	e1a05001 	mov	r5, r1
    363c:	e1a0a000 	mov	r10, r0
    3640:	e1a0b001 	mov	r11, r1
    3644:	e1a08002 	mov	r8, r2
    3648:	da00005b 	ble	37bc <__ieee754_rem_pio2+0x19c>
    364c:	e59f2398 	ldr	r2, [pc, #920]	; 39ec <__ieee754_rem_pio2+0x3cc>
    3650:	e1570002 	cmp	r7, r2
    3654:	e1a09001 	mov	r9, r1
    3658:	ca000019 	bgt	36c4 <__ieee754_rem_pio2+0xa4>
    365c:	e3510000 	cmp	r1, #0
    3660:	e28f3fd6 	add	r3, pc, #856	; 0x358
    3664:	e893000c 	ldm	r3, {r2, r3}
    3668:	da000149 	ble	3b94 <__ieee754_rem_pio2+0x574>
    366c:	eb00080a 	bl	569c <__aeabi_dsub>
    3670:	e59f3378 	ldr	r3, [pc, #888]	; 39f0 <__ieee754_rem_pio2+0x3d0>
    3674:	e1570003 	cmp	r7, r3
    3678:	e1a0a000 	mov	r10, r0
    367c:	e1a0b001 	mov	r11, r1
    3680:	0a00005f 	beq	3804 <__ieee754_rem_pio2+0x1e4>
    3684:	e28f3fcf 	add	r3, pc, #828	; 0x33c
    3688:	e893000c 	ldm	r3, {r2, r3}
    368c:	eb000802 	bl	569c <__aeabi_dsub>
    3690:	e1a02000 	mov	r2, r0
    3694:	e1a03001 	mov	r3, r1
    3698:	e8880003 	stm	r8, {r0, r1}
    369c:	e1a0000a 	mov	r0, r10
    36a0:	e1a0100b 	mov	r1, r11
    36a4:	eb0007fc 	bl	569c <__aeabi_dsub>
    36a8:	e28f3fc6 	add	r3, pc, #792	; 0x318
    36ac:	e893000c 	ldm	r3, {r2, r3}
    36b0:	eb0007f9 	bl	569c <__aeabi_dsub>
    36b4:	e3a06001 	mov	r6, #1
    36b8:	e5880008 	str	r0, [r8, #8]
    36bc:	e588100c 	str	r1, [r8, #12]
    36c0:	ea000043 	b	37d4 <__ieee754_rem_pio2+0x1b4>
    36c4:	e59f3328 	ldr	r3, [pc, #808]	; 39f4 <__ieee754_rem_pio2+0x3d4>
    36c8:	e1570003 	cmp	r7, r3
    36cc:	da000075 	ble	38a8 <__ieee754_rem_pio2+0x288>
    36d0:	e59f3320 	ldr	r3, [pc, #800]	; 39f8 <__ieee754_rem_pio2+0x3d8>
    36d4:	e1570003 	cmp	r7, r3
    36d8:	ca000041 	bgt	37e4 <__ieee754_rem_pio2+0x1c4>
    36dc:	e1a0aa47 	asr	r10, r7, #20
    36e0:	e24aae41 	sub	r10, r10, #1040	; 0x410
    36e4:	e24aa006 	sub	r10, r10, #6
    36e8:	e0475a0a 	sub	r5, r7, r10, lsl #20
    36ec:	e1a01005 	mov	r1, r5
    36f0:	e1a04000 	mov	r4, r0
    36f4:	eb000a65 	bl	6090 <__aeabi_d2iz>
    36f8:	eb0008b5 	bl	59d4 <__aeabi_i2d>
    36fc:	e1a06000 	mov	r6, r0
    3700:	e1a07001 	mov	r7, r1
    3704:	e1a02000 	mov	r2, r0
    3708:	e1a03001 	mov	r3, r1
    370c:	e1a00004 	mov	r0, r4
    3710:	e1a01005 	mov	r1, r5
    3714:	e58d6020 	str	r6, [sp, #32]
    3718:	e58d7024 	str	r7, [sp, #36]	; 0x24
    371c:	eb0007de 	bl	569c <__aeabi_dsub>
    3720:	e3a02000 	mov	r2, #0
    3724:	e59f32d0 	ldr	r3, [pc, #720]	; 39fc <__ieee754_rem_pio2+0x3dc>
    3728:	eb0008e0 	bl	5ab0 <__aeabi_dmul>
    372c:	e1a06000 	mov	r6, r0
    3730:	e1a07001 	mov	r7, r1
    3734:	eb000a55 	bl	6090 <__aeabi_d2iz>
    3738:	eb0008a5 	bl	59d4 <__aeabi_i2d>
    373c:	e1a02000 	mov	r2, r0
    3740:	e1a03001 	mov	r3, r1
    3744:	e1a04000 	mov	r4, r0
    3748:	e1a05001 	mov	r5, r1
    374c:	e1a00006 	mov	r0, r6
    3750:	e1a01007 	mov	r1, r7
    3754:	e58d4028 	str	r4, [sp, #40]	; 0x28
    3758:	e58d502c 	str	r5, [sp, #44]	; 0x2c
    375c:	eb0007ce 	bl	569c <__aeabi_dsub>
    3760:	e3a02000 	mov	r2, #0
    3764:	e59f3290 	ldr	r3, [pc, #656]	; 39fc <__ieee754_rem_pio2+0x3dc>
    3768:	eb0008d0 	bl	5ab0 <__aeabi_dmul>
    376c:	e3a02000 	mov	r2, #0
    3770:	e3a03000 	mov	r3, #0
    3774:	e58d0030 	str	r0, [sp, #48]	; 0x30
    3778:	e58d1034 	str	r1, [sp, #52]	; 0x34
    377c:	eb000a25 	bl	6018 <__aeabi_dcmpeq>
    3780:	e3500000 	cmp	r0, #0
    3784:	03a06003 	moveq	r6, #3
    3788:	0a000032 	beq	3858 <__ieee754_rem_pio2+0x238>
    378c:	e28d7028 	add	r7, sp, #40	; 0x28
    3790:	e3a06003 	mov	r6, #3
    3794:	e1a00004 	mov	r0, r4
    3798:	e1a01005 	mov	r1, r5
    379c:	e3a02000 	mov	r2, #0
    37a0:	e3a03000 	mov	r3, #0
    37a4:	eb000a1b 	bl	6018 <__aeabi_dcmpeq>
    37a8:	e3500000 	cmp	r0, #0
    37ac:	e2466001 	sub	r6, r6, #1
    37b0:	0a000028 	beq	3858 <__ieee754_rem_pio2+0x238>
    37b4:	e9370003 	ldmdb	r7!, {r0, r1}
    37b8:	eafffff7 	b	379c <__ieee754_rem_pio2+0x17c>
    37bc:	e8820030 	stm	r2, {r4, r5}
    37c0:	e3a03000 	mov	r3, #0
    37c4:	e3a02000 	mov	r2, #0
    37c8:	e5882008 	str	r2, [r8, #8]
    37cc:	e588300c 	str	r3, [r8, #12]
    37d0:	e3a06000 	mov	r6, #0
    37d4:	e1a00006 	mov	r0, r6
    37d8:	e28dd03c 	add	sp, sp, #60	; 0x3c
    37dc:	e8bd4ff0 	pop	{r4, r5, r6, r7, r8, r9, r10, r11, lr}
    37e0:	e12fff1e 	bx	lr
    37e4:	e1a02000 	mov	r2, r0
    37e8:	e1a03001 	mov	r3, r1
    37ec:	eb0007aa 	bl	569c <__aeabi_dsub>
    37f0:	e3a06000 	mov	r6, #0
    37f4:	e5880008 	str	r0, [r8, #8]
    37f8:	e588100c 	str	r1, [r8, #12]
    37fc:	e8880003 	stm	r8, {r0, r1}
    3800:	eafffff3 	b	37d4 <__ieee754_rem_pio2+0x1b4>
    3804:	e28f3f71 	add	r3, pc, #452	; 0x1c4
    3808:	e893000c 	ldm	r3, {r2, r3}
    380c:	eb0007a2 	bl	569c <__aeabi_dsub>
    3810:	e28f3d07 	add	r3, pc, #448	; 0x1c0
    3814:	e893000c 	ldm	r3, {r2, r3}
    3818:	e1a06000 	mov	r6, r0
    381c:	e1a07001 	mov	r7, r1
    3820:	eb00079d 	bl	569c <__aeabi_dsub>
    3824:	e1a02000 	mov	r2, r0
    3828:	e1a03001 	mov	r3, r1
    382c:	e8880003 	stm	r8, {r0, r1}
    3830:	e1a00006 	mov	r0, r6
    3834:	e1a01007 	mov	r1, r7
    3838:	eb000797 	bl	569c <__aeabi_dsub>
    383c:	e28f3f65 	add	r3, pc, #404	; 0x194
    3840:	e893000c 	ldm	r3, {r2, r3}
    3844:	eb000794 	bl	569c <__aeabi_dsub>
    3848:	e3a06001 	mov	r6, #1
    384c:	e5880008 	str	r0, [r8, #8]
    3850:	e588100c 	str	r1, [r8, #12]
    3854:	eaffffde 	b	37d4 <__ieee754_rem_pio2+0x1b4>
    3858:	e3a03002 	mov	r3, #2
    385c:	e58d3000 	str	r3, [sp]
    3860:	e59f3198 	ldr	r3, [pc, #408]	; 3a00 <__ieee754_rem_pio2+0x3e0>
    3864:	e28d0020 	add	r0, sp, #32
    3868:	e58d3004 	str	r3, [sp, #4]
    386c:	e1a01008 	mov	r1, r8
    3870:	e1a03006 	mov	r3, r6
    3874:	e1a0200a 	mov	r2, r10
    3878:	eb000260 	bl	4200 <__kernel_rem_pio2>
    387c:	e3590000 	cmp	r9, #0
    3880:	e1a06000 	mov	r6, r0
    3884:	aaffffd2 	bge	37d4 <__ieee754_rem_pio2+0x1b4>
    3888:	e5982004 	ldr	r2, [r8, #4]
    388c:	e598300c 	ldr	r3, [r8, #12]
    3890:	e2822102 	add	r2, r2, #-2147483648	; 0x80000000
    3894:	e2833102 	add	r3, r3, #-2147483648	; 0x80000000
    3898:	e5882004 	str	r2, [r8, #4]
    389c:	e588300c 	str	r3, [r8, #12]
    38a0:	e2606000 	rsb	r6, r0, #0
    38a4:	eaffffca 	b	37d4 <__ieee754_rem_pio2+0x1b4>
    38a8:	eb0005c2 	bl	4fb8 <fabs>
    38ac:	e28f3f4b 	add	r3, pc, #300	; 0x12c
    38b0:	e893000c 	ldm	r3, {r2, r3}
    38b4:	e1a04000 	mov	r4, r0
    38b8:	e1a05001 	mov	r5, r1
    38bc:	eb00087b 	bl	5ab0 <__aeabi_dmul>
    38c0:	e3a02000 	mov	r2, #0
    38c4:	e59f3138 	ldr	r3, [pc, #312]	; 3a04 <__ieee754_rem_pio2+0x3e4>
    38c8:	eb000774 	bl	56a0 <__adddf3>
    38cc:	eb0009ef 	bl	6090 <__aeabi_d2iz>
    38d0:	e1a06000 	mov	r6, r0
    38d4:	eb00083e 	bl	59d4 <__aeabi_i2d>
    38d8:	e28f30e0 	add	r3, pc, #224	; 0xe0
    38dc:	e893000c 	ldm	r3, {r2, r3}
    38e0:	e58d0010 	str	r0, [sp, #16]
    38e4:	e58d1014 	str	r1, [sp, #20]
    38e8:	eb000870 	bl	5ab0 <__aeabi_dmul>
    38ec:	e1a02000 	mov	r2, r0
    38f0:	e1a03001 	mov	r3, r1
    38f4:	e1a00004 	mov	r0, r4
    38f8:	e1a01005 	mov	r1, r5
    38fc:	eb000766 	bl	569c <__aeabi_dsub>
    3900:	e28f30c0 	add	r3, pc, #192	; 0xc0
    3904:	e893000c 	ldm	r3, {r2, r3}
    3908:	e1a0a000 	mov	r10, r0
    390c:	e1a0b001 	mov	r11, r1
    3910:	e28d1010 	add	r1, sp, #16
    3914:	e8910003 	ldm	r1, {r0, r1}
    3918:	eb000864 	bl	5ab0 <__aeabi_dmul>
    391c:	e356001f 	cmp	r6, #31
    3920:	e58d0008 	str	r0, [sp, #8]
    3924:	e58d100c 	str	r1, [sp, #12]
    3928:	e1a0000a 	mov	r0, r10
    392c:	e1a0100b 	mov	r1, r11
    3930:	ca000035 	bgt	3a0c <__ieee754_rem_pio2+0x3ec>
    3934:	e59f30cc 	ldr	r3, [pc, #204]	; 3a08 <__ieee754_rem_pio2+0x3e8>
    3938:	e2462001 	sub	r2, r6, #1
    393c:	e7933102 	ldr	r3, [r3, r2, lsl #2]
    3940:	e1530007 	cmp	r3, r7
    3944:	0a000030 	beq	3a0c <__ieee754_rem_pio2+0x3ec>
    3948:	e28d3008 	add	r3, sp, #8
    394c:	e893000c 	ldm	r3, {r2, r3}
    3950:	eb000751 	bl	569c <__aeabi_dsub>
    3954:	e1a02000 	mov	r2, r0
    3958:	e1a03001 	mov	r3, r1
    395c:	e888000c 	stm	r8, {r2, r3}
    3960:	e1a05000 	mov	r5, r0
    3964:	e1a04001 	mov	r4, r1
    3968:	e1a02005 	mov	r2, r5
    396c:	e1a03004 	mov	r3, r4
    3970:	e1a0000a 	mov	r0, r10
    3974:	e1a0100b 	mov	r1, r11
    3978:	eb000747 	bl	569c <__aeabi_dsub>
    397c:	e28d3008 	add	r3, sp, #8
    3980:	e893000c 	ldm	r3, {r2, r3}
    3984:	eb000744 	bl	569c <__aeabi_dsub>
    3988:	e3590000 	cmp	r9, #0
    398c:	e1a02000 	mov	r2, r0
    3990:	e1a03001 	mov	r3, r1
    3994:	e5882008 	str	r2, [r8, #8]
    3998:	e588300c 	str	r3, [r8, #12]
    399c:	aaffff8c 	bge	37d4 <__ieee754_rem_pio2+0x1b4>
    39a0:	e2844102 	add	r4, r4, #-2147483648	; 0x80000000
    39a4:	e2811102 	add	r1, r1, #-2147483648	; 0x80000000
    39a8:	e5885000 	str	r5, [r8]
    39ac:	e5884004 	str	r4, [r8, #4]
    39b0:	e5880008 	str	r0, [r8, #8]
    39b4:	e588100c 	str	r1, [r8, #12]
    39b8:	e2666000 	rsb	r6, r6, #0
    39bc:	eaffff84 	b	37d4 <__ieee754_rem_pio2+0x1b4>
    39c0:	54400000 	.word	0x54400000
    39c4:	3ff921fb 	.word	0x3ff921fb
    39c8:	1a626331 	.word	0x1a626331
    39cc:	3dd0b461 	.word	0x3dd0b461
    39d0:	1a600000 	.word	0x1a600000
    39d4:	3dd0b461 	.word	0x3dd0b461
    39d8:	2e037073 	.word	0x2e037073
    39dc:	3ba3198a 	.word	0x3ba3198a
    39e0:	6dc9c883 	.word	0x6dc9c883
    39e4:	3fe45f30 	.word	0x3fe45f30
    39e8:	3fe921fb 	.word	0x3fe921fb
    39ec:	4002d97b 	.word	0x4002d97b
    39f0:	3ff921fb 	.word	0x3ff921fb
    39f4:	413921fb 	.word	0x413921fb
    39f8:	7fefffff 	.word	0x7fefffff
    39fc:	41700000 	.word	0x41700000
    3a00:	00006dd4 	.word	0x00006dd4
    3a04:	3fe00000 	.word	0x3fe00000
    3a08:	00006d54 	.word	0x00006d54
    3a0c:	e28d3008 	add	r3, sp, #8
    3a10:	e893000c 	ldm	r3, {r2, r3}
    3a14:	eb000720 	bl	569c <__aeabi_dsub>
    3a18:	e1a07a47 	asr	r7, r7, #20
    3a1c:	e1a04001 	mov	r4, r1
    3a20:	e1a01081 	lsl	r1, r1, #1
    3a24:	e1a05000 	mov	r5, r0
    3a28:	e0471aa1 	sub	r1, r7, r1, lsr #21
    3a2c:	e1a02005 	mov	r2, r5
    3a30:	e1a03004 	mov	r3, r4
    3a34:	e3510010 	cmp	r1, #16
    3a38:	e888000c 	stm	r8, {r2, r3}
    3a3c:	daffffc9 	ble	3968 <__ieee754_rem_pio2+0x348>
    3a40:	e28f3f82 	add	r3, pc, #520	; 0x208
    3a44:	e893000c 	ldm	r3, {r2, r3}
    3a48:	e28d1010 	add	r1, sp, #16
    3a4c:	e8910003 	ldm	r1, {r0, r1}
    3a50:	eb000816 	bl	5ab0 <__aeabi_dmul>
    3a54:	e1a04000 	mov	r4, r0
    3a58:	e1a05001 	mov	r5, r1
    3a5c:	e1a02004 	mov	r2, r4
    3a60:	e1a03005 	mov	r3, r5
    3a64:	e1a0000a 	mov	r0, r10
    3a68:	e1a0100b 	mov	r1, r11
    3a6c:	eb00070a 	bl	569c <__aeabi_dsub>
    3a70:	e58d0018 	str	r0, [sp, #24]
    3a74:	e58d101c 	str	r1, [sp, #28]
    3a78:	e28d3018 	add	r3, sp, #24
    3a7c:	e893000c 	ldm	r3, {r2, r3}
    3a80:	e1a0000a 	mov	r0, r10
    3a84:	e1a0100b 	mov	r1, r11
    3a88:	eb000703 	bl	569c <__aeabi_dsub>
    3a8c:	e1a02004 	mov	r2, r4
    3a90:	e1a03005 	mov	r3, r5
    3a94:	eb000700 	bl	569c <__aeabi_dsub>
    3a98:	e28f3f6e 	add	r3, pc, #440	; 0x1b8
    3a9c:	e893000c 	ldm	r3, {r2, r3}
    3aa0:	e1a04000 	mov	r4, r0
    3aa4:	e1a05001 	mov	r5, r1
    3aa8:	e28d1010 	add	r1, sp, #16
    3aac:	e8910003 	ldm	r1, {r0, r1}
    3ab0:	eb0007fe 	bl	5ab0 <__aeabi_dmul>
    3ab4:	e1a02004 	mov	r2, r4
    3ab8:	e1a03005 	mov	r3, r5
    3abc:	eb0006f6 	bl	569c <__aeabi_dsub>
    3ac0:	e58d0008 	str	r0, [sp, #8]
    3ac4:	e58d100c 	str	r1, [sp, #12]
    3ac8:	e28d3008 	add	r3, sp, #8
    3acc:	e893000c 	ldm	r3, {r2, r3}
    3ad0:	e28d1018 	add	r1, sp, #24
    3ad4:	e8910003 	ldm	r1, {r0, r1}
    3ad8:	eb0006ef 	bl	569c <__aeabi_dsub>
    3adc:	e1a04001 	mov	r4, r1
    3ae0:	e1a01081 	lsl	r1, r1, #1
    3ae4:	e1a05000 	mov	r5, r0
    3ae8:	e0477aa1 	sub	r7, r7, r1, lsr #21
    3aec:	e1a02005 	mov	r2, r5
    3af0:	e1a03004 	mov	r3, r4
    3af4:	e3570031 	cmp	r7, #49	; 0x31
    3af8:	e888000c 	stm	r8, {r2, r3}
    3afc:	da00004f 	ble	3c40 <__ieee754_rem_pio2+0x620>
    3b00:	e3a0242e 	mov	r2, #771751936	; 0x2e000000
    3b04:	e59f3164 	ldr	r3, [pc, #356]	; 3c70 <__ieee754_rem_pio2+0x650>
    3b08:	e28d1010 	add	r1, sp, #16
    3b0c:	e8910003 	ldm	r1, {r0, r1}
    3b10:	eb0007e6 	bl	5ab0 <__aeabi_dmul>
    3b14:	e1a04000 	mov	r4, r0
    3b18:	e1a05001 	mov	r5, r1
    3b1c:	e1a02004 	mov	r2, r4
    3b20:	e1a03005 	mov	r3, r5
    3b24:	e28d1018 	add	r1, sp, #24
    3b28:	e8910003 	ldm	r1, {r0, r1}
    3b2c:	eb0006da 	bl	569c <__aeabi_dsub>
    3b30:	e1a0a000 	mov	r10, r0
    3b34:	e1a0b001 	mov	r11, r1
    3b38:	e1a0200a 	mov	r2, r10
    3b3c:	e1a0300b 	mov	r3, r11
    3b40:	e28d1018 	add	r1, sp, #24
    3b44:	e8910003 	ldm	r1, {r0, r1}
    3b48:	eb0006d3 	bl	569c <__aeabi_dsub>
    3b4c:	e1a02004 	mov	r2, r4
    3b50:	e1a03005 	mov	r3, r5
    3b54:	eb0006d0 	bl	569c <__aeabi_dsub>
    3b58:	e28f3c01 	add	r3, pc, #256	; 0x100
    3b5c:	e893000c 	ldm	r3, {r2, r3}
    3b60:	e1a04000 	mov	r4, r0
    3b64:	e1a05001 	mov	r5, r1
    3b68:	e28d1010 	add	r1, sp, #16
    3b6c:	e8910003 	ldm	r1, {r0, r1}
    3b70:	eb0007ce 	bl	5ab0 <__aeabi_dmul>
    3b74:	e1a02004 	mov	r2, r4
    3b78:	e1a03005 	mov	r3, r5
    3b7c:	eb0006c6 	bl	569c <__aeabi_dsub>
    3b80:	e58d0008 	str	r0, [sp, #8]
    3b84:	e58d100c 	str	r1, [sp, #12]
    3b88:	e1a0000a 	mov	r0, r10
    3b8c:	e1a0100b 	mov	r1, r11
    3b90:	eaffff6c 	b	3948 <__ieee754_rem_pio2+0x328>
    3b94:	eb0006c1 	bl	56a0 <__adddf3>
    3b98:	e59f30d4 	ldr	r3, [pc, #212]	; 3c74 <__ieee754_rem_pio2+0x654>
    3b9c:	e1570003 	cmp	r7, r3
    3ba0:	e1a0a000 	mov	r10, r0
    3ba4:	e1a0b001 	mov	r11, r1
    3ba8:	0a00000f 	beq	3bec <__ieee754_rem_pio2+0x5cc>
    3bac:	e28f30b4 	add	r3, pc, #180	; 0xb4
    3bb0:	e893000c 	ldm	r3, {r2, r3}
    3bb4:	eb0006b9 	bl	56a0 <__adddf3>
    3bb8:	e1a02000 	mov	r2, r0
    3bbc:	e1a03001 	mov	r3, r1
    3bc0:	e8880003 	stm	r8, {r0, r1}
    3bc4:	e1a0000a 	mov	r0, r10
    3bc8:	e1a0100b 	mov	r1, r11
    3bcc:	eb0006b2 	bl	569c <__aeabi_dsub>
    3bd0:	e28f3090 	add	r3, pc, #144	; 0x90
    3bd4:	e893000c 	ldm	r3, {r2, r3}
    3bd8:	eb0006b0 	bl	56a0 <__adddf3>
    3bdc:	e3e06000 	mvn	r6, #0
    3be0:	e5880008 	str	r0, [r8, #8]
    3be4:	e588100c 	str	r1, [r8, #12]
    3be8:	eafffef9 	b	37d4 <__ieee754_rem_pio2+0x1b4>
    3bec:	e28f305c 	add	r3, pc, #92	; 0x5c
    3bf0:	e893000c 	ldm	r3, {r2, r3}
    3bf4:	eb0006a9 	bl	56a0 <__adddf3>
    3bf8:	e28f3058 	add	r3, pc, #88	; 0x58
    3bfc:	e893000c 	ldm	r3, {r2, r3}
    3c00:	e1a06000 	mov	r6, r0
    3c04:	e1a07001 	mov	r7, r1
    3c08:	eb0006a4 	bl	56a0 <__adddf3>
    3c0c:	e1a02000 	mov	r2, r0
    3c10:	e1a03001 	mov	r3, r1
    3c14:	e8880003 	stm	r8, {r0, r1}
    3c18:	e1a00006 	mov	r0, r6
    3c1c:	e1a01007 	mov	r1, r7
    3c20:	eb00069d 	bl	569c <__aeabi_dsub>
    3c24:	e28f302c 	add	r3, pc, #44	; 0x2c
    3c28:	e893000c 	ldm	r3, {r2, r3}
    3c2c:	eb00069b 	bl	56a0 <__adddf3>
    3c30:	e3e06000 	mvn	r6, #0
    3c34:	e5880008 	str	r0, [r8, #8]
    3c38:	e588100c 	str	r1, [r8, #12]
    3c3c:	eafffee4 	b	37d4 <__ieee754_rem_pio2+0x1b4>
    3c40:	e28db018 	add	r11, sp, #24
    3c44:	e89b0c00 	ldm	r11, {r10, r11}
    3c48:	eaffff46 	b	3968 <__ieee754_rem_pio2+0x348>
    3c4c:	e1a00000 	nop			; (mov r0, r0)
    3c50:	1a600000 	.word	0x1a600000
    3c54:	3dd0b461 	.word	0x3dd0b461
    3c58:	2e037073 	.word	0x2e037073
    3c5c:	3ba3198a 	.word	0x3ba3198a
    3c60:	252049c1 	.word	0x252049c1
    3c64:	397b839a 	.word	0x397b839a
    3c68:	1a626331 	.word	0x1a626331
    3c6c:	3dd0b461 	.word	0x3dd0b461
    3c70:	3ba3198a 	.word	0x3ba3198a
    3c74:	3ff921fb 	.word	0x3ff921fb

00003c78 <__ieee754_sqrt>:
    3c78:	e59fc230 	ldr	r12, [pc, #560]	; 3eb0 <__ieee754_sqrt+0x238>
    3c7c:	e92d45f8 	push	{r3, r4, r5, r6, r7, r8, r10, lr}
    3c80:	e59f7228 	ldr	r7, [pc, #552]	; 3eb0 <__ieee754_sqrt+0x238>
    3c84:	e001c00c 	and	r12, r1, r12
    3c88:	e15c0007 	cmp	r12, r7
    3c8c:	e1a04000 	mov	r4, r0
    3c90:	e1a05001 	mov	r5, r1
    3c94:	e1a02000 	mov	r2, r0
    3c98:	e1a03001 	mov	r3, r1
    3c9c:	e1a06001 	mov	r6, r1
    3ca0:	e1a0c001 	mov	r12, r1
    3ca4:	e1a08000 	mov	r8, r0
    3ca8:	0a00006a 	beq	3e58 <__ieee754_sqrt+0x1e0>
    3cac:	e3510000 	cmp	r1, #0
    3cb0:	da000051 	ble	3dfc <__ieee754_sqrt+0x184>
    3cb4:	e1b02a41 	asrs	r2, r1, #20
    3cb8:	0a00005a 	beq	3e28 <__ieee754_sqrt+0x1b0>
    3cbc:	e3cc34ff 	bic	r3, r12, #-16777216	; 0xff000000
    3cc0:	e3120001 	tst	r2, #1
    3cc4:	e3c3360f 	bic	r3, r3, #15728640	; 0xf00000
    3cc8:	e2426fff 	sub	r6, r2, #1020	; 0x3fc
    3ccc:	e3833601 	orr	r3, r3, #1048576	; 0x100000
    3cd0:	01a02fa8 	lsreq	r2, r8, #31
    3cd4:	01a08088 	lsleq	r8, r8, #1
    3cd8:	00823083 	addeq	r3, r2, r3, lsl #1
    3cdc:	e2466003 	sub	r6, r6, #3
    3ce0:	e1a02fa8 	lsr	r2, r8, #31
    3ce4:	e3a07000 	mov	r7, #0
    3ce8:	e0823083 	add	r3, r2, r3, lsl #1
    3cec:	e1a060c6 	asr	r6, r6, #1
    3cf0:	e1a02088 	lsl	r2, r8, #1
    3cf4:	e3a0c016 	mov	r12, #22
    3cf8:	e1a00007 	mov	r0, r7
    3cfc:	e3a01602 	mov	r1, #2097152	; 0x200000
    3d00:	e0804001 	add	r4, r0, r1
    3d04:	e1540003 	cmp	r4, r3
    3d08:	e1a05fa2 	lsr	r5, r2, #31
    3d0c:	d0840001 	addle	r0, r4, r1
    3d10:	d0643003 	rsble	r3, r4, r3
    3d14:	d0877001 	addle	r7, r7, r1
    3d18:	e25cc001 	subs	r12, r12, #1
    3d1c:	e0853083 	add	r3, r5, r3, lsl #1
    3d20:	e1a02082 	lsl	r2, r2, #1
    3d24:	e1a010a1 	lsr	r1, r1, #1
    3d28:	1afffff4 	bne	3d00 <__ieee754_sqrt+0x88>
    3d2c:	e3a05020 	mov	r5, #32
    3d30:	e1a0800c 	mov	r8, r12
    3d34:	e3a01102 	mov	r1, #-2147483648	; 0x80000000
    3d38:	ea00000c 	b	3d70 <__ieee754_sqrt+0xf8>
    3d3c:	e1a0a000 	mov	r10, r0
    3d40:	e1540002 	cmp	r4, r2
    3d44:	e0603003 	rsb	r3, r0, r3
    3d48:	82433001 	subhi	r3, r3, #1
    3d4c:	e0642002 	rsb	r2, r4, r2
    3d50:	e08cc001 	add	r12, r12, r1
    3d54:	e1a0000a 	mov	r0, r10
    3d58:	e1a04fa2 	lsr	r4, r2, #31
    3d5c:	e2555001 	subs	r5, r5, #1
    3d60:	e0843083 	add	r3, r4, r3, lsl #1
    3d64:	e1a02082 	lsl	r2, r2, #1
    3d68:	e1a010a1 	lsr	r1, r1, #1
    3d6c:	0a00000d 	beq	3da8 <__ieee754_sqrt+0x130>
    3d70:	e1500003 	cmp	r0, r3
    3d74:	e0814008 	add	r4, r1, r8
    3d78:	ba000002 	blt	3d88 <__ieee754_sqrt+0x110>
    3d7c:	e1540002 	cmp	r4, r2
    3d80:	91530000 	cmpls	r3, r0
    3d84:	1afffff3 	bne	3d58 <__ieee754_sqrt+0xe0>
    3d88:	e2048102 	and	r8, r4, #-2147483648	; 0x80000000
    3d8c:	e3580102 	cmp	r8, #-2147483648	; 0x80000000
    3d90:	e0848001 	add	r8, r4, r1
    3d94:	1affffe8 	bne	3d3c <__ieee754_sqrt+0xc4>
    3d98:	e3580000 	cmp	r8, #0
    3d9c:	a280a001 	addge	r10, r0, #1
    3da0:	aaffffe6 	bge	3d40 <__ieee754_sqrt+0xc8>
    3da4:	eaffffe4 	b	3d3c <__ieee754_sqrt+0xc4>
    3da8:	e1923003 	orrs	r3, r2, r3
    3dac:	1a00000b 	bne	3de0 <__ieee754_sqrt+0x168>
    3db0:	e1a0c0ac 	lsr	r12, r12, #1
    3db4:	e1a030c7 	asr	r3, r7, #1
    3db8:	e28335ff 	add	r3, r3, #1069547520	; 0x3fc00000
    3dbc:	e3170001 	tst	r7, #1
    3dc0:	e2833602 	add	r3, r3, #2097152	; 0x200000
    3dc4:	138cc102 	orrne	r12, r12, #-2147483648	; 0x80000000
    3dc8:	e0835a06 	add	r5, r3, r6, lsl #20
    3dcc:	e1a0400c 	mov	r4, r12
    3dd0:	e1a00004 	mov	r0, r4
    3dd4:	e1a01005 	mov	r1, r5
    3dd8:	e8bd45f8 	pop	{r3, r4, r5, r6, r7, r8, r10, lr}
    3ddc:	e12fff1e 	bx	lr
    3de0:	e37c0001 	cmn	r12, #1
    3de4:	02877001 	addeq	r7, r7, #1
    3de8:	01a0c005 	moveq	r12, r5
    3dec:	0afffff0 	beq	3db4 <__ieee754_sqrt+0x13c>
    3df0:	e20c3001 	and	r3, r12, #1
    3df4:	e083c00c 	add	r12, r3, r12
    3df8:	eaffffec 	b	3db0 <__ieee754_sqrt+0x138>
    3dfc:	e3c1c102 	bic	r12, r1, #-2147483648	; 0x80000000
    3e00:	e19cc000 	orrs	r12, r12, r0
    3e04:	0afffff1 	beq	3dd0 <__ieee754_sqrt+0x158>
    3e08:	e3510000 	cmp	r1, #0
    3e0c:	01a02001 	moveq	r2, r1
    3e10:	1a00001d 	bne	3e8c <__ieee754_sqrt+0x214>
    3e14:	e1a0c5a8 	lsr	r12, r8, #11
    3e18:	e35c0000 	cmp	r12, #0
    3e1c:	e2422015 	sub	r2, r2, #21
    3e20:	e1a08a88 	lsl	r8, r8, #21
    3e24:	0afffffa 	beq	3e14 <__ieee754_sqrt+0x19c>
    3e28:	e21c3601 	ands	r3, r12, #1048576	; 0x100000
    3e2c:	1a000012 	bne	3e7c <__ieee754_sqrt+0x204>
    3e30:	e1a0c08c 	lsl	r12, r12, #1
    3e34:	e31c0601 	tst	r12, #1048576	; 0x100000
    3e38:	e2833001 	add	r3, r3, #1
    3e3c:	0afffffb 	beq	3e30 <__ieee754_sqrt+0x1b8>
    3e40:	e2631001 	rsb	r1, r3, #1
    3e44:	e2630020 	rsb	r0, r3, #32
    3e48:	e18cc038 	orr	r12, r12, r8, lsr r0
    3e4c:	e0822001 	add	r2, r2, r1
    3e50:	e1a08318 	lsl	r8, r8, r3
    3e54:	eaffff98 	b	3cbc <__ieee754_sqrt+0x44>
    3e58:	eb000714 	bl	5ab0 <__aeabi_dmul>
    3e5c:	e1a02000 	mov	r2, r0
    3e60:	e1a03001 	mov	r3, r1
    3e64:	e1a00004 	mov	r0, r4
    3e68:	e1a01005 	mov	r1, r5
    3e6c:	eb00060b 	bl	56a0 <__adddf3>
    3e70:	e1a04000 	mov	r4, r0
    3e74:	e1a05001 	mov	r5, r1
    3e78:	eaffffd4 	b	3dd0 <__ieee754_sqrt+0x158>
    3e7c:	e3a00020 	mov	r0, #32
    3e80:	e3a01001 	mov	r1, #1
    3e84:	e3a03000 	mov	r3, #0
    3e88:	eaffffee 	b	3e48 <__ieee754_sqrt+0x1d0>
    3e8c:	e1a02000 	mov	r2, r0
    3e90:	e1a03001 	mov	r3, r1
    3e94:	eb000600 	bl	569c <__aeabi_dsub>
    3e98:	e1a02000 	mov	r2, r0
    3e9c:	e1a03001 	mov	r3, r1
    3ea0:	eb0007a6 	bl	5d40 <__aeabi_ddiv>
    3ea4:	e1a04000 	mov	r4, r0
    3ea8:	e1a05001 	mov	r5, r1
    3eac:	eaffffc7 	b	3dd0 <__ieee754_sqrt+0x158>
    3eb0:	7ff00000 	.word	0x7ff00000
    3eb4:	00000000 	.word	0x00000000

00003eb8 <__kernel_cos>:
    3eb8:	e92d4ff0 	push	{r4, r5, r6, r7, r8, r9, r10, r11, lr}
    3ebc:	e3c19102 	bic	r9, r1, #-2147483648	; 0x80000000
    3ec0:	e35905f9 	cmp	r9, #1044381696	; 0x3e400000
    3ec4:	e24dd014 	sub	sp, sp, #20
    3ec8:	e1a06000 	mov	r6, r0
    3ecc:	e1a07001 	mov	r7, r1
    3ed0:	e1a04000 	mov	r4, r0
    3ed4:	e1a05001 	mov	r5, r1
    3ed8:	e1a0a002 	mov	r10, r2
    3edc:	e1a0b003 	mov	r11, r3
    3ee0:	aa00004d 	bge	401c <__kernel_cos+0x164>
    3ee4:	eb000869 	bl	6090 <__aeabi_d2iz>
    3ee8:	e3500000 	cmp	r0, #0
    3eec:	0a0000ae 	beq	41ac <__kernel_cos+0x2f4>
    3ef0:	e1a02006 	mov	r2, r6
    3ef4:	e1a03007 	mov	r3, r7
    3ef8:	e1a00006 	mov	r0, r6
    3efc:	e1a01007 	mov	r1, r7
    3f00:	eb0006ea 	bl	5ab0 <__aeabi_dmul>
    3f04:	e28f3fab 	add	r3, pc, #684	; 0x2ac
    3f08:	e893000c 	ldm	r3, {r2, r3}
    3f0c:	e1a04000 	mov	r4, r0
    3f10:	e1a05001 	mov	r5, r1
    3f14:	eb0006e5 	bl	5ab0 <__aeabi_dmul>
    3f18:	e28f3e2a 	add	r3, pc, #672	; 0x2a0
    3f1c:	e893000c 	ldm	r3, {r2, r3}
    3f20:	eb0005de 	bl	56a0 <__adddf3>
    3f24:	e1a02004 	mov	r2, r4
    3f28:	e1a03005 	mov	r3, r5
    3f2c:	eb0006df 	bl	5ab0 <__aeabi_dmul>
    3f30:	e28f3e29 	add	r3, pc, #656	; 0x290
    3f34:	e893000c 	ldm	r3, {r2, r3}
    3f38:	eb0005d7 	bl	569c <__aeabi_dsub>
    3f3c:	e1a02004 	mov	r2, r4
    3f40:	e1a03005 	mov	r3, r5
    3f44:	eb0006d9 	bl	5ab0 <__aeabi_dmul>
    3f48:	e28f3d0a 	add	r3, pc, #640	; 0x280
    3f4c:	e893000c 	ldm	r3, {r2, r3}
    3f50:	eb0005d2 	bl	56a0 <__adddf3>
    3f54:	e1a02004 	mov	r2, r4
    3f58:	e1a03005 	mov	r3, r5
    3f5c:	eb0006d3 	bl	5ab0 <__aeabi_dmul>
    3f60:	e28f3e27 	add	r3, pc, #624	; 0x270
    3f64:	e893000c 	ldm	r3, {r2, r3}
    3f68:	eb0005cb 	bl	569c <__aeabi_dsub>
    3f6c:	e1a02004 	mov	r2, r4
    3f70:	e1a03005 	mov	r3, r5
    3f74:	eb0006cd 	bl	5ab0 <__aeabi_dmul>
    3f78:	e28f3e26 	add	r3, pc, #608	; 0x260
    3f7c:	e893000c 	ldm	r3, {r2, r3}
    3f80:	eb0005c6 	bl	56a0 <__adddf3>
    3f84:	e1a02004 	mov	r2, r4
    3f88:	e1a03005 	mov	r3, r5
    3f8c:	eb0006c7 	bl	5ab0 <__aeabi_dmul>
    3f90:	e88d0003 	stm	sp, {r0, r1}
    3f94:	e1a00004 	mov	r0, r4
    3f98:	e1a01005 	mov	r1, r5
    3f9c:	e3a02000 	mov	r2, #0
    3fa0:	e59f3240 	ldr	r3, [pc, #576]	; 41e8 <__kernel_cos+0x330>
    3fa4:	eb0006c1 	bl	5ab0 <__aeabi_dmul>
    3fa8:	e89d000c 	ldm	sp, {r2, r3}
    3fac:	e1a08000 	mov	r8, r0
    3fb0:	e1a09001 	mov	r9, r1
    3fb4:	e1a00004 	mov	r0, r4
    3fb8:	e1a01005 	mov	r1, r5
    3fbc:	eb0006bb 	bl	5ab0 <__aeabi_dmul>
    3fc0:	e1a0200a 	mov	r2, r10
    3fc4:	e1a04000 	mov	r4, r0
    3fc8:	e1a05001 	mov	r5, r1
    3fcc:	e1a0300b 	mov	r3, r11
    3fd0:	e1a00006 	mov	r0, r6
    3fd4:	e1a01007 	mov	r1, r7
    3fd8:	eb0006b4 	bl	5ab0 <__aeabi_dmul>
    3fdc:	e1a02000 	mov	r2, r0
    3fe0:	e1a03001 	mov	r3, r1
    3fe4:	e1a00004 	mov	r0, r4
    3fe8:	e1a01005 	mov	r1, r5
    3fec:	eb0005aa 	bl	569c <__aeabi_dsub>
    3ff0:	e1a02000 	mov	r2, r0
    3ff4:	e1a03001 	mov	r3, r1
    3ff8:	e1a00008 	mov	r0, r8
    3ffc:	e1a01009 	mov	r1, r9
    4000:	eb0005a5 	bl	569c <__aeabi_dsub>
    4004:	e1a02000 	mov	r2, r0
    4008:	e1a03001 	mov	r3, r1
    400c:	e3a00000 	mov	r0, #0
    4010:	e59f11d4 	ldr	r1, [pc, #468]	; 41ec <__kernel_cos+0x334>
    4014:	eb0005a0 	bl	569c <__aeabi_dsub>
    4018:	ea00005a 	b	4188 <__kernel_cos+0x2d0>
    401c:	e1a02000 	mov	r2, r0
    4020:	e1a03001 	mov	r3, r1
    4024:	eb0006a1 	bl	5ab0 <__aeabi_dmul>
    4028:	e28f3f62 	add	r3, pc, #392	; 0x188
    402c:	e893000c 	ldm	r3, {r2, r3}
    4030:	e1a04000 	mov	r4, r0
    4034:	e1a05001 	mov	r5, r1
    4038:	eb00069c 	bl	5ab0 <__aeabi_dmul>
    403c:	e28f3f5f 	add	r3, pc, #380	; 0x17c
    4040:	e893000c 	ldm	r3, {r2, r3}
    4044:	eb000595 	bl	56a0 <__adddf3>
    4048:	e1a02004 	mov	r2, r4
    404c:	e1a03005 	mov	r3, r5
    4050:	eb000696 	bl	5ab0 <__aeabi_dmul>
    4054:	e28f3f5b 	add	r3, pc, #364	; 0x16c
    4058:	e893000c 	ldm	r3, {r2, r3}
    405c:	eb00058e 	bl	569c <__aeabi_dsub>
    4060:	e1a02004 	mov	r2, r4
    4064:	e1a03005 	mov	r3, r5
    4068:	eb000690 	bl	5ab0 <__aeabi_dmul>
    406c:	e28f3f57 	add	r3, pc, #348	; 0x15c
    4070:	e893000c 	ldm	r3, {r2, r3}
    4074:	eb000589 	bl	56a0 <__adddf3>
    4078:	e1a02004 	mov	r2, r4
    407c:	e1a03005 	mov	r3, r5
    4080:	eb00068a 	bl	5ab0 <__aeabi_dmul>
    4084:	e28f3f53 	add	r3, pc, #332	; 0x14c
    4088:	e893000c 	ldm	r3, {r2, r3}
    408c:	eb000582 	bl	569c <__aeabi_dsub>
    4090:	e1a02004 	mov	r2, r4
    4094:	e1a03005 	mov	r3, r5
    4098:	eb000684 	bl	5ab0 <__aeabi_dmul>
    409c:	e28f3f4f 	add	r3, pc, #316	; 0x13c
    40a0:	e893000c 	ldm	r3, {r2, r3}
    40a4:	eb00057d 	bl	56a0 <__adddf3>
    40a8:	e1a03005 	mov	r3, r5
    40ac:	e1a02004 	mov	r2, r4
    40b0:	eb00067e 	bl	5ab0 <__aeabi_dmul>
    40b4:	e59f3134 	ldr	r3, [pc, #308]	; 41f0 <__kernel_cos+0x338>
    40b8:	e1590003 	cmp	r9, r3
    40bc:	e88d0003 	stm	sp, {r0, r1}
    40c0:	daffffb3 	ble	3f94 <__kernel_cos+0xdc>
    40c4:	e59f3128 	ldr	r3, [pc, #296]	; 41f4 <__kernel_cos+0x33c>
    40c8:	e1590003 	cmp	r9, r3
    40cc:	e3a02000 	mov	r2, #0
    40d0:	ca00002f 	bgt	4194 <__kernel_cos+0x2dc>
    40d4:	e2493602 	sub	r3, r9, #2097152	; 0x200000
    40d8:	e3a02000 	mov	r2, #0
    40dc:	e3a00000 	mov	r0, #0
    40e0:	e59f1104 	ldr	r1, [pc, #260]	; 41ec <__kernel_cos+0x334>
    40e4:	e1a08002 	mov	r8, r2
    40e8:	e1a09003 	mov	r9, r3
    40ec:	eb00056a 	bl	569c <__aeabi_dsub>
    40f0:	e58d0008 	str	r0, [sp, #8]
    40f4:	e58d100c 	str	r1, [sp, #12]
    40f8:	e1a00004 	mov	r0, r4
    40fc:	e1a01005 	mov	r1, r5
    4100:	e3a02000 	mov	r2, #0
    4104:	e59f30dc 	ldr	r3, [pc, #220]	; 41e8 <__kernel_cos+0x330>
    4108:	eb000668 	bl	5ab0 <__aeabi_dmul>
    410c:	e1a02008 	mov	r2, r8
    4110:	e1a03009 	mov	r3, r9
    4114:	eb000560 	bl	569c <__aeabi_dsub>
    4118:	e89d000c 	ldm	sp, {r2, r3}
    411c:	e1a08000 	mov	r8, r0
    4120:	e1a09001 	mov	r9, r1
    4124:	e1a00004 	mov	r0, r4
    4128:	e1a01005 	mov	r1, r5
    412c:	eb00065f 	bl	5ab0 <__aeabi_dmul>
    4130:	e1a0200a 	mov	r2, r10
    4134:	e1a04000 	mov	r4, r0
    4138:	e1a05001 	mov	r5, r1
    413c:	e1a0300b 	mov	r3, r11
    4140:	e1a00006 	mov	r0, r6
    4144:	e1a01007 	mov	r1, r7
    4148:	eb000658 	bl	5ab0 <__aeabi_dmul>
    414c:	e1a02000 	mov	r2, r0
    4150:	e1a03001 	mov	r3, r1
    4154:	e1a00004 	mov	r0, r4
    4158:	e1a01005 	mov	r1, r5
    415c:	eb00054e 	bl	569c <__aeabi_dsub>
    4160:	e1a02000 	mov	r2, r0
    4164:	e1a03001 	mov	r3, r1
    4168:	e1a00008 	mov	r0, r8
    416c:	e1a01009 	mov	r1, r9
    4170:	eb000549 	bl	569c <__aeabi_dsub>
    4174:	e1a02000 	mov	r2, r0
    4178:	e1a03001 	mov	r3, r1
    417c:	e28d1008 	add	r1, sp, #8
    4180:	e8910003 	ldm	r1, {r0, r1}
    4184:	eb000544 	bl	569c <__aeabi_dsub>
    4188:	e28dd014 	add	sp, sp, #20
    418c:	e8bd4ff0 	pop	{r4, r5, r6, r7, r8, r9, r10, r11, lr}
    4190:	e12fff1e 	bx	lr
    4194:	e59f305c 	ldr	r3, [pc, #92]	; 41f8 <__kernel_cos+0x340>
    4198:	e3a08000 	mov	r8, #0
    419c:	e58d2008 	str	r2, [sp, #8]
    41a0:	e58d300c 	str	r3, [sp, #12]
    41a4:	e59f9050 	ldr	r9, [pc, #80]	; 41fc <__kernel_cos+0x344>
    41a8:	eaffffd2 	b	40f8 <__kernel_cos+0x240>
    41ac:	e3a00000 	mov	r0, #0
    41b0:	e59f1034 	ldr	r1, [pc, #52]	; 41ec <__kernel_cos+0x334>
    41b4:	eafffff3 	b	4188 <__kernel_cos+0x2d0>
    41b8:	be8838d4 	.word	0xbe8838d4
    41bc:	bda8fae9 	.word	0xbda8fae9
    41c0:	bdb4b1c4 	.word	0xbdb4b1c4
    41c4:	3e21ee9e 	.word	0x3e21ee9e
    41c8:	809c52ad 	.word	0x809c52ad
    41cc:	3e927e4f 	.word	0x3e927e4f
    41d0:	19cb1590 	.word	0x19cb1590
    41d4:	3efa01a0 	.word	0x3efa01a0
    41d8:	16c15177 	.word	0x16c15177
    41dc:	3f56c16c 	.word	0x3f56c16c
    41e0:	5555554c 	.word	0x5555554c
    41e4:	3fa55555 	.word	0x3fa55555
    41e8:	3fe00000 	.word	0x3fe00000
    41ec:	3ff00000 	.word	0x3ff00000
    41f0:	3fd33332 	.word	0x3fd33332
    41f4:	3fe90000 	.word	0x3fe90000
    41f8:	3fe70000 	.word	0x3fe70000
    41fc:	3fd20000 	.word	0x3fd20000

00004200 <__kernel_rem_pio2>:
    4200:	e92d4ff0 	push	{r4, r5, r6, r7, r8, r9, r10, r11, lr}
    4204:	e59feb6c 	ldr	lr, [pc, #2924]	; 4d78 <__kernel_rem_pio2+0xb78>
    4208:	e242c003 	sub	r12, r2, #3
    420c:	e0ce4e9c 	smull	r4, lr, r12, lr
    4210:	e1a0cfcc 	asr	r12, r12, #31
    4214:	e06cc14e 	rsb	r12, r12, lr, asr #2
    4218:	e24ddf99 	sub	sp, sp, #612	; 0x264
    421c:	e1cccfcc 	bic	r12, r12, r12, asr #31
    4220:	e58dc028 	str	r12, [sp, #40]	; 0x28
    4224:	e1a0b003 	mov	r11, r3
    4228:	e59dc288 	ldr	r12, [sp, #648]	; 0x288
    422c:	e59f3b48 	ldr	r3, [pc, #2888]	; 4d7c <__kernel_rem_pio2+0xb7c>
    4230:	e793310c 	ldr	r3, [r3, r12, lsl #2]
    4234:	e59dc028 	ldr	r12, [sp, #40]	; 0x28
    4238:	e58d3020 	str	r3, [sp, #32]
    423c:	e59de020 	ldr	lr, [sp, #32]
    4240:	e1e0300c 	mvn	r3, r12
    4244:	e24b4001 	sub	r4, r11, #1
    4248:	e0833083 	add	r3, r3, r3, lsl #1
    424c:	e58d0010 	str	r0, [sp, #16]
    4250:	e59d0028 	ldr	r0, [sp, #40]	; 0x28
    4254:	e0823183 	add	r3, r2, r3, lsl #3
    4258:	e094c00e 	adds	r12, r4, lr
    425c:	e58d400c 	str	r4, [sp, #12]
    4260:	e58d101c 	str	r1, [sp, #28]
    4264:	e58d3018 	str	r3, [sp, #24]
    4268:	e0646000 	rsb	r6, r4, r0
    426c:	4a000012 	bmi	42bc <__kernel_rem_pio2+0xbc>
    4270:	e086c00c 	add	r12, r6, r12
    4274:	e28c4001 	add	r4, r12, #1
    4278:	e59dc28c 	ldr	r12, [sp, #652]	; 0x28c
    427c:	e28d8080 	add	r8, sp, #128	; 0x80
    4280:	e08c5106 	add	r5, r12, r6, lsl #2
    4284:	e3a07000 	mov	r7, #0
    4288:	ea000006 	b	42a8 <__kernel_rem_pio2+0xa8>
    428c:	e7950007 	ldr	r0, [r5, r7]
    4290:	eb0005cf 	bl	59d4 <__aeabi_i2d>
    4294:	e2866001 	add	r6, r6, #1
    4298:	e1560004 	cmp	r6, r4
    429c:	e8a80003 	stmia	r8!, {r0, r1}
    42a0:	e2877004 	add	r7, r7, #4
    42a4:	0a000004 	beq	42bc <__kernel_rem_pio2+0xbc>
    42a8:	e3560000 	cmp	r6, #0
    42ac:	aafffff6 	bge	428c <__kernel_rem_pio2+0x8c>
    42b0:	e3a00000 	mov	r0, #0
    42b4:	e3a01000 	mov	r1, #0
    42b8:	eafffff5 	b	4294 <__kernel_rem_pio2+0x94>
    42bc:	e59d4020 	ldr	r4, [sp, #32]
    42c0:	e3540000 	cmp	r4, #0
    42c4:	ba000020 	blt	434c <__kernel_rem_pio2+0x14c>
    42c8:	e59d4020 	ldr	r4, [sp, #32]
    42cc:	e28dcf72 	add	r12, sp, #456	; 0x1c8
    42d0:	e08cc184 	add	r12, r12, r4, lsl #3
    42d4:	e58dc004 	str	r12, [sp, #4]
    42d8:	e28dad07 	add	r10, sp, #448	; 0x1c0
    42dc:	e1a0800b 	mov	r8, r11
    42e0:	e59dc00c 	ldr	r12, [sp, #12]
    42e4:	e35c0000 	cmp	r12, #0
    42e8:	ba000130 	blt	47b0 <__kernel_rem_pio2+0x5b0>
    42ec:	e28de080 	add	lr, sp, #128	; 0x80
    42f0:	e59d9010 	ldr	r9, [sp, #16]
    42f4:	e08e7188 	add	r7, lr, r8, lsl #3
    42f8:	e3a04000 	mov	r4, #0
    42fc:	e3a05000 	mov	r5, #0
    4300:	e3a06000 	mov	r6, #0
    4304:	e937000c 	ldmdb	r7!, {r2, r3}
    4308:	e8b90003 	ldm	r9!, {r0, r1}
    430c:	eb0005e7 	bl	5ab0 <__aeabi_dmul>
    4310:	e1a02000 	mov	r2, r0
    4314:	e1a03001 	mov	r3, r1
    4318:	e1a00004 	mov	r0, r4
    431c:	e1a01005 	mov	r1, r5
    4320:	eb0004de 	bl	56a0 <__adddf3>
    4324:	e2866001 	add	r6, r6, #1
    4328:	e156000b 	cmp	r6, r11
    432c:	e1a04000 	mov	r4, r0
    4330:	e1a05001 	mov	r5, r1
    4334:	1afffff2 	bne	4304 <__kernel_rem_pio2+0x104>
    4338:	e8aa0030 	stmia	r10!, {r4, r5}
    433c:	e59d4004 	ldr	r4, [sp, #4]
    4340:	e15a0004 	cmp	r10, r4
    4344:	e2888001 	add	r8, r8, #1
    4348:	1affffe4 	bne	42e0 <__kernel_rem_pio2+0xe0>
    434c:	e59dc020 	ldr	r12, [sp, #32]
    4350:	e28d4030 	add	r4, sp, #48	; 0x30
    4354:	e084410c 	add	r4, r4, r12, lsl #2
    4358:	e58d402c 	str	r4, [sp, #44]	; 0x2c
    435c:	e58dc004 	str	r12, [sp, #4]
    4360:	e59d4004 	ldr	r4, [sp, #4]
    4364:	e28dce26 	add	r12, sp, #608	; 0x260
    4368:	e1a0a184 	lsl	r10, r4, #3
    436c:	e08c300a 	add	r3, r12, r10
    4370:	e3540000 	cmp	r4, #0
    4374:	e24350a0 	sub	r5, r3, #160	; 0xa0
    4378:	e8950030 	ldm	r5, {r4, r5}
    437c:	da00001f 	ble	4400 <__kernel_rem_pio2+0x200>
    4380:	e59dc004 	ldr	r12, [sp, #4]
    4384:	e28d802c 	add	r8, sp, #44	; 0x2c
    4388:	e28ded07 	add	lr, sp, #448	; 0x1c0
    438c:	e08ea00a 	add	r10, lr, r10
    4390:	e088910c 	add	r9, r8, r12, lsl #2
    4394:	e3a02000 	mov	r2, #0
    4398:	e59f39e0 	ldr	r3, [pc, #2528]	; 4d80 <__kernel_rem_pio2+0xb80>
    439c:	e1a00004 	mov	r0, r4
    43a0:	e1a01005 	mov	r1, r5
    43a4:	eb0005c1 	bl	5ab0 <__aeabi_dmul>
    43a8:	eb000738 	bl	6090 <__aeabi_d2iz>
    43ac:	eb000588 	bl	59d4 <__aeabi_i2d>
    43b0:	e3a02000 	mov	r2, #0
    43b4:	e59f39c8 	ldr	r3, [pc, #2504]	; 4d84 <__kernel_rem_pio2+0xb84>
    43b8:	e1a06000 	mov	r6, r0
    43bc:	e1a07001 	mov	r7, r1
    43c0:	eb0005ba 	bl	5ab0 <__aeabi_dmul>
    43c4:	e1a02000 	mov	r2, r0
    43c8:	e1a03001 	mov	r3, r1
    43cc:	e1a00004 	mov	r0, r4
    43d0:	e1a01005 	mov	r1, r5
    43d4:	eb0004b0 	bl	569c <__aeabi_dsub>
    43d8:	eb00072c 	bl	6090 <__aeabi_d2iz>
    43dc:	e1a02006 	mov	r2, r6
    43e0:	e5a80004 	str	r0, [r8, #4]!
    43e4:	e1a03007 	mov	r3, r7
    43e8:	e93a0003 	ldmdb	r10!, {r0, r1}
    43ec:	eb0004ab 	bl	56a0 <__adddf3>
    43f0:	e1580009 	cmp	r8, r9
    43f4:	e1a04000 	mov	r4, r0
    43f8:	e1a05001 	mov	r5, r1
    43fc:	1affffe4 	bne	4394 <__kernel_rem_pio2+0x194>
    4400:	e59d2018 	ldr	r2, [sp, #24]
    4404:	e1a00004 	mov	r0, r4
    4408:	e1a01005 	mov	r1, r5
    440c:	eb0003df 	bl	5390 <scalbn>
    4410:	e3a02000 	mov	r2, #0
    4414:	e3a035ff 	mov	r3, #1069547520	; 0x3fc00000
    4418:	e1a04000 	mov	r4, r0
    441c:	e1a05001 	mov	r5, r1
    4420:	eb0005a2 	bl	5ab0 <__aeabi_dmul>
    4424:	eb0002e9 	bl	4fd0 <floor>
    4428:	e3a02000 	mov	r2, #0
    442c:	e59f3954 	ldr	r3, [pc, #2388]	; 4d88 <__kernel_rem_pio2+0xb88>
    4430:	eb00059e 	bl	5ab0 <__aeabi_dmul>
    4434:	e1a02000 	mov	r2, r0
    4438:	e1a03001 	mov	r3, r1
    443c:	e1a00004 	mov	r0, r4
    4440:	e1a01005 	mov	r1, r5
    4444:	eb000494 	bl	569c <__aeabi_dsub>
    4448:	e1a04000 	mov	r4, r0
    444c:	e1a05001 	mov	r5, r1
    4450:	eb00070e 	bl	6090 <__aeabi_d2iz>
    4454:	e1a08000 	mov	r8, r0
    4458:	eb00055d 	bl	59d4 <__aeabi_i2d>
    445c:	e1a02000 	mov	r2, r0
    4460:	e1a03001 	mov	r3, r1
    4464:	e1a00004 	mov	r0, r4
    4468:	e1a01005 	mov	r1, r5
    446c:	eb00048a 	bl	569c <__aeabi_dsub>
    4470:	e59d4018 	ldr	r4, [sp, #24]
    4474:	e3540000 	cmp	r4, #0
    4478:	e1a06000 	mov	r6, r0
    447c:	e1a07001 	mov	r7, r1
    4480:	da0000ad 	ble	473c <__kernel_rem_pio2+0x53c>
    4484:	e59dc004 	ldr	r12, [sp, #4]
    4488:	e28dee26 	add	lr, sp, #608	; 0x260
    448c:	e24c2001 	sub	r2, r12, #1
    4490:	e08e2102 	add	r2, lr, r2, lsl #2
    4494:	e5120230 	ldr	r0, [r2, #-560]	; 0xfffffdd0
    4498:	e2643018 	rsb	r3, r4, #24
    449c:	e1a01350 	asr	r1, r0, r3
    44a0:	e0403311 	sub	r3, r0, r1, lsl r3
    44a4:	e2645017 	rsb	r5, r4, #23
    44a8:	e1a05553 	asr	r5, r3, r5
    44ac:	e5023230 	str	r3, [r2, #-560]	; 0xfffffdd0
    44b0:	e0888001 	add	r8, r8, r1
    44b4:	e3550000 	cmp	r5, #0
    44b8:	da000027 	ble	455c <__kernel_rem_pio2+0x35c>
    44bc:	e59d4004 	ldr	r4, [sp, #4]
    44c0:	e3540000 	cmp	r4, #0
    44c4:	e2888001 	add	r8, r8, #1
    44c8:	da0000b6 	ble	47a8 <__kernel_rem_pio2+0x5a8>
    44cc:	e28d3030 	add	r3, sp, #48	; 0x30
    44d0:	e0830104 	add	r0, r3, r4, lsl #2
    44d4:	e3a04000 	mov	r4, #0
    44d8:	ea000005 	b	44f4 <__kernel_rem_pio2+0x2f4>
    44dc:	e3520000 	cmp	r2, #0
    44e0:	12622401 	rsbne	r2, r2, #16777216	; 0x1000000
    44e4:	15032004 	strne	r2, [r3, #-4]
    44e8:	13a04001 	movne	r4, #1
    44ec:	e1530000 	cmp	r3, r0
    44f0:	0a000008 	beq	4518 <__kernel_rem_pio2+0x318>
    44f4:	e3540000 	cmp	r4, #0
    44f8:	e4932004 	ldr	r2, [r3], #4
    44fc:	0afffff6 	beq	44dc <__kernel_rem_pio2+0x2dc>
    4500:	e3e014ff 	mvn	r1, #-16777216	; 0xff000000
    4504:	e0621001 	rsb	r1, r2, r1
    4508:	e1530000 	cmp	r3, r0
    450c:	e5031004 	str	r1, [r3, #-4]
    4510:	e3a04001 	mov	r4, #1
    4514:	1afffff6 	bne	44f4 <__kernel_rem_pio2+0x2f4>
    4518:	e59dc018 	ldr	r12, [sp, #24]
    451c:	e35c0000 	cmp	r12, #0
    4520:	da00000b 	ble	4554 <__kernel_rem_pio2+0x354>
    4524:	e35c0001 	cmp	r12, #1
    4528:	0a00008a 	beq	4758 <__kernel_rem_pio2+0x558>
    452c:	e35c0002 	cmp	r12, #2
    4530:	1a000007 	bne	4554 <__kernel_rem_pio2+0x354>
    4534:	e59dc004 	ldr	r12, [sp, #4]
    4538:	e28dee26 	add	lr, sp, #608	; 0x260
    453c:	e24c3001 	sub	r3, r12, #1
    4540:	e08e3103 	add	r3, lr, r3, lsl #2
    4544:	e5132230 	ldr	r2, [r3, #-560]	; 0xfffffdd0
    4548:	e3c224ff 	bic	r2, r2, #-16777216	; 0xff000000
    454c:	e3c22503 	bic	r2, r2, #12582912	; 0xc00000
    4550:	e5032230 	str	r2, [r3, #-560]	; 0xfffffdd0
    4554:	e3550002 	cmp	r5, #2
    4558:	0a000062 	beq	46e8 <__kernel_rem_pio2+0x4e8>
    455c:	e1a00006 	mov	r0, r6
    4560:	e1a01007 	mov	r1, r7
    4564:	e3a02000 	mov	r2, #0
    4568:	e3a03000 	mov	r3, #0
    456c:	eb0006a9 	bl	6018 <__aeabi_dcmpeq>
    4570:	e3500000 	cmp	r0, #0
    4574:	0a000090 	beq	47bc <__kernel_rem_pio2+0x5bc>
    4578:	e59d4004 	ldr	r4, [sp, #4]
    457c:	e59dc020 	ldr	r12, [sp, #32]
    4580:	e2440001 	sub	r0, r4, #1
    4584:	e15c0000 	cmp	r12, r0
    4588:	ca000009 	bgt	45b4 <__kernel_rem_pio2+0x3b4>
    458c:	e28de030 	add	lr, sp, #48	; 0x30
    4590:	e59dc02c 	ldr	r12, [sp, #44]	; 0x2c
    4594:	e08e3104 	add	r3, lr, r4, lsl #2
    4598:	e3a02000 	mov	r2, #0
    459c:	e5331004 	ldr	r1, [r3, #-4]!
    45a0:	e153000c 	cmp	r3, r12
    45a4:	e1822001 	orr	r2, r2, r1
    45a8:	1afffffb 	bne	459c <__kernel_rem_pio2+0x39c>
    45ac:	e3520000 	cmp	r2, #0
    45b0:	1a0001c9 	bne	4cdc <__kernel_rem_pio2+0xadc>
    45b4:	e59d4020 	ldr	r4, [sp, #32]
    45b8:	e2442001 	sub	r2, r4, #1
    45bc:	e1a02102 	lsl	r2, r2, #2
    45c0:	e28dce26 	add	r12, sp, #608	; 0x260
    45c4:	e08c3002 	add	r3, r12, r2
    45c8:	e5133230 	ldr	r3, [r3, #-560]	; 0xfffffdd0
    45cc:	e3530000 	cmp	r3, #0
    45d0:	1a0001d9 	bne	4d3c <__kernel_rem_pio2+0xb3c>
    45d4:	e28de030 	add	lr, sp, #48	; 0x30
    45d8:	e08e2002 	add	r2, lr, r2
    45dc:	e3a03001 	mov	r3, #1
    45e0:	e5321004 	ldr	r1, [r2, #-4]!
    45e4:	e3510000 	cmp	r1, #0
    45e8:	e2833001 	add	r3, r3, #1
    45ec:	0afffffb 	beq	45e0 <__kernel_rem_pio2+0x3e0>
    45f0:	e59d4004 	ldr	r4, [sp, #4]
    45f4:	e0843003 	add	r3, r4, r3
    45f8:	e2848001 	add	r8, r4, #1
    45fc:	e1580003 	cmp	r8, r3
    4600:	e58d3024 	str	r3, [sp, #36]	; 0x24
    4604:	ca000031 	bgt	46d0 <__kernel_rem_pio2+0x4d0>
    4608:	e59d4004 	ldr	r4, [sp, #4]
    460c:	e59dc028 	ldr	r12, [sp, #40]	; 0x28
    4610:	e084300c 	add	r3, r4, r12
    4614:	e59dc28c 	ldr	r12, [sp, #652]	; 0x28c
    4618:	e59d400c 	ldr	r4, [sp, #12]
    461c:	e08c3103 	add	r3, r12, r3, lsl #2
    4620:	e59dc024 	ldr	r12, [sp, #36]	; 0x24
    4624:	e0849008 	add	r9, r4, r8
    4628:	e28d4d07 	add	r4, sp, #448	; 0x1c0
    462c:	e0844188 	add	r4, r4, r8, lsl #3
    4630:	e28cc001 	add	r12, r12, #1
    4634:	e28de080 	add	lr, sp, #128	; 0x80
    4638:	e98d0018 	stmib	sp, {r3, r4}
    463c:	e58dc014 	str	r12, [sp, #20]
    4640:	e08e9189 	add	r9, lr, r9, lsl #3
    4644:	e59d4004 	ldr	r4, [sp, #4]
    4648:	e5b40004 	ldr	r0, [r4, #4]!
    464c:	e58d4004 	str	r4, [sp, #4]
    4650:	eb0004df 	bl	59d4 <__aeabi_i2d>
    4654:	e59dc00c 	ldr	r12, [sp, #12]
    4658:	e35c0000 	cmp	r12, #0
    465c:	e8a90003 	stmia	r9!, {r0, r1}
    4660:	ba00001d 	blt	46dc <__kernel_rem_pio2+0x4dc>
    4664:	e088700b 	add	r7, r8, r11
    4668:	e28de080 	add	lr, sp, #128	; 0x80
    466c:	e59da010 	ldr	r10, [sp, #16]
    4670:	e08e7187 	add	r7, lr, r7, lsl #3
    4674:	e3a04000 	mov	r4, #0
    4678:	e3a05000 	mov	r5, #0
    467c:	e3a06000 	mov	r6, #0
    4680:	e937000c 	ldmdb	r7!, {r2, r3}
    4684:	e8ba0003 	ldm	r10!, {r0, r1}
    4688:	eb000508 	bl	5ab0 <__aeabi_dmul>
    468c:	e1a02000 	mov	r2, r0
    4690:	e1a03001 	mov	r3, r1
    4694:	e1a00004 	mov	r0, r4
    4698:	e1a01005 	mov	r1, r5
    469c:	eb0003ff 	bl	56a0 <__adddf3>
    46a0:	e2866001 	add	r6, r6, #1
    46a4:	e156000b 	cmp	r6, r11
    46a8:	e1a04000 	mov	r4, r0
    46ac:	e1a05001 	mov	r5, r1
    46b0:	1afffff2 	bne	4680 <__kernel_rem_pio2+0x480>
    46b4:	e59dc014 	ldr	r12, [sp, #20]
    46b8:	e2888001 	add	r8, r8, #1
    46bc:	e158000c 	cmp	r8, r12
    46c0:	e59dc008 	ldr	r12, [sp, #8]
    46c4:	e8ac0030 	stmia	r12!, {r4, r5}
    46c8:	e58dc008 	str	r12, [sp, #8]
    46cc:	1affffdc 	bne	4644 <__kernel_rem_pio2+0x444>
    46d0:	e59dc024 	ldr	r12, [sp, #36]	; 0x24
    46d4:	e58dc004 	str	r12, [sp, #4]
    46d8:	eaffff20 	b	4360 <__kernel_rem_pio2+0x160>
    46dc:	e3a04000 	mov	r4, #0
    46e0:	e3a05000 	mov	r5, #0
    46e4:	eafffff2 	b	46b4 <__kernel_rem_pio2+0x4b4>
    46e8:	e1a02006 	mov	r2, r6
    46ec:	e1a03007 	mov	r3, r7
    46f0:	e3a00000 	mov	r0, #0
    46f4:	e59f1690 	ldr	r1, [pc, #1680]	; 4d8c <__kernel_rem_pio2+0xb8c>
    46f8:	eb0003e7 	bl	569c <__aeabi_dsub>
    46fc:	e3540000 	cmp	r4, #0
    4700:	e1a06000 	mov	r6, r0
    4704:	e1a07001 	mov	r7, r1
    4708:	0affff93 	beq	455c <__kernel_rem_pio2+0x35c>
    470c:	e59d2018 	ldr	r2, [sp, #24]
    4710:	e3a00000 	mov	r0, #0
    4714:	e59f1670 	ldr	r1, [pc, #1648]	; 4d8c <__kernel_rem_pio2+0xb8c>
    4718:	eb00031c 	bl	5390 <scalbn>
    471c:	e1a02000 	mov	r2, r0
    4720:	e1a03001 	mov	r3, r1
    4724:	e1a00006 	mov	r0, r6
    4728:	e1a01007 	mov	r1, r7
    472c:	eb0003da 	bl	569c <__aeabi_dsub>
    4730:	e1a06000 	mov	r6, r0
    4734:	e1a07001 	mov	r7, r1
    4738:	eaffff87 	b	455c <__kernel_rem_pio2+0x35c>
    473c:	1a00000e 	bne	477c <__kernel_rem_pio2+0x57c>
    4740:	e59d4004 	ldr	r4, [sp, #4]
    4744:	e28dce26 	add	r12, sp, #608	; 0x260
    4748:	e08c3104 	add	r3, r12, r4, lsl #2
    474c:	e5135234 	ldr	r5, [r3, #-564]	; 0xfffffdcc
    4750:	e1a05bc5 	asr	r5, r5, #23
    4754:	eaffff56 	b	44b4 <__kernel_rem_pio2+0x2b4>
    4758:	e59dc004 	ldr	r12, [sp, #4]
    475c:	e28dee26 	add	lr, sp, #608	; 0x260
    4760:	e24c3001 	sub	r3, r12, #1
    4764:	e08e3103 	add	r3, lr, r3, lsl #2
    4768:	e5132230 	ldr	r2, [r3, #-560]	; 0xfffffdd0
    476c:	e3c224ff 	bic	r2, r2, #-16777216	; 0xff000000
    4770:	e3c22502 	bic	r2, r2, #8388608	; 0x800000
    4774:	e5032230 	str	r2, [r3, #-560]	; 0xfffffdd0
    4778:	eaffff75 	b	4554 <__kernel_rem_pio2+0x354>
    477c:	e3a02000 	mov	r2, #0
    4780:	e59f3608 	ldr	r3, [pc, #1544]	; 4d90 <__kernel_rem_pio2+0xb90>
    4784:	eb000635 	bl	6060 <__aeabi_dcmpge>
    4788:	e3500000 	cmp	r0, #0
    478c:	03a05000 	moveq	r5, #0
    4790:	0affff71 	beq	455c <__kernel_rem_pio2+0x35c>
    4794:	e59d4004 	ldr	r4, [sp, #4]
    4798:	e3540000 	cmp	r4, #0
    479c:	e3a05002 	mov	r5, #2
    47a0:	e2888001 	add	r8, r8, #1
    47a4:	caffff48 	bgt	44cc <__kernel_rem_pio2+0x2cc>
    47a8:	e3a04000 	mov	r4, #0
    47ac:	eaffff59 	b	4518 <__kernel_rem_pio2+0x318>
    47b0:	e3a04000 	mov	r4, #0
    47b4:	e3a05000 	mov	r5, #0
    47b8:	eafffede 	b	4338 <__kernel_rem_pio2+0x138>
    47bc:	e59d4018 	ldr	r4, [sp, #24]
    47c0:	e1a00006 	mov	r0, r6
    47c4:	e2642000 	rsb	r2, r4, #0
    47c8:	e1a01007 	mov	r1, r7
    47cc:	e58d500c 	str	r5, [sp, #12]
    47d0:	e58d8010 	str	r8, [sp, #16]
    47d4:	eb0002ed 	bl	5390 <scalbn>
    47d8:	e3a02000 	mov	r2, #0
    47dc:	e59f35a0 	ldr	r3, [pc, #1440]	; 4d84 <__kernel_rem_pio2+0xb84>
    47e0:	e1a04000 	mov	r4, r0
    47e4:	e1a05001 	mov	r5, r1
    47e8:	eb00061c 	bl	6060 <__aeabi_dcmpge>
    47ec:	e3500000 	cmp	r0, #0
    47f0:	0a000153 	beq	4d44 <__kernel_rem_pio2+0xb44>
    47f4:	e3a02000 	mov	r2, #0
    47f8:	e59f3580 	ldr	r3, [pc, #1408]	; 4d80 <__kernel_rem_pio2+0xb80>
    47fc:	e1a00004 	mov	r0, r4
    4800:	e1a01005 	mov	r1, r5
    4804:	eb0004a9 	bl	5ab0 <__aeabi_dmul>
    4808:	eb000620 	bl	6090 <__aeabi_d2iz>
    480c:	eb000470 	bl	59d4 <__aeabi_i2d>
    4810:	e3a02000 	mov	r2, #0
    4814:	e59f3568 	ldr	r3, [pc, #1384]	; 4d84 <__kernel_rem_pio2+0xb84>
    4818:	e1a06000 	mov	r6, r0
    481c:	e1a07001 	mov	r7, r1
    4820:	eb0004a2 	bl	5ab0 <__aeabi_dmul>
    4824:	e1a02000 	mov	r2, r0
    4828:	e1a03001 	mov	r3, r1
    482c:	e1a00004 	mov	r0, r4
    4830:	e1a01005 	mov	r1, r5
    4834:	eb000398 	bl	569c <__aeabi_dsub>
    4838:	eb000614 	bl	6090 <__aeabi_d2iz>
    483c:	e59d4004 	ldr	r4, [sp, #4]
    4840:	e28dce26 	add	r12, sp, #608	; 0x260
    4844:	e08c3104 	add	r3, r12, r4, lsl #2
    4848:	e5030230 	str	r0, [r3, #-560]	; 0xfffffdd0
    484c:	e1a01007 	mov	r1, r7
    4850:	e1a00006 	mov	r0, r6
    4854:	eb00060d 	bl	6090 <__aeabi_d2iz>
    4858:	e2844001 	add	r4, r4, #1
    485c:	e28dee26 	add	lr, sp, #608	; 0x260
    4860:	e08e3104 	add	r3, lr, r4, lsl #2
    4864:	e58d4004 	str	r4, [sp, #4]
    4868:	e59d4018 	ldr	r4, [sp, #24]
    486c:	e2844018 	add	r4, r4, #24
    4870:	e58d4018 	str	r4, [sp, #24]
    4874:	e5030230 	str	r0, [r3, #-560]	; 0xfffffdd0
    4878:	e3a00000 	mov	r0, #0
    487c:	e59f1508 	ldr	r1, [pc, #1288]	; 4d8c <__kernel_rem_pio2+0xb8c>
    4880:	e59d2018 	ldr	r2, [sp, #24]
    4884:	eb0002c1 	bl	5390 <scalbn>
    4888:	e59dc004 	ldr	r12, [sp, #4]
    488c:	e35c0000 	cmp	r12, #0
    4890:	e1a04000 	mov	r4, r0
    4894:	e1a05001 	mov	r5, r1
    4898:	ba00003b 	blt	498c <__kernel_rem_pio2+0x78c>
    489c:	e28c6001 	add	r6, r12, #1
    48a0:	e28d9d07 	add	r9, sp, #448	; 0x1c0
    48a4:	e28de030 	add	lr, sp, #48	; 0x30
    48a8:	e08e7106 	add	r7, lr, r6, lsl #2
    48ac:	e0896186 	add	r6, r9, r6, lsl #3
    48b0:	e5370004 	ldr	r0, [r7, #-4]!
    48b4:	eb000446 	bl	59d4 <__aeabi_i2d>
    48b8:	e1a02004 	mov	r2, r4
    48bc:	e1a03005 	mov	r3, r5
    48c0:	eb00047a 	bl	5ab0 <__aeabi_dmul>
    48c4:	e3a02000 	mov	r2, #0
    48c8:	e9260003 	stmdb	r6!, {r0, r1}
    48cc:	e59f34ac 	ldr	r3, [pc, #1196]	; 4d80 <__kernel_rem_pio2+0xb80>
    48d0:	e1a00004 	mov	r0, r4
    48d4:	e1a01005 	mov	r1, r5
    48d8:	eb000474 	bl	5ab0 <__aeabi_dmul>
    48dc:	e1560009 	cmp	r6, r9
    48e0:	e1a04000 	mov	r4, r0
    48e4:	e1a05001 	mov	r5, r1
    48e8:	1afffff0 	bne	48b0 <__kernel_rem_pio2+0x6b0>
    48ec:	e59da004 	ldr	r10, [sp, #4]
    48f0:	e59db020 	ldr	r11, [sp, #32]
    48f4:	e58da008 	str	r10, [sp, #8]
    48f8:	e3a08000 	mov	r8, #0
    48fc:	e35b0000 	cmp	r11, #0
    4900:	b3a04000 	movlt	r4, #0
    4904:	b3a05000 	movlt	r5, #0
    4908:	ba000015 	blt	4964 <__kernel_rem_pio2+0x764>
    490c:	e59d4008 	ldr	r4, [sp, #8]
    4910:	e59fa47c 	ldr	r10, [pc, #1148]	; 4d94 <__kernel_rem_pio2+0xb94>
    4914:	e0897184 	add	r7, r9, r4, lsl #3
    4918:	e3a05000 	mov	r5, #0
    491c:	e3a04000 	mov	r4, #0
    4920:	e3a06000 	mov	r6, #0
    4924:	ea000001 	b	4930 <__kernel_rem_pio2+0x730>
    4928:	e1560008 	cmp	r6, r8
    492c:	ca00000c 	bgt	4964 <__kernel_rem_pio2+0x764>
    4930:	e8b7000c 	ldm	r7!, {r2, r3}
    4934:	e8ba0003 	ldm	r10!, {r0, r1}
    4938:	eb00045c 	bl	5ab0 <__aeabi_dmul>
    493c:	e1a02000 	mov	r2, r0
    4940:	e1a03001 	mov	r3, r1
    4944:	e1a00004 	mov	r0, r4
    4948:	e1a01005 	mov	r1, r5
    494c:	eb000353 	bl	56a0 <__adddf3>
    4950:	e2866001 	add	r6, r6, #1
    4954:	e15b0006 	cmp	r11, r6
    4958:	e1a04000 	mov	r4, r0
    495c:	e1a05001 	mov	r5, r1
    4960:	aafffff0 	bge	4928 <__kernel_rem_pio2+0x728>
    4964:	e59dc008 	ldr	r12, [sp, #8]
    4968:	e28d0e26 	add	r0, sp, #608	; 0x260
    496c:	e24cc001 	sub	r12, r12, #1
    4970:	e0803188 	add	r3, r0, r8, lsl #3
    4974:	e37c0001 	cmn	r12, #1
    4978:	e58dc008 	str	r12, [sp, #8]
    497c:	e5034140 	str	r4, [r3, #-320]	; 0xfffffec0
    4980:	e503513c 	str	r5, [r3, #-316]	; 0xfffffec4
    4984:	e2888001 	add	r8, r8, #1
    4988:	1affffdb 	bne	48fc <__kernel_rem_pio2+0x6fc>
    498c:	e59dc288 	ldr	r12, [sp, #648]	; 0x288
    4990:	e35c0003 	cmp	r12, #3
    4994:	979ff10c 	ldrls	pc, [pc, r12, lsl #2]
    4998:	ea000015 	b	49f4 <__kernel_rem_pio2+0x7f4>
    499c:	00004c7c 	.word	0x00004c7c
    49a0:	00004b98 	.word	0x00004b98
    49a4:	00004b98 	.word	0x00004b98
    49a8:	00004a08 	.word	0x00004a08
    49ac:	e59d000c 	ldr	r0, [sp, #12]
    49b0:	e3a0c000 	mov	r12, #0
    49b4:	e3500000 	cmp	r0, #0
    49b8:	e1a0400c 	mov	r4, r12
    49bc:	0a000068 	beq	4b64 <__kernel_rem_pio2+0x964>
    49c0:	e59d2124 	ldr	r2, [sp, #292]	; 0x124
    49c4:	e59d001c 	ldr	r0, [sp, #28]
    49c8:	e59d1120 	ldr	r1, [sp, #288]	; 0x120
    49cc:	e2822102 	add	r2, r2, #-2147483648	; 0x80000000
    49d0:	e59d312c 	ldr	r3, [sp, #300]	; 0x12c
    49d4:	e8800006 	stm	r0, {r1, r2}
    49d8:	e59d2128 	ldr	r2, [sp, #296]	; 0x128
    49dc:	e2833102 	add	r3, r3, #-2147483648	; 0x80000000
    49e0:	e2844102 	add	r4, r4, #-2147483648	; 0x80000000
    49e4:	e5802008 	str	r2, [r0, #8]
    49e8:	e580300c 	str	r3, [r0, #12]
    49ec:	e580c010 	str	r12, [r0, #16]
    49f0:	e5804014 	str	r4, [r0, #20]
    49f4:	e59d4010 	ldr	r4, [sp, #16]
    49f8:	e2040007 	and	r0, r4, #7
    49fc:	e28ddf99 	add	sp, sp, #612	; 0x264
    4a00:	e8bd4ff0 	pop	{r4, r5, r6, r7, r8, r9, r10, r11, lr}
    4a04:	e12fff1e 	bx	lr
    4a08:	e59d4004 	ldr	r4, [sp, #4]
    4a0c:	e3540000 	cmp	r4, #0
    4a10:	daffffe5 	ble	49ac <__kernel_rem_pio2+0x7ac>
    4a14:	e59d4004 	ldr	r4, [sp, #4]
    4a18:	e28dbe12 	add	r11, sp, #288	; 0x120
    4a1c:	e08ba184 	add	r10, r11, r4, lsl #3
    4a20:	e58da008 	str	r10, [sp, #8]
    4a24:	e58da014 	str	r10, [sp, #20]
    4a28:	e93a0300 	ldmdb	r10!, {r8, r9}
    4a2c:	e28a7008 	add	r7, r10, #8
    4a30:	e89700c0 	ldm	r7, {r6, r7}
    4a34:	e1a00008 	mov	r0, r8
    4a38:	e1a02006 	mov	r2, r6
    4a3c:	e1a03007 	mov	r3, r7
    4a40:	e1a01009 	mov	r1, r9
    4a44:	eb000315 	bl	56a0 <__adddf3>
    4a48:	e1a04000 	mov	r4, r0
    4a4c:	e1a05001 	mov	r5, r1
    4a50:	e1a02004 	mov	r2, r4
    4a54:	e1a03005 	mov	r3, r5
    4a58:	e1a00008 	mov	r0, r8
    4a5c:	e1a01009 	mov	r1, r9
    4a60:	eb00030d 	bl	569c <__aeabi_dsub>
    4a64:	e1a02000 	mov	r2, r0
    4a68:	e1a03001 	mov	r3, r1
    4a6c:	e1a00006 	mov	r0, r6
    4a70:	e1a01007 	mov	r1, r7
    4a74:	eb000309 	bl	56a0 <__adddf3>
    4a78:	e59dc008 	ldr	r12, [sp, #8]
    4a7c:	e58a0008 	str	r0, [r10, #8]
    4a80:	e58a100c 	str	r1, [r10, #12]
    4a84:	e92c0030 	stmdb	r12!, {r4, r5}
    4a88:	e15a000b 	cmp	r10, r11
    4a8c:	e58dc008 	str	r12, [sp, #8]
    4a90:	1affffe4 	bne	4a28 <__kernel_rem_pio2+0x828>
    4a94:	e59d4004 	ldr	r4, [sp, #4]
    4a98:	e3540001 	cmp	r4, #1
    4a9c:	e59da014 	ldr	r10, [sp, #20]
    4aa0:	daffffc1 	ble	49ac <__kernel_rem_pio2+0x7ac>
    4aa4:	e28bc008 	add	r12, r11, #8
    4aa8:	e58dc008 	str	r12, [sp, #8]
    4aac:	e1a0c00a 	mov	r12, r10
    4ab0:	e93a0300 	ldmdb	r10!, {r8, r9}
    4ab4:	e28a7008 	add	r7, r10, #8
    4ab8:	e89700c0 	ldm	r7, {r6, r7}
    4abc:	e1a00008 	mov	r0, r8
    4ac0:	e1a02006 	mov	r2, r6
    4ac4:	e1a03007 	mov	r3, r7
    4ac8:	e1a01009 	mov	r1, r9
    4acc:	e58dc000 	str	r12, [sp]
    4ad0:	eb0002f2 	bl	56a0 <__adddf3>
    4ad4:	e1a04000 	mov	r4, r0
    4ad8:	e1a05001 	mov	r5, r1
    4adc:	e1a02004 	mov	r2, r4
    4ae0:	e1a03005 	mov	r3, r5
    4ae4:	e1a00008 	mov	r0, r8
    4ae8:	e1a01009 	mov	r1, r9
    4aec:	eb0002ea 	bl	569c <__aeabi_dsub>
    4af0:	e1a02000 	mov	r2, r0
    4af4:	e1a03001 	mov	r3, r1
    4af8:	e1a00006 	mov	r0, r6
    4afc:	e1a01007 	mov	r1, r7
    4b00:	eb0002e6 	bl	56a0 <__adddf3>
    4b04:	e59de008 	ldr	lr, [sp, #8]
    4b08:	e59dc000 	ldr	r12, [sp]
    4b0c:	e15a000e 	cmp	r10, lr
    4b10:	e58a0008 	str	r0, [r10, #8]
    4b14:	e58a100c 	str	r1, [r10, #12]
    4b18:	e92c0030 	stmdb	r12!, {r4, r5}
    4b1c:	1affffe3 	bne	4ab0 <__kernel_rem_pio2+0x8b0>
    4b20:	e59d4004 	ldr	r4, [sp, #4]
    4b24:	e3a0c000 	mov	r12, #0
    4b28:	e2845001 	add	r5, r4, #1
    4b2c:	e08b5185 	add	r5, r11, r5, lsl #3
    4b30:	e1a0400c 	mov	r4, r12
    4b34:	e28bb010 	add	r11, r11, #16
    4b38:	e1a0000c 	mov	r0, r12
    4b3c:	e1a01004 	mov	r1, r4
    4b40:	e935000c 	ldmdb	r5!, {r2, r3}
    4b44:	eb0002d5 	bl	56a0 <__adddf3>
    4b48:	e155000b 	cmp	r5, r11
    4b4c:	e1a0c000 	mov	r12, r0
    4b50:	e1a04001 	mov	r4, r1
    4b54:	1afffff7 	bne	4b38 <__kernel_rem_pio2+0x938>
    4b58:	e59d000c 	ldr	r0, [sp, #12]
    4b5c:	e3500000 	cmp	r0, #0
    4b60:	1affff96 	bne	49c0 <__kernel_rem_pio2+0x7c0>
    4b64:	e1a03004 	mov	r3, r4
    4b68:	e28d1e12 	add	r1, sp, #288	; 0x120
    4b6c:	e8910003 	ldm	r1, {r0, r1}
    4b70:	e59d401c 	ldr	r4, [sp, #28]
    4b74:	e8840003 	stm	r4, {r0, r1}
    4b78:	e28d1f4a 	add	r1, sp, #296	; 0x128
    4b7c:	e8910003 	ldm	r1, {r0, r1}
    4b80:	e1a0200c 	mov	r2, r12
    4b84:	e5840008 	str	r0, [r4, #8]
    4b88:	e584100c 	str	r1, [r4, #12]
    4b8c:	e5842010 	str	r2, [r4, #16]
    4b90:	e5843014 	str	r3, [r4, #20]
    4b94:	eaffff96 	b	49f4 <__kernel_rem_pio2+0x7f4>
    4b98:	e59dc004 	ldr	r12, [sp, #4]
    4b9c:	e35c0000 	cmp	r12, #0
    4ba0:	b3a0e000 	movlt	lr, #0
    4ba4:	b1a0c00e 	movlt	r12, lr
    4ba8:	ba00000d 	blt	4be4 <__kernel_rem_pio2+0x9e4>
    4bac:	e59dc004 	ldr	r12, [sp, #4]
    4bb0:	e28d5e12 	add	r5, sp, #288	; 0x120
    4bb4:	e28c4001 	add	r4, r12, #1
    4bb8:	e3a0e000 	mov	lr, #0
    4bbc:	e0854184 	add	r4, r5, r4, lsl #3
    4bc0:	e1a0c00e 	mov	r12, lr
    4bc4:	e1a0000e 	mov	r0, lr
    4bc8:	e1a0100c 	mov	r1, r12
    4bcc:	e934000c 	ldmdb	r4!, {r2, r3}
    4bd0:	eb0002b2 	bl	56a0 <__adddf3>
    4bd4:	e1540005 	cmp	r4, r5
    4bd8:	e1a0e000 	mov	lr, r0
    4bdc:	e1a0c001 	mov	r12, r1
    4be0:	1afffff7 	bne	4bc4 <__kernel_rem_pio2+0x9c4>
    4be4:	e59d400c 	ldr	r4, [sp, #12]
    4be8:	e3540000 	cmp	r4, #0
    4bec:	128c3102 	addne	r3, r12, #-2147483648	; 0x80000000
    4bf0:	01a0300c 	moveq	r3, r12
    4bf4:	e1a01003 	mov	r1, r3
    4bf8:	e1a0300c 	mov	r3, r12
    4bfc:	e59dc01c 	ldr	r12, [sp, #28]
    4c00:	e1a0000e 	mov	r0, lr
    4c04:	e88c0003 	stm	r12, {r0, r1}
    4c08:	e1a0200e 	mov	r2, lr
    4c0c:	e28d1e12 	add	r1, sp, #288	; 0x120
    4c10:	e8910003 	ldm	r1, {r0, r1}
    4c14:	eb0002a0 	bl	569c <__aeabi_dsub>
    4c18:	e59d4004 	ldr	r4, [sp, #4]
    4c1c:	e3540000 	cmp	r4, #0
    4c20:	e1a05000 	mov	r5, r0
    4c24:	e1a0c001 	mov	r12, r1
    4c28:	da00000a 	ble	4c58 <__kernel_rem_pio2+0xa58>
    4c2c:	e59de004 	ldr	lr, [sp, #4]
    4c30:	e28d4f4a 	add	r4, sp, #296	; 0x128
    4c34:	e084618e 	add	r6, r4, lr, lsl #3
    4c38:	e1a00005 	mov	r0, r5
    4c3c:	e1a0100c 	mov	r1, r12
    4c40:	e8b4000c 	ldm	r4!, {r2, r3}
    4c44:	eb000295 	bl	56a0 <__adddf3>
    4c48:	e1540006 	cmp	r4, r6
    4c4c:	e1a05000 	mov	r5, r0
    4c50:	e1a0c001 	mov	r12, r1
    4c54:	1afffff7 	bne	4c38 <__kernel_rem_pio2+0xa38>
    4c58:	e59d400c 	ldr	r4, [sp, #12]
    4c5c:	e3540000 	cmp	r4, #0
    4c60:	128cc102 	addne	r12, r12, #-2147483648	; 0x80000000
    4c64:	e1a0300c 	mov	r3, r12
    4c68:	e59dc01c 	ldr	r12, [sp, #28]
    4c6c:	e1a02005 	mov	r2, r5
    4c70:	e58c2008 	str	r2, [r12, #8]
    4c74:	e58c300c 	str	r3, [r12, #12]
    4c78:	eaffff5d 	b	49f4 <__kernel_rem_pio2+0x7f4>
    4c7c:	e59d4004 	ldr	r4, [sp, #4]
    4c80:	e3540000 	cmp	r4, #0
    4c84:	ba000038 	blt	4d6c <__kernel_rem_pio2+0xb6c>
    4c88:	e2846001 	add	r6, r4, #1
    4c8c:	e28d5e12 	add	r5, sp, #288	; 0x120
    4c90:	e3a04000 	mov	r4, #0
    4c94:	e0856186 	add	r6, r5, r6, lsl #3
    4c98:	e1a0c004 	mov	r12, r4
    4c9c:	e1a00004 	mov	r0, r4
    4ca0:	e1a0100c 	mov	r1, r12
    4ca4:	e936000c 	ldmdb	r6!, {r2, r3}
    4ca8:	eb00027c 	bl	56a0 <__adddf3>
    4cac:	e1560005 	cmp	r6, r5
    4cb0:	e1a04000 	mov	r4, r0
    4cb4:	e1a0c001 	mov	r12, r1
    4cb8:	1afffff7 	bne	4c9c <__kernel_rem_pio2+0xa9c>
    4cbc:	e59d000c 	ldr	r0, [sp, #12]
    4cc0:	e3500000 	cmp	r0, #0
    4cc4:	e1a02004 	mov	r2, r4
    4cc8:	128cc102 	addne	r12, r12, #-2147483648	; 0x80000000
    4ccc:	e59d401c 	ldr	r4, [sp, #28]
    4cd0:	e1a0300c 	mov	r3, r12
    4cd4:	e884000c 	stm	r4, {r2, r3}
    4cd8:	eaffff45 	b	49f4 <__kernel_rem_pio2+0x7f4>
    4cdc:	e1a03100 	lsl	r3, r0, #2
    4ce0:	e28dce26 	add	r12, sp, #608	; 0x260
    4ce4:	e08c2003 	add	r2, r12, r3
    4ce8:	e59d4018 	ldr	r4, [sp, #24]
    4cec:	e5122230 	ldr	r2, [r2, #-560]	; 0xfffffdd0
    4cf0:	e2444018 	sub	r4, r4, #24
    4cf4:	e3520000 	cmp	r2, #0
    4cf8:	e58d8010 	str	r8, [sp, #16]
    4cfc:	e58d500c 	str	r5, [sp, #12]
    4d00:	e58d4018 	str	r4, [sp, #24]
    4d04:	1a000016 	bne	4d64 <__kernel_rem_pio2+0xb64>
    4d08:	e28dc030 	add	r12, sp, #48	; 0x30
    4d0c:	e58d0004 	str	r0, [sp, #4]
    4d10:	e08c3003 	add	r3, r12, r3
    4d14:	e1a02000 	mov	r2, r0
    4d18:	e1a01004 	mov	r1, r4
    4d1c:	e5330004 	ldr	r0, [r3, #-4]!
    4d20:	e3500000 	cmp	r0, #0
    4d24:	e2422001 	sub	r2, r2, #1
    4d28:	e2411018 	sub	r1, r1, #24
    4d2c:	0afffffa 	beq	4d1c <__kernel_rem_pio2+0xb1c>
    4d30:	e58d2004 	str	r2, [sp, #4]
    4d34:	e58d1018 	str	r1, [sp, #24]
    4d38:	eafffece 	b	4878 <__kernel_rem_pio2+0x678>
    4d3c:	e3a03001 	mov	r3, #1
    4d40:	eafffe2a 	b	45f0 <__kernel_rem_pio2+0x3f0>
    4d44:	e1a00004 	mov	r0, r4
    4d48:	e1a01005 	mov	r1, r5
    4d4c:	eb0004cf 	bl	6090 <__aeabi_d2iz>
    4d50:	e59dc004 	ldr	r12, [sp, #4]
    4d54:	e28dee26 	add	lr, sp, #608	; 0x260
    4d58:	e08e310c 	add	r3, lr, r12, lsl #2
    4d5c:	e5030230 	str	r0, [r3, #-560]	; 0xfffffdd0
    4d60:	eafffec4 	b	4878 <__kernel_rem_pio2+0x678>
    4d64:	e58d0004 	str	r0, [sp, #4]
    4d68:	eafffec2 	b	4878 <__kernel_rem_pio2+0x678>
    4d6c:	e3a04000 	mov	r4, #0
    4d70:	e1a0c004 	mov	r12, r4
    4d74:	eaffffd0 	b	4cbc <__kernel_rem_pio2+0xabc>
    4d78:	2aaaaaab 	.word	0x2aaaaaab
    4d7c:	00006ee0 	.word	0x00006ee0
    4d80:	3e700000 	.word	0x3e700000
    4d84:	41700000 	.word	0x41700000
    4d88:	40200000 	.word	0x40200000
    4d8c:	3ff00000 	.word	0x3ff00000
    4d90:	3fe00000 	.word	0x3fe00000
    4d94:	00006ef0 	.word	0x00006ef0

00004d98 <__kernel_sin>:
    4d98:	e92d4ff0 	push	{r4, r5, r6, r7, r8, r9, r10, r11, lr}
    4d9c:	e3c1c102 	bic	r12, r1, #-2147483648	; 0x80000000
    4da0:	e35c05f9 	cmp	r12, #1044381696	; 0x3e400000
    4da4:	e24dd014 	sub	sp, sp, #20
    4da8:	e1a04000 	mov	r4, r0
    4dac:	e1a05001 	mov	r5, r1
    4db0:	e1a06000 	mov	r6, r0
    4db4:	e1a07001 	mov	r7, r1
    4db8:	e1a08002 	mov	r8, r2
    4dbc:	e1a09003 	mov	r9, r3
    4dc0:	aa000002 	bge	4dd0 <__kernel_sin+0x38>
    4dc4:	eb0004b1 	bl	6090 <__aeabi_d2iz>
    4dc8:	e3500000 	cmp	r0, #0
    4dcc:	0a000052 	beq	4f1c <__kernel_sin+0x184>
    4dd0:	e1a02004 	mov	r2, r4
    4dd4:	e1a03005 	mov	r3, r5
    4dd8:	e1a00004 	mov	r0, r4
    4ddc:	e1a01005 	mov	r1, r5
    4de0:	eb000332 	bl	5ab0 <__aeabi_dmul>
    4de4:	e1a02004 	mov	r2, r4
    4de8:	e1a03005 	mov	r3, r5
    4dec:	e1a06000 	mov	r6, r0
    4df0:	e1a07001 	mov	r7, r1
    4df4:	eb00032d 	bl	5ab0 <__aeabi_dmul>
    4df8:	e28f3d06 	add	r3, pc, #384	; 0x180
    4dfc:	e893000c 	ldm	r3, {r2, r3}
    4e00:	e1a0a000 	mov	r10, r0
    4e04:	e1a0b001 	mov	r11, r1
    4e08:	e1a00006 	mov	r0, r6
    4e0c:	e1a01007 	mov	r1, r7
    4e10:	eb000326 	bl	5ab0 <__aeabi_dmul>
    4e14:	e28f3f5b 	add	r3, pc, #364	; 0x16c
    4e18:	e893000c 	ldm	r3, {r2, r3}
    4e1c:	eb00021e 	bl	569c <__aeabi_dsub>
    4e20:	e1a02006 	mov	r2, r6
    4e24:	e1a03007 	mov	r3, r7
    4e28:	eb000320 	bl	5ab0 <__aeabi_dmul>
    4e2c:	e28f3f57 	add	r3, pc, #348	; 0x15c
    4e30:	e893000c 	ldm	r3, {r2, r3}
    4e34:	eb000219 	bl	56a0 <__adddf3>
    4e38:	e1a02006 	mov	r2, r6
    4e3c:	e1a03007 	mov	r3, r7
    4e40:	eb00031a 	bl	5ab0 <__aeabi_dmul>
    4e44:	e28f3f53 	add	r3, pc, #332	; 0x14c
    4e48:	e893000c 	ldm	r3, {r2, r3}
    4e4c:	eb000212 	bl	569c <__aeabi_dsub>
    4e50:	e1a02006 	mov	r2, r6
    4e54:	e1a03007 	mov	r3, r7
    4e58:	eb000314 	bl	5ab0 <__aeabi_dmul>
    4e5c:	e28f3f4f 	add	r3, pc, #316	; 0x13c
    4e60:	e893000c 	ldm	r3, {r2, r3}
    4e64:	eb00020d 	bl	56a0 <__adddf3>
    4e68:	e59d3038 	ldr	r3, [sp, #56]	; 0x38
    4e6c:	e3530000 	cmp	r3, #0
    4e70:	e88d0003 	stm	sp, {r0, r1}
    4e74:	0a00002d 	beq	4f30 <__kernel_sin+0x198>
    4e78:	e3a02000 	mov	r2, #0
    4e7c:	e59f312c 	ldr	r3, [pc, #300]	; 4fb0 <__kernel_sin+0x218>
    4e80:	e1a00008 	mov	r0, r8
    4e84:	e1a01009 	mov	r1, r9
    4e88:	eb000308 	bl	5ab0 <__aeabi_dmul>
    4e8c:	e89d000c 	ldm	sp, {r2, r3}
    4e90:	e58d0008 	str	r0, [sp, #8]
    4e94:	e58d100c 	str	r1, [sp, #12]
    4e98:	e1a0000a 	mov	r0, r10
    4e9c:	e1a0100b 	mov	r1, r11
    4ea0:	eb000302 	bl	5ab0 <__aeabi_dmul>
    4ea4:	e1a02000 	mov	r2, r0
    4ea8:	e1a03001 	mov	r3, r1
    4eac:	e28d1008 	add	r1, sp, #8
    4eb0:	e8910003 	ldm	r1, {r0, r1}
    4eb4:	eb0001f8 	bl	569c <__aeabi_dsub>
    4eb8:	e1a02006 	mov	r2, r6
    4ebc:	e1a03007 	mov	r3, r7
    4ec0:	eb0002fa 	bl	5ab0 <__aeabi_dmul>
    4ec4:	e1a02008 	mov	r2, r8
    4ec8:	e1a03009 	mov	r3, r9
    4ecc:	eb0001f2 	bl	569c <__aeabi_dsub>
    4ed0:	e28f30d0 	add	r3, pc, #208	; 0xd0
    4ed4:	e893000c 	ldm	r3, {r2, r3}
    4ed8:	e1a06000 	mov	r6, r0
    4edc:	e1a07001 	mov	r7, r1
    4ee0:	e1a0000a 	mov	r0, r10
    4ee4:	e1a0100b 	mov	r1, r11
    4ee8:	eb0002f0 	bl	5ab0 <__aeabi_dmul>
    4eec:	e1a02000 	mov	r2, r0
    4ef0:	e1a03001 	mov	r3, r1
    4ef4:	e1a00006 	mov	r0, r6
    4ef8:	e1a01007 	mov	r1, r7
    4efc:	eb0001e7 	bl	56a0 <__adddf3>
    4f00:	e1a02000 	mov	r2, r0
    4f04:	e1a03001 	mov	r3, r1
    4f08:	e1a00004 	mov	r0, r4
    4f0c:	e1a01005 	mov	r1, r5
    4f10:	eb0001e1 	bl	569c <__aeabi_dsub>
    4f14:	e1a04000 	mov	r4, r0
    4f18:	e1a05001 	mov	r5, r1
    4f1c:	e1a00004 	mov	r0, r4
    4f20:	e1a01005 	mov	r1, r5
    4f24:	e28dd014 	add	sp, sp, #20
    4f28:	e8bd4ff0 	pop	{r4, r5, r6, r7, r8, r9, r10, r11, lr}
    4f2c:	e12fff1e 	bx	lr
    4f30:	e1a02000 	mov	r2, r0
    4f34:	e1a03001 	mov	r3, r1
    4f38:	e1a00006 	mov	r0, r6
    4f3c:	e1a01007 	mov	r1, r7
    4f40:	eb0002da 	bl	5ab0 <__aeabi_dmul>
    4f44:	e28f305c 	add	r3, pc, #92	; 0x5c
    4f48:	e893000c 	ldm	r3, {r2, r3}
    4f4c:	eb0001d2 	bl	569c <__aeabi_dsub>
    4f50:	e1a0200a 	mov	r2, r10
    4f54:	e1a0300b 	mov	r3, r11
    4f58:	eb0002d4 	bl	5ab0 <__aeabi_dmul>
    4f5c:	e1a02000 	mov	r2, r0
    4f60:	e1a03001 	mov	r3, r1
    4f64:	e1a00004 	mov	r0, r4
    4f68:	e1a01005 	mov	r1, r5
    4f6c:	eb0001cb 	bl	56a0 <__adddf3>
    4f70:	e1a04000 	mov	r4, r0
    4f74:	e1a05001 	mov	r5, r1
    4f78:	eaffffe7 	b	4f1c <__kernel_sin+0x184>
    4f7c:	e1a00000 	nop			; (mov r0, r0)
    4f80:	5acfd57c 	.word	0x5acfd57c
    4f84:	3de5d93a 	.word	0x3de5d93a
    4f88:	8a2b9ceb 	.word	0x8a2b9ceb
    4f8c:	3e5ae5e6 	.word	0x3e5ae5e6
    4f90:	57b1fe7d 	.word	0x57b1fe7d
    4f94:	3ec71de3 	.word	0x3ec71de3
    4f98:	19c161d5 	.word	0x19c161d5
    4f9c:	3f2a01a0 	.word	0x3f2a01a0
    4fa0:	1110f8a6 	.word	0x1110f8a6
    4fa4:	3f811111 	.word	0x3f811111
    4fa8:	55555549 	.word	0x55555549
    4fac:	3fc55555 	.word	0x3fc55555
    4fb0:	3fe00000 	.word	0x3fe00000
    4fb4:	e1a00000 	nop			; (mov r0, r0)

00004fb8 <fabs>:
    4fb8:	e3c11102 	bic	r1, r1, #-2147483648	; 0x80000000
    4fbc:	e12fff1e 	bx	lr

00004fc0 <finite>:
    4fc0:	e3811102 	orr	r1, r1, #-2147483648	; 0x80000000
    4fc4:	e2810601 	add	r0, r1, #1048576	; 0x100000
    4fc8:	e1a00fa0 	lsr	r0, r0, #31
    4fcc:	e12fff1e 	bx	lr

00004fd0 <floor>:
    4fd0:	e92d45f8 	push	{r3, r4, r5, r6, r7, r8, r10, lr}
    4fd4:	e1a08081 	lsl	r8, r1, #1
    4fd8:	e1a08aa8 	lsr	r8, r8, #21
    4fdc:	e2486fff 	sub	r6, r8, #1020	; 0x3fc
    4fe0:	e2466003 	sub	r6, r6, #3
    4fe4:	e3560013 	cmp	r6, #19
    4fe8:	e1a02000 	mov	r2, r0
    4fec:	e1a03001 	mov	r3, r1
    4ff0:	e1a04000 	mov	r4, r0
    4ff4:	e1a05001 	mov	r5, r1
    4ff8:	e1a07001 	mov	r7, r1
    4ffc:	ca000019 	bgt	5068 <floor+0x98>
    5000:	e3560000 	cmp	r6, #0
    5004:	ba000034 	blt	50dc <floor+0x10c>
    5008:	e59f8150 	ldr	r8, [pc, #336]	; 5160 <floor+0x190>
    500c:	e1a08658 	asr	r8, r8, r6
    5010:	e008c001 	and	r12, r8, r1
    5014:	e19cc000 	orrs	r12, r12, r0
    5018:	0a00000e 	beq	5058 <floor+0x88>
    501c:	e28f3f4d 	add	r3, pc, #308	; 0x134
    5020:	e893000c 	ldm	r3, {r2, r3}
    5024:	eb00019d 	bl	56a0 <__adddf3>
    5028:	e3a02000 	mov	r2, #0
    502c:	e3a03000 	mov	r3, #0
    5030:	eb000410 	bl	6078 <__aeabi_dcmpgt>
    5034:	e3500000 	cmp	r0, #0
    5038:	0a000004 	beq	5050 <floor+0x80>
    503c:	e3550000 	cmp	r5, #0
    5040:	b3a03601 	movlt	r3, #1048576	; 0x100000
    5044:	b0855653 	addlt	r5, r5, r3, asr r6
    5048:	e3a04000 	mov	r4, #0
    504c:	e1c57008 	bic	r7, r5, r8
    5050:	e1a03007 	mov	r3, r7
    5054:	e1a02004 	mov	r2, r4
    5058:	e1a00002 	mov	r0, r2
    505c:	e1a01003 	mov	r1, r3
    5060:	e8bd45f8 	pop	{r3, r4, r5, r6, r7, r8, r10, lr}
    5064:	e12fff1e 	bx	lr
    5068:	e3560033 	cmp	r6, #51	; 0x33
    506c:	da000005 	ble	5088 <floor+0xb8>
    5070:	e3560b01 	cmp	r6, #1024	; 0x400
    5074:	1afffff7 	bne	5058 <floor+0x88>
    5078:	eb000188 	bl	56a0 <__adddf3>
    507c:	e1a02000 	mov	r2, r0
    5080:	e1a03001 	mov	r3, r1
    5084:	eafffff3 	b	5058 <floor+0x88>
    5088:	e248ae41 	sub	r10, r8, #1040	; 0x410
    508c:	e24aa003 	sub	r10, r10, #3
    5090:	e3e0c000 	mvn	r12, #0
    5094:	e1a0aa3c 	lsr	r10, r12, r10
    5098:	e11a0000 	tst	r10, r0
    509c:	0affffed 	beq	5058 <floor+0x88>
    50a0:	e28f30b0 	add	r3, pc, #176	; 0xb0
    50a4:	e893000c 	ldm	r3, {r2, r3}
    50a8:	eb00017c 	bl	56a0 <__adddf3>
    50ac:	e3a02000 	mov	r2, #0
    50b0:	e3a03000 	mov	r3, #0
    50b4:	eb0003ef 	bl	6078 <__aeabi_dcmpgt>
    50b8:	e3500000 	cmp	r0, #0
    50bc:	0affffe3 	beq	5050 <floor+0x80>
    50c0:	e3550000 	cmp	r5, #0
    50c4:	ba000017 	blt	5128 <floor+0x158>
    50c8:	e1c4400a 	bic	r4, r4, r10
    50cc:	e1a07005 	mov	r7, r5
    50d0:	e1a03007 	mov	r3, r7
    50d4:	e1a02004 	mov	r2, r4
    50d8:	eaffffde 	b	5058 <floor+0x88>
    50dc:	e28f3074 	add	r3, pc, #116	; 0x74
    50e0:	e893000c 	ldm	r3, {r2, r3}
    50e4:	eb00016d 	bl	56a0 <__adddf3>
    50e8:	e3a02000 	mov	r2, #0
    50ec:	e3a03000 	mov	r3, #0
    50f0:	eb0003e0 	bl	6078 <__aeabi_dcmpgt>
    50f4:	e3500000 	cmp	r0, #0
    50f8:	0affffd4 	beq	5050 <floor+0x80>
    50fc:	e3550000 	cmp	r5, #0
    5100:	a3a04000 	movge	r4, #0
    5104:	a1a07004 	movge	r7, r4
    5108:	aaffffd0 	bge	5050 <floor+0x80>
    510c:	e3c73102 	bic	r3, r7, #-2147483648	; 0x80000000
    5110:	e1833004 	orr	r3, r3, r4
    5114:	e3530000 	cmp	r3, #0
    5118:	e59f3044 	ldr	r3, [pc, #68]	; 5164 <floor+0x194>
    511c:	13a04000 	movne	r4, #0
    5120:	11a07003 	movne	r7, r3
    5124:	eaffffc9 	b	5050 <floor+0x80>
    5128:	e3560014 	cmp	r6, #20
    512c:	02855001 	addeq	r5, r5, #1
    5130:	0affffe4 	beq	50c8 <floor+0xf8>
    5134:	e2688e43 	rsb	r8, r8, #1072	; 0x430
    5138:	e2888003 	add	r8, r8, #3
    513c:	e3a03001 	mov	r3, #1
    5140:	e0843813 	add	r3, r4, r3, lsl r8
    5144:	e1540003 	cmp	r4, r3
    5148:	82855001 	addhi	r5, r5, #1
    514c:	e1a04003 	mov	r4, r3
    5150:	eaffffdc 	b	50c8 <floor+0xf8>
    5154:	e1a00000 	nop			; (mov r0, r0)
    5158:	8800759c 	.word	0x8800759c
    515c:	7e37e43c 	.word	0x7e37e43c
    5160:	000fffff 	.word	0x000fffff
    5164:	bff00000 	.word	0xbff00000

00005168 <__fpclassifyd>:
    5168:	e1902001 	orrs	r2, r0, r1
    516c:	1a000001 	bne	5178 <__fpclassifyd+0x10>
    5170:	e3a00002 	mov	r0, #2
    5174:	e12fff1e 	bx	lr
    5178:	e2702001 	rsbs	r2, r0, #1
    517c:	33a02000 	movcc	r2, #0
    5180:	e3510102 	cmp	r1, #-2147483648	; 0x80000000
    5184:	03500000 	cmpeq	r0, #0
    5188:	0afffff8 	beq	5170 <__fpclassifyd+0x8>
    518c:	e3c13102 	bic	r3, r1, #-2147483648	; 0x80000000
    5190:	e59f1034 	ldr	r1, [pc, #52]	; 51cc <__fpclassifyd+0x64>
    5194:	e2430601 	sub	r0, r3, #1048576	; 0x100000
    5198:	e1500001 	cmp	r0, r1
    519c:	8a000001 	bhi	51a8 <__fpclassifyd+0x40>
    51a0:	e3a00004 	mov	r0, #4
    51a4:	e12fff1e 	bx	lr
    51a8:	e3530601 	cmp	r3, #1048576	; 0x100000
    51ac:	2a000001 	bcs	51b8 <__fpclassifyd+0x50>
    51b0:	e3a00003 	mov	r0, #3
    51b4:	e12fff1e 	bx	lr
    51b8:	e59f0010 	ldr	r0, [pc, #16]	; 51d0 <__fpclassifyd+0x68>
    51bc:	e1530000 	cmp	r3, r0
    51c0:	13a00000 	movne	r0, #0
    51c4:	02020001 	andeq	r0, r2, #1
    51c8:	e12fff1e 	bx	lr
    51cc:	7fdfffff 	.word	0x7fdfffff
    51d0:	7ff00000 	.word	0x7ff00000

000051d4 <matherr>:
    51d4:	e3a00000 	mov	r0, #0
    51d8:	e12fff1e 	bx	lr

000051dc <nan>:
    51dc:	e3a00000 	mov	r0, #0
    51e0:	e59f1000 	ldr	r1, [pc]	; 51e8 <nan+0xc>
    51e4:	e12fff1e 	bx	lr
    51e8:	7ff80000 	.word	0x7ff80000

000051ec <rint>:
    51ec:	e92d43f0 	push	{r4, r5, r6, r7, r8, r9, lr}
    51f0:	e1a07081 	lsl	r7, r1, #1
    51f4:	e1a07aa7 	lsr	r7, r7, #21
    51f8:	e247cfff 	sub	r12, r7, #1020	; 0x3fc
    51fc:	e24cc003 	sub	r12, r12, #3
    5200:	e35c0013 	cmp	r12, #19
    5204:	e24dd00c 	sub	sp, sp, #12
    5208:	e1a02000 	mov	r2, r0
    520c:	e1a03001 	mov	r3, r1
    5210:	e1a04000 	mov	r4, r0
    5214:	e1a05001 	mov	r5, r1
    5218:	e1a06001 	mov	r6, r1
    521c:	e1a08fa1 	lsr	r8, r1, #31
    5220:	ca000026 	bgt	52c0 <rint+0xd4>
    5224:	e35c0000 	cmp	r12, #0
    5228:	ba000038 	blt	5310 <rint+0x124>
    522c:	e59f1150 	ldr	r1, [pc, #336]	; 5384 <rint+0x198>
    5230:	e1a01c51 	asr	r1, r1, r12
    5234:	e0010003 	and	r0, r1, r3
    5238:	e1900002 	orrs	r0, r0, r2
    523c:	0a00001a 	beq	52ac <rint+0xc0>
    5240:	e1a010a1 	lsr	r1, r1, #1
    5244:	e0013003 	and	r3, r1, r3
    5248:	e1934002 	orrs	r4, r3, r2
    524c:	0a000005 	beq	5268 <rint+0x7c>
    5250:	e1c51001 	bic	r1, r5, r1
    5254:	e3a05701 	mov	r5, #262144	; 0x40000
    5258:	e1815c55 	orr	r5, r1, r5, asr r12
    525c:	e35c0013 	cmp	r12, #19
    5260:	03a04102 	moveq	r4, #-2147483648	; 0x80000000
    5264:	13a04000 	movne	r4, #0
    5268:	e59f3118 	ldr	r3, [pc, #280]	; 5388 <rint+0x19c>
    526c:	e0838188 	add	r8, r3, r8, lsl #3
    5270:	e8980300 	ldm	r8, {r8, r9}
    5274:	e1a02004 	mov	r2, r4
    5278:	e1a03005 	mov	r3, r5
    527c:	e1a00008 	mov	r0, r8
    5280:	e1a01009 	mov	r1, r9
    5284:	eb000105 	bl	56a0 <__adddf3>
    5288:	e88d0003 	stm	sp, {r0, r1}
    528c:	e1a02008 	mov	r2, r8
    5290:	e1a03009 	mov	r3, r9
    5294:	e89d0003 	ldm	sp, {r0, r1}
    5298:	eb0000ff 	bl	569c <__aeabi_dsub>
    529c:	e1a07005 	mov	r7, r5
    52a0:	e1a06004 	mov	r6, r4
    52a4:	e1a02000 	mov	r2, r0
    52a8:	e1a03001 	mov	r3, r1
    52ac:	e1a00002 	mov	r0, r2
    52b0:	e1a01003 	mov	r1, r3
    52b4:	e28dd00c 	add	sp, sp, #12
    52b8:	e8bd43f0 	pop	{r4, r5, r6, r7, r8, r9, lr}
    52bc:	e12fff1e 	bx	lr
    52c0:	e35c0033 	cmp	r12, #51	; 0x33
    52c4:	da000005 	ble	52e0 <rint+0xf4>
    52c8:	e35c0b01 	cmp	r12, #1024	; 0x400
    52cc:	1afffff6 	bne	52ac <rint+0xc0>
    52d0:	eb0000f2 	bl	56a0 <__adddf3>
    52d4:	e1a02000 	mov	r2, r0
    52d8:	e1a03001 	mov	r3, r1
    52dc:	eafffff2 	b	52ac <rint+0xc0>
    52e0:	e2477e41 	sub	r7, r7, #1040	; 0x410
    52e4:	e2477003 	sub	r7, r7, #3
    52e8:	e3e01000 	mvn	r1, #0
    52ec:	e1a01731 	lsr	r1, r1, r7
    52f0:	e1110000 	tst	r1, r0
    52f4:	0affffec 	beq	52ac <rint+0xc0>
    52f8:	e1a010a1 	lsr	r1, r1, #1
    52fc:	e1110000 	tst	r1, r0
    5300:	11c04001 	bicne	r4, r0, r1
    5304:	13a03101 	movne	r3, #1073741824	; 0x40000000
    5308:	11844753 	orrne	r4, r4, r3, asr r7
    530c:	eaffffd5 	b	5268 <rint+0x7c>
    5310:	e3c11102 	bic	r1, r1, #-2147483648	; 0x80000000
    5314:	e1911000 	orrs	r1, r1, r0
    5318:	0affffe3 	beq	52ac <rint+0xc0>
    531c:	e3c314ff 	bic	r1, r3, #-16777216	; 0xff000000
    5320:	e3c1160f 	bic	r1, r1, #15728640	; 0xf00000
    5324:	e1814000 	orr	r4, r1, r0
    5328:	e59f0058 	ldr	r0, [pc, #88]	; 5388 <rint+0x19c>
    532c:	e2641000 	rsb	r1, r4, #0
    5330:	e1814004 	orr	r4, r1, r4
    5334:	e0800188 	add	r0, r0, r8, lsl #3
    5338:	e1a01624 	lsr	r1, r4, #12
    533c:	e8900030 	ldm	r0, {r4, r5}
    5340:	e2011702 	and	r1, r1, #524288	; 0x80000
    5344:	e1a068a3 	lsr	r6, r3, #17
    5348:	e1813886 	orr	r3, r1, r6, lsl #17
    534c:	e1a00004 	mov	r0, r4
    5350:	e1a01005 	mov	r1, r5
    5354:	eb0000d1 	bl	56a0 <__adddf3>
    5358:	e88d0003 	stm	sp, {r0, r1}
    535c:	e1a02004 	mov	r2, r4
    5360:	e1a03005 	mov	r3, r5
    5364:	e89d0003 	ldm	sp, {r0, r1}
    5368:	eb0000cb 	bl	569c <__aeabi_dsub>
    536c:	e1a05001 	mov	r5, r1
    5370:	e3c11102 	bic	r1, r1, #-2147483648	; 0x80000000
    5374:	e1a04000 	mov	r4, r0
    5378:	e1a02000 	mov	r2, r0
    537c:	e1813f88 	orr	r3, r1, r8, lsl #31
    5380:	eaffffc9 	b	52ac <rint+0xc0>
    5384:	000fffff 	.word	0x000fffff
    5388:	00006f30 	.word	0x00006f30
    538c:	00000000 	.word	0x00000000

00005390 <scalbn>:
    5390:	e59f3170 	ldr	r3, [pc, #368]	; 5508 <scalbn+0x178>
    5394:	e0013003 	and	r3, r1, r3
    5398:	e1b03a43 	asrs	r3, r3, #20
    539c:	e92d41f0 	push	{r4, r5, r6, r7, r8, lr}
    53a0:	e1a04000 	mov	r4, r0
    53a4:	e1a05001 	mov	r5, r1
    53a8:	e1a06000 	mov	r6, r0
    53ac:	e1a07001 	mov	r7, r1
    53b0:	e1a08002 	mov	r8, r2
    53b4:	1a000011 	bne	5400 <scalbn+0x70>
    53b8:	e3c1c102 	bic	r12, r1, #-2147483648	; 0x80000000
    53bc:	e19cc000 	orrs	r12, r12, r0
    53c0:	0a00001d 	beq	543c <scalbn+0xac>
    53c4:	e59f3140 	ldr	r3, [pc, #320]	; 550c <scalbn+0x17c>
    53c8:	e3a02000 	mov	r2, #0
    53cc:	eb0001b7 	bl	5ab0 <__aeabi_dmul>
    53d0:	e59f3138 	ldr	r3, [pc, #312]	; 5510 <scalbn+0x180>
    53d4:	e1580003 	cmp	r8, r3
    53d8:	e1a04000 	mov	r4, r0
    53dc:	e1a05001 	mov	r5, r1
    53e0:	e1a06000 	mov	r6, r0
    53e4:	e1a07001 	mov	r7, r1
    53e8:	ba000021 	blt	5474 <scalbn+0xe4>
    53ec:	e59f3114 	ldr	r3, [pc, #276]	; 5508 <scalbn+0x178>
    53f0:	e0013003 	and	r3, r1, r3
    53f4:	e1a03a43 	asr	r3, r3, #20
    53f8:	e2433036 	sub	r3, r3, #54	; 0x36
    53fc:	ea000003 	b	5410 <scalbn+0x80>
    5400:	e59f210c 	ldr	r2, [pc, #268]	; 5514 <scalbn+0x184>
    5404:	e1530002 	cmp	r3, r2
    5408:	11a01001 	movne	r1, r1
    540c:	0a000027 	beq	54b0 <scalbn+0x120>
    5410:	e59f2100 	ldr	r2, [pc, #256]	; 5518 <scalbn+0x188>
    5414:	e0833008 	add	r3, r3, r8
    5418:	e1530002 	cmp	r3, r2
    541c:	c1a02004 	movgt	r2, r4
    5420:	c1a03005 	movgt	r3, r5
    5424:	ca000018 	bgt	548c <scalbn+0xfc>
    5428:	e3530000 	cmp	r3, #0
    542c:	da000006 	ble	544c <scalbn+0xbc>
    5430:	e3c1147f 	bic	r1, r1, #2130706432	; 0x7f000000
    5434:	e3c1160f 	bic	r1, r1, #15728640	; 0xf00000
    5438:	e1815a03 	orr	r5, r1, r3, lsl #20
    543c:	e1a00004 	mov	r0, r4
    5440:	e1a01005 	mov	r1, r5
    5444:	e8bd41f0 	pop	{r4, r5, r6, r7, r8, lr}
    5448:	e12fff1e 	bx	lr
    544c:	e3730035 	cmn	r3, #53	; 0x35
    5450:	aa00001c 	bge	54c8 <scalbn+0x138>
    5454:	e59f30c0 	ldr	r3, [pc, #192]	; 551c <scalbn+0x18c>
    5458:	e1580003 	cmp	r8, r3
    545c:	e1a02004 	mov	r2, r4
    5460:	e1a03005 	mov	r3, r5
    5464:	ca000008 	bgt	548c <scalbn+0xfc>
    5468:	e28f1088 	add	r1, pc, #136	; 0x88
    546c:	e8910003 	ldm	r1, {r0, r1}
    5470:	eb00002c 	bl	5528 <copysign>
    5474:	e28f307c 	add	r3, pc, #124	; 0x7c
    5478:	e893000c 	ldm	r3, {r2, r3}
    547c:	eb00018b 	bl	5ab0 <__aeabi_dmul>
    5480:	e1a04000 	mov	r4, r0
    5484:	e1a05001 	mov	r5, r1
    5488:	eaffffeb 	b	543c <scalbn+0xac>
    548c:	e28f106c 	add	r1, pc, #108	; 0x6c
    5490:	e8910003 	ldm	r1, {r0, r1}
    5494:	eb000023 	bl	5528 <copysign>
    5498:	e28f3060 	add	r3, pc, #96	; 0x60
    549c:	e893000c 	ldm	r3, {r2, r3}
    54a0:	eb000182 	bl	5ab0 <__aeabi_dmul>
    54a4:	e1a04000 	mov	r4, r0
    54a8:	e1a05001 	mov	r5, r1
    54ac:	eaffffe2 	b	543c <scalbn+0xac>
    54b0:	e1a03005 	mov	r3, r5
    54b4:	e1a02000 	mov	r2, r0
    54b8:	eb000078 	bl	56a0 <__adddf3>
    54bc:	e1a04000 	mov	r4, r0
    54c0:	e1a05001 	mov	r5, r1
    54c4:	eaffffdc 	b	543c <scalbn+0xac>
    54c8:	e3c1147f 	bic	r1, r1, #2130706432	; 0x7f000000
    54cc:	e2833036 	add	r3, r3, #54	; 0x36
    54d0:	e3c1160f 	bic	r1, r1, #15728640	; 0xf00000
    54d4:	e1815a03 	orr	r5, r1, r3, lsl #20
    54d8:	e1a00004 	mov	r0, r4
    54dc:	e1a01005 	mov	r1, r5
    54e0:	e3a02000 	mov	r2, #0
    54e4:	e59f3034 	ldr	r3, [pc, #52]	; 5520 <scalbn+0x190>
    54e8:	eb000170 	bl	5ab0 <__aeabi_dmul>
    54ec:	e1a04000 	mov	r4, r0
    54f0:	e1a05001 	mov	r5, r1
    54f4:	eaffffd0 	b	543c <scalbn+0xac>
    54f8:	c2f8f359 	.word	0xc2f8f359
    54fc:	01a56e1f 	.word	0x01a56e1f
    5500:	8800759c 	.word	0x8800759c
    5504:	7e37e43c 	.word	0x7e37e43c
    5508:	7ff00000 	.word	0x7ff00000
    550c:	43500000 	.word	0x43500000
    5510:	ffff3cb0 	.word	0xffff3cb0
    5514:	000007ff 	.word	0x000007ff
    5518:	000007fe 	.word	0x000007fe
    551c:	0000c350 	.word	0x0000c350
    5520:	3c900000 	.word	0x3c900000
    5524:	e1a00000 	nop			; (mov r0, r0)

00005528 <copysign>:
    5528:	e2033102 	and	r3, r3, #-2147483648	; 0x80000000
    552c:	e3c12102 	bic	r2, r1, #-2147483648	; 0x80000000
    5530:	e92d0030 	push	{r4, r5}
    5534:	e1a05001 	mov	r5, r1
    5538:	e1a04000 	mov	r4, r0
    553c:	e1831002 	orr	r1, r3, r2
    5540:	e8bd0030 	pop	{r4, r5}
    5544:	e12fff1e 	bx	lr

00005548 <__aeabi_idiv>:
    5548:	e3510000 	cmp	r1, #0
    554c:	0a000043 	beq	5660 <.divsi3_skip_div0_test+0x110>

00005550 <.divsi3_skip_div0_test>:
    5550:	e020c001 	eor	r12, r0, r1
    5554:	42611000 	rsbmi	r1, r1, #0
    5558:	e2512001 	subs	r2, r1, #1
    555c:	0a000027 	beq	5600 <.divsi3_skip_div0_test+0xb0>
    5560:	e1b03000 	movs	r3, r0
    5564:	42603000 	rsbmi	r3, r0, #0
    5568:	e1530001 	cmp	r3, r1
    556c:	9a000026 	bls	560c <.divsi3_skip_div0_test+0xbc>
    5570:	e1110002 	tst	r1, r2
    5574:	0a000028 	beq	561c <.divsi3_skip_div0_test+0xcc>
    5578:	e311020e 	tst	r1, #-536870912	; 0xe0000000
    557c:	01a01181 	lsleq	r1, r1, #3
    5580:	03a02008 	moveq	r2, #8
    5584:	13a02001 	movne	r2, #1
    5588:	e3510201 	cmp	r1, #268435456	; 0x10000000
    558c:	31510003 	cmpcc	r1, r3
    5590:	31a01201 	lslcc	r1, r1, #4
    5594:	31a02202 	lslcc	r2, r2, #4
    5598:	3afffffa 	bcc	5588 <.divsi3_skip_div0_test+0x38>
    559c:	e3510102 	cmp	r1, #-2147483648	; 0x80000000
    55a0:	31510003 	cmpcc	r1, r3
    55a4:	31a01081 	lslcc	r1, r1, #1
    55a8:	31a02082 	lslcc	r2, r2, #1
    55ac:	3afffffa 	bcc	559c <.divsi3_skip_div0_test+0x4c>
    55b0:	e3a00000 	mov	r0, #0
    55b4:	e1530001 	cmp	r3, r1
    55b8:	20433001 	subcs	r3, r3, r1
    55bc:	21800002 	orrcs	r0, r0, r2
    55c0:	e15300a1 	cmp	r3, r1, lsr #1
    55c4:	204330a1 	subcs	r3, r3, r1, lsr #1
    55c8:	218000a2 	orrcs	r0, r0, r2, lsr #1
    55cc:	e1530121 	cmp	r3, r1, lsr #2
    55d0:	20433121 	subcs	r3, r3, r1, lsr #2
    55d4:	21800122 	orrcs	r0, r0, r2, lsr #2
    55d8:	e15301a1 	cmp	r3, r1, lsr #3
    55dc:	204331a1 	subcs	r3, r3, r1, lsr #3
    55e0:	218001a2 	orrcs	r0, r0, r2, lsr #3
    55e4:	e3530000 	cmp	r3, #0
    55e8:	11b02222 	lsrsne	r2, r2, #4
    55ec:	11a01221 	lsrne	r1, r1, #4
    55f0:	1affffef 	bne	55b4 <.divsi3_skip_div0_test+0x64>
    55f4:	e35c0000 	cmp	r12, #0
    55f8:	42600000 	rsbmi	r0, r0, #0
    55fc:	e12fff1e 	bx	lr
    5600:	e13c0000 	teq	r12, r0
    5604:	42600000 	rsbmi	r0, r0, #0
    5608:	e12fff1e 	bx	lr
    560c:	33a00000 	movcc	r0, #0
    5610:	01a00fcc 	asreq	r0, r12, #31
    5614:	03800001 	orreq	r0, r0, #1
    5618:	e12fff1e 	bx	lr
    561c:	e3510801 	cmp	r1, #65536	; 0x10000
    5620:	21a01821 	lsrcs	r1, r1, #16
    5624:	23a02010 	movcs	r2, #16
    5628:	33a02000 	movcc	r2, #0
    562c:	e3510c01 	cmp	r1, #256	; 0x100
    5630:	21a01421 	lsrcs	r1, r1, #8
    5634:	22822008 	addcs	r2, r2, #8
    5638:	e3510010 	cmp	r1, #16
    563c:	21a01221 	lsrcs	r1, r1, #4
    5640:	22822004 	addcs	r2, r2, #4
    5644:	e3510004 	cmp	r1, #4
    5648:	82822003 	addhi	r2, r2, #3
    564c:	908220a1 	addls	r2, r2, r1, lsr #1
    5650:	e35c0000 	cmp	r12, #0
    5654:	e1a00233 	lsr	r0, r3, r2
    5658:	42600000 	rsbmi	r0, r0, #0
    565c:	e12fff1e 	bx	lr
    5660:	e3500000 	cmp	r0, #0
    5664:	c3e00102 	mvngt	r0, #-2147483648	; 0x80000000
    5668:	b3a00102 	movlt	r0, #-2147483648	; 0x80000000
    566c:	ea000007 	b	5690 <__aeabi_idiv0>

00005670 <__aeabi_idivmod>:
    5670:	e3510000 	cmp	r1, #0
    5674:	0afffff9 	beq	5660 <.divsi3_skip_div0_test+0x110>
    5678:	e92d4003 	push	{r0, r1, lr}
    567c:	ebffffb3 	bl	5550 <.divsi3_skip_div0_test>
    5680:	e8bd4006 	pop	{r1, r2, lr}
    5684:	e0030092 	mul	r3, r2, r0
    5688:	e0411003 	sub	r1, r1, r3
    568c:	e12fff1e 	bx	lr

00005690 <__aeabi_idiv0>:
    5690:	e12fff1e 	bx	lr

00005694 <__aeabi_drsub>:
    5694:	e2211102 	eor	r1, r1, #-2147483648	; 0x80000000
    5698:	ea000000 	b	56a0 <__adddf3>

0000569c <__aeabi_dsub>:
    569c:	e2233102 	eor	r3, r3, #-2147483648	; 0x80000000

000056a0 <__adddf3>:
    56a0:	e92d4030 	push	{r4, r5, lr}
    56a4:	e1a04081 	lsl	r4, r1, #1
    56a8:	e1a05083 	lsl	r5, r3, #1
    56ac:	e1340005 	teq	r4, r5
    56b0:	01300002 	teqeq	r0, r2
    56b4:	1194c000 	orrsne	r12, r4, r0
    56b8:	1195c002 	orrsne	r12, r5, r2
    56bc:	11f0cac4 	mvnsne	r12, r4, asr #21
    56c0:	11f0cac5 	mvnsne	r12, r5, asr #21
    56c4:	0a00008c 	beq	58fc <__adddf3+0x25c>
    56c8:	e1a04aa4 	lsr	r4, r4, #21
    56cc:	e0745aa5 	rsbs	r5, r4, r5, lsr #21
    56d0:	b2655000 	rsblt	r5, r5, #0
    56d4:	da000006 	ble	56f4 <__adddf3+0x54>
    56d8:	e0844005 	add	r4, r4, r5
    56dc:	e0202002 	eor	r2, r0, r2
    56e0:	e0213003 	eor	r3, r1, r3
    56e4:	e0220000 	eor	r0, r2, r0
    56e8:	e0231001 	eor	r1, r3, r1
    56ec:	e0202002 	eor	r2, r0, r2
    56f0:	e0213003 	eor	r3, r1, r3
    56f4:	e3550036 	cmp	r5, #54	; 0x36
    56f8:	88bd4030 	pophi	{r4, r5, lr}
    56fc:	812fff1e 	bxhi	lr
    5700:	e3110102 	tst	r1, #-2147483648	; 0x80000000
    5704:	e1a01601 	lsl	r1, r1, #12
    5708:	e3a0c601 	mov	r12, #1048576	; 0x100000
    570c:	e18c1621 	orr	r1, r12, r1, lsr #12
    5710:	0a000001 	beq	571c <__adddf3+0x7c>
    5714:	e2700000 	rsbs	r0, r0, #0
    5718:	e2e11000 	rsc	r1, r1, #0
    571c:	e3130102 	tst	r3, #-2147483648	; 0x80000000
    5720:	e1a03603 	lsl	r3, r3, #12
    5724:	e18c3623 	orr	r3, r12, r3, lsr #12
    5728:	0a000001 	beq	5734 <__adddf3+0x94>
    572c:	e2722000 	rsbs	r2, r2, #0
    5730:	e2e33000 	rsc	r3, r3, #0
    5734:	e1340005 	teq	r4, r5
    5738:	0a000069 	beq	58e4 <__adddf3+0x244>
    573c:	e2444001 	sub	r4, r4, #1
    5740:	e275e020 	rsbs	lr, r5, #32
    5744:	ba000005 	blt	5760 <__adddf3+0xc0>
    5748:	e1a0ce12 	lsl	r12, r2, lr
    574c:	e0900532 	adds	r0, r0, r2, lsr r5
    5750:	e2a11000 	adc	r1, r1, #0
    5754:	e0900e13 	adds	r0, r0, r3, lsl lr
    5758:	e0b11553 	adcs	r1, r1, r3, asr r5
    575c:	ea000006 	b	577c <__adddf3+0xdc>
    5760:	e2455020 	sub	r5, r5, #32
    5764:	e28ee020 	add	lr, lr, #32
    5768:	e3520001 	cmp	r2, #1
    576c:	e1a0ce13 	lsl	r12, r3, lr
    5770:	238cc002 	orrcs	r12, r12, #2
    5774:	e0900553 	adds	r0, r0, r3, asr r5
    5778:	e0b11fc3 	adcs	r1, r1, r3, asr #31
    577c:	e2015102 	and	r5, r1, #-2147483648	; 0x80000000
    5780:	5a000002 	bpl	5790 <__adddf3+0xf0>
    5784:	e27cc000 	rsbs	r12, r12, #0
    5788:	e2f00000 	rscs	r0, r0, #0
    578c:	e2e11000 	rsc	r1, r1, #0
    5790:	e3510601 	cmp	r1, #1048576	; 0x100000
    5794:	3a00000f 	bcc	57d8 <__adddf3+0x138>
    5798:	e3510602 	cmp	r1, #2097152	; 0x200000
    579c:	3a000006 	bcc	57bc <__adddf3+0x11c>
    57a0:	e1b010a1 	lsrs	r1, r1, #1
    57a4:	e1b00060 	rrxs	r0, r0
    57a8:	e1a0c06c 	rrx	r12, r12
    57ac:	e2844001 	add	r4, r4, #1
    57b0:	e1a02a84 	lsl	r2, r4, #21
    57b4:	e3720501 	cmn	r2, #4194304	; 0x400000
    57b8:	2a00006b 	bcs	596c <__adddf3+0x2cc>
    57bc:	e35c0102 	cmp	r12, #-2147483648	; 0x80000000
    57c0:	01b0c0a0 	lsrseq	r12, r0, #1
    57c4:	e2b00000 	adcs	r0, r0, #0
    57c8:	e0a11a04 	adc	r1, r1, r4, lsl #20
    57cc:	e1811005 	orr	r1, r1, r5
    57d0:	e8bd4030 	pop	{r4, r5, lr}
    57d4:	e12fff1e 	bx	lr
    57d8:	e1b0c08c 	lsls	r12, r12, #1
    57dc:	e0b00000 	adcs	r0, r0, r0
    57e0:	e0a11001 	adc	r1, r1, r1
    57e4:	e3110601 	tst	r1, #1048576	; 0x100000
    57e8:	e2444001 	sub	r4, r4, #1
    57ec:	1afffff2 	bne	57bc <__adddf3+0x11c>
    57f0:	e3310000 	teq	r1, #0
    57f4:	13a03014 	movne	r3, #20
    57f8:	03a03034 	moveq	r3, #52	; 0x34
    57fc:	01a01000 	moveq	r1, r0
    5800:	03a00000 	moveq	r0, #0
    5804:	e1a02001 	mov	r2, r1
    5808:	e3520801 	cmp	r2, #65536	; 0x10000
    580c:	21a02822 	lsrcs	r2, r2, #16
    5810:	22433010 	subcs	r3, r3, #16
    5814:	e3520c01 	cmp	r2, #256	; 0x100
    5818:	21a02422 	lsrcs	r2, r2, #8
    581c:	22433008 	subcs	r3, r3, #8
    5820:	e3520010 	cmp	r2, #16
    5824:	21a02222 	lsrcs	r2, r2, #4
    5828:	22433004 	subcs	r3, r3, #4
    582c:	e3520004 	cmp	r2, #4
    5830:	22433002 	subcs	r3, r3, #2
    5834:	304330a2 	subcc	r3, r3, r2, lsr #1
    5838:	e04331a2 	sub	r3, r3, r2, lsr #3
    583c:	e2532020 	subs	r2, r3, #32
    5840:	aa000007 	bge	5864 <__adddf3+0x1c4>
    5844:	e292200c 	adds	r2, r2, #12
    5848:	da000004 	ble	5860 <__adddf3+0x1c0>
    584c:	e282c014 	add	r12, r2, #20
    5850:	e262200c 	rsb	r2, r2, #12
    5854:	e1a00c11 	lsl	r0, r1, r12
    5858:	e1a01231 	lsr	r1, r1, r2
    585c:	ea000004 	b	5874 <__adddf3+0x1d4>
    5860:	e2822014 	add	r2, r2, #20
    5864:	d262c020 	rsble	r12, r2, #32
    5868:	e1a01211 	lsl	r1, r1, r2
    586c:	d1811c30 	orrle	r1, r1, r0, lsr r12
    5870:	d1a00210 	lslle	r0, r0, r2
    5874:	e0544003 	subs	r4, r4, r3
    5878:	a0811a04 	addge	r1, r1, r4, lsl #20
    587c:	a1811005 	orrge	r1, r1, r5
    5880:	a8bd4030 	popge	{r4, r5, lr}
    5884:	a12fff1e 	bxge	lr
    5888:	e1e04004 	mvn	r4, r4
    588c:	e254401f 	subs	r4, r4, #31
    5890:	aa00000f 	bge	58d4 <__adddf3+0x234>
    5894:	e294400c 	adds	r4, r4, #12
    5898:	ca000006 	bgt	58b8 <__adddf3+0x218>
    589c:	e2844014 	add	r4, r4, #20
    58a0:	e2642020 	rsb	r2, r4, #32
    58a4:	e1a00430 	lsr	r0, r0, r4
    58a8:	e1800211 	orr	r0, r0, r1, lsl r2
    58ac:	e1851431 	orr	r1, r5, r1, lsr r4
    58b0:	e8bd4030 	pop	{r4, r5, lr}
    58b4:	e12fff1e 	bx	lr
    58b8:	e264400c 	rsb	r4, r4, #12
    58bc:	e2642020 	rsb	r2, r4, #32
    58c0:	e1a00230 	lsr	r0, r0, r2
    58c4:	e1800411 	orr	r0, r0, r1, lsl r4
    58c8:	e1a01005 	mov	r1, r5
    58cc:	e8bd4030 	pop	{r4, r5, lr}
    58d0:	e12fff1e 	bx	lr
    58d4:	e1a00431 	lsr	r0, r1, r4
    58d8:	e1a01005 	mov	r1, r5
    58dc:	e8bd4030 	pop	{r4, r5, lr}
    58e0:	e12fff1e 	bx	lr
    58e4:	e3340000 	teq	r4, #0
    58e8:	e2233601 	eor	r3, r3, #1048576	; 0x100000
    58ec:	02211601 	eoreq	r1, r1, #1048576	; 0x100000
    58f0:	02844001 	addeq	r4, r4, #1
    58f4:	12455001 	subne	r5, r5, #1
    58f8:	eaffff8f 	b	573c <__adddf3+0x9c>
    58fc:	e1f0cac4 	mvns	r12, r4, asr #21
    5900:	11f0cac5 	mvnsne	r12, r5, asr #21
    5904:	0a00001d 	beq	5980 <__adddf3+0x2e0>
    5908:	e1340005 	teq	r4, r5
    590c:	01300002 	teqeq	r0, r2
    5910:	0a000004 	beq	5928 <__adddf3+0x288>
    5914:	e194c000 	orrs	r12, r4, r0
    5918:	01a01003 	moveq	r1, r3
    591c:	01a00002 	moveq	r0, r2
    5920:	e8bd4030 	pop	{r4, r5, lr}
    5924:	e12fff1e 	bx	lr
    5928:	e1310003 	teq	r1, r3
    592c:	13a01000 	movne	r1, #0
    5930:	13a00000 	movne	r0, #0
    5934:	18bd4030 	popne	{r4, r5, lr}
    5938:	112fff1e 	bxne	lr
    593c:	e1b0caa4 	lsrs	r12, r4, #21
    5940:	1a000004 	bne	5958 <__adddf3+0x2b8>
    5944:	e1b00080 	lsls	r0, r0, #1
    5948:	e0b11001 	adcs	r1, r1, r1
    594c:	23811102 	orrcs	r1, r1, #-2147483648	; 0x80000000
    5950:	e8bd4030 	pop	{r4, r5, lr}
    5954:	e12fff1e 	bx	lr
    5958:	e2944501 	adds	r4, r4, #4194304	; 0x400000
    595c:	32811601 	addcc	r1, r1, #1048576	; 0x100000
    5960:	38bd4030 	popcc	{r4, r5, lr}
    5964:	312fff1e 	bxcc	lr
    5968:	e2015102 	and	r5, r1, #-2147483648	; 0x80000000
    596c:	e385147f 	orr	r1, r5, #2130706432	; 0x7f000000
    5970:	e381160f 	orr	r1, r1, #15728640	; 0xf00000
    5974:	e3a00000 	mov	r0, #0
    5978:	e8bd4030 	pop	{r4, r5, lr}
    597c:	e12fff1e 	bx	lr
    5980:	e1f0cac4 	mvns	r12, r4, asr #21
    5984:	11a01003 	movne	r1, r3
    5988:	11a00002 	movne	r0, r2
    598c:	01f0cac5 	mvnseq	r12, r5, asr #21
    5990:	11a03001 	movne	r3, r1
    5994:	11a02000 	movne	r2, r0
    5998:	e1904601 	orrs	r4, r0, r1, lsl #12
    599c:	01925603 	orrseq	r5, r2, r3, lsl #12
    59a0:	01310003 	teqeq	r1, r3
    59a4:	13811702 	orrne	r1, r1, #524288	; 0x80000
    59a8:	e8bd4030 	pop	{r4, r5, lr}
    59ac:	e12fff1e 	bx	lr

000059b0 <__aeabi_ui2d>:
    59b0:	e3300000 	teq	r0, #0
    59b4:	03a01000 	moveq	r1, #0
    59b8:	012fff1e 	bxeq	lr
    59bc:	e92d4030 	push	{r4, r5, lr}
    59c0:	e3a04b01 	mov	r4, #1024	; 0x400
    59c4:	e2844032 	add	r4, r4, #50	; 0x32
    59c8:	e3a05000 	mov	r5, #0
    59cc:	e3a01000 	mov	r1, #0
    59d0:	eaffff86 	b	57f0 <__adddf3+0x150>

000059d4 <__aeabi_i2d>:
    59d4:	e3300000 	teq	r0, #0
    59d8:	03a01000 	moveq	r1, #0
    59dc:	012fff1e 	bxeq	lr
    59e0:	e92d4030 	push	{r4, r5, lr}
    59e4:	e3a04b01 	mov	r4, #1024	; 0x400
    59e8:	e2844032 	add	r4, r4, #50	; 0x32
    59ec:	e2105102 	ands	r5, r0, #-2147483648	; 0x80000000
    59f0:	42600000 	rsbmi	r0, r0, #0
    59f4:	e3a01000 	mov	r1, #0
    59f8:	eaffff7c 	b	57f0 <__adddf3+0x150>

000059fc <__aeabi_f2d>:
    59fc:	e1b02080 	lsls	r2, r0, #1
    5a00:	e1a011c2 	asr	r1, r2, #3
    5a04:	e1a01061 	rrx	r1, r1
    5a08:	e1a00e02 	lsl	r0, r2, #28
    5a0c:	121234ff 	andsne	r3, r2, #-16777216	; 0xff000000
    5a10:	133304ff 	teqne	r3, #-16777216	; 0xff000000
    5a14:	1221130e 	eorne	r1, r1, #939524096	; 0x38000000
    5a18:	112fff1e 	bxne	lr
    5a1c:	e3320000 	teq	r2, #0
    5a20:	133304ff 	teqne	r3, #-16777216	; 0xff000000
    5a24:	012fff1e 	bxeq	lr
    5a28:	e92d4030 	push	{r4, r5, lr}
    5a2c:	e3a04d0e 	mov	r4, #896	; 0x380
    5a30:	e2015102 	and	r5, r1, #-2147483648	; 0x80000000
    5a34:	e3c11102 	bic	r1, r1, #-2147483648	; 0x80000000
    5a38:	eaffff6c 	b	57f0 <__adddf3+0x150>

00005a3c <__aeabi_ul2d>:
    5a3c:	e1902001 	orrs	r2, r0, r1
    5a40:	012fff1e 	bxeq	lr
    5a44:	e92d4030 	push	{r4, r5, lr}
    5a48:	e3a05000 	mov	r5, #0
    5a4c:	ea000006 	b	5a6c <__aeabi_l2d+0x1c>

00005a50 <__aeabi_l2d>:
    5a50:	e1902001 	orrs	r2, r0, r1
    5a54:	012fff1e 	bxeq	lr
    5a58:	e92d4030 	push	{r4, r5, lr}
    5a5c:	e2115102 	ands	r5, r1, #-2147483648	; 0x80000000
    5a60:	5a000001 	bpl	5a6c <__aeabi_l2d+0x1c>
    5a64:	e2700000 	rsbs	r0, r0, #0
    5a68:	e2e11000 	rsc	r1, r1, #0
    5a6c:	e3a04b01 	mov	r4, #1024	; 0x400
    5a70:	e2844032 	add	r4, r4, #50	; 0x32
    5a74:	e1b0cb21 	lsrs	r12, r1, #22
    5a78:	0affff44 	beq	5790 <__adddf3+0xf0>
    5a7c:	e3a02003 	mov	r2, #3
    5a80:	e1b0c1ac 	lsrs	r12, r12, #3
    5a84:	12822003 	addne	r2, r2, #3
    5a88:	e1b0c1ac 	lsrs	r12, r12, #3
    5a8c:	12822003 	addne	r2, r2, #3
    5a90:	e08221ac 	add	r2, r2, r12, lsr #3
    5a94:	e2623020 	rsb	r3, r2, #32
    5a98:	e1a0c310 	lsl	r12, r0, r3
    5a9c:	e1a00230 	lsr	r0, r0, r2
    5aa0:	e1800311 	orr	r0, r0, r1, lsl r3
    5aa4:	e1a01231 	lsr	r1, r1, r2
    5aa8:	e0844002 	add	r4, r4, r2
    5aac:	eaffff37 	b	5790 <__adddf3+0xf0>

00005ab0 <__aeabi_dmul>:
    5ab0:	e92d4070 	push	{r4, r5, r6, lr}
    5ab4:	e3a0c0ff 	mov	r12, #255	; 0xff
    5ab8:	e38ccc07 	orr	r12, r12, #1792	; 0x700
    5abc:	e01c4a21 	ands	r4, r12, r1, lsr #20
    5ac0:	101c5a23 	andsne	r5, r12, r3, lsr #20
    5ac4:	1134000c 	teqne	r4, r12
    5ac8:	1135000c 	teqne	r5, r12
    5acc:	0b000075 	bleq	5ca8 <__aeabi_dmul+0x1f8>
    5ad0:	e0844005 	add	r4, r4, r5
